(lp0
(lp1
(lp2
I0
aI0
aa(lp3
I1
aI1
aaa(lp4
(lp5
I1
aI1
aa(lp6
I0
aI0
aaa(lp7
(lp8
I1
aI0
aa(lp9
I1
aI0
aaa(lp10
(lp11
I0
aI1
aa(lp12
I1
aI0
aaa(lp13
(lp14
I0
aI1
aa(lp15
I0
aI1
aaa(lp16
(lp17
I1
aI0
aa(lp18
I0
aI1
aaa.