(lp0
(lp1
(lp2
I0
aI0
aI0
aa(lp3
I0
aI0
aI0
aa(lp4
I1
aI0
aI0
aaa(lp5
(lp6
I0
aI0
aI0
aa(lp7
I0
aI0
aI0
aa(lp8
I0
aI1
aI0
aaa(lp9
(lp10
I2
aI2
aI0
aa(lp11
I2
aI2
aI0
aa(lp12
I0
aI0
aI0
aaa(lp13
(lp14
I0
aI0
aI0
aa(lp15
I1
aI0
aI0
aa(lp16
I0
aI0
aI0
aaa(lp17
(lp18
I0
aI1
aI0
aa(lp19
I0
aI0
aI0
aa(lp20
I0
aI0
aI0
aaa(lp21
(lp22
I0
aI0
aI1
aa(lp23
I0
aI0
aI0
aa(lp24
I0
aI0
aI0
aaa(lp25
(lp26
I0
aI0
aI0
aa(lp27
I0
aI0
aI0
aa(lp28
I0
aI0
aI1
aaa(lp29
(lp30
I0
aI0
aI0
aa(lp31
I0
aI2
aI2
aa(lp32
I0
aI2
aI2
aaa(lp33
(lp34
I0
aI0
aI0
aa(lp35
I2
aI2
aI0
aa(lp36
I2
aI2
aI0
aaa(lp37
(lp38
I0
aI0
aI0
aa(lp39
I0
aI0
aI1
aa(lp40
I0
aI0
aI0
aaa(lp41
(lp42
I0
aI2
aI2
aa(lp43
I0
aI2
aI2
aa(lp44
I0
aI0
aI0
aaa(lp45
(lp46
I0
aI0
aI0
aa(lp47
I0
aI1
aI0
aa(lp48
I0
aI0
aI0
aaa.