(lp0
(lp1
(lp2
I1
aI2
aI2
aa(lp3
I0
aI2
aI2
aa(lp4
I0
aI0
aI0
aaa(lp5
(lp6
I0
aI0
aI1
aa(lp7
I0
aI0
aI0
aa(lp8
I1
aI0
aI0
aaa(lp9
(lp10
I2
aI2
aI0
aa(lp11
I2
aI2
aI0
aa(lp12
I0
aI0
aI1
aaa(lp13
(lp14
I0
aI0
aI0
aa(lp15
I1
aI0
aI0
aa(lp16
I0
aI0
aI1
aaa(lp17
(lp18
I0
aI0
aI1
aa(lp19
I1
aI0
aI0
aa(lp20
I0
aI0
aI0
aaa(lp21
(lp22
I0
aI0
aI0
aa(lp23
I0
aI0
aI0
aa(lp24
I0
aI1
aI1
aaa(lp25
(lp26
I0
aI0
aI1
aa(lp27
I0
aI2
aI2
aa(lp28
I0
aI2
aI2
aaa(lp29
(lp30
I1
aI0
aI0
aa(lp31
I0
aI0
aI1
aa(lp32
I0
aI0
aI0
aaa(lp33
(lp34
I1
aI0
aI0
aa(lp35
I2
aI2
aI0
aa(lp36
I2
aI2
aI0
aaa(lp37
(lp38
I0
aI0
aI0
aa(lp39
I0
aI0
aI0
aa(lp40
I1
aI0
aI1
aaa(lp41
(lp42
I0
aI0
aI0
aa(lp43
I0
aI0
aI1
aa(lp44
I1
aI0
aI0
aaa(lp45
(lp46
I0
aI2
aI2
aa(lp47
I0
aI2
aI2
aa(lp48
I0
aI0
aI1
aaa(lp49
(lp50
I0
aI0
aI1
aa(lp51
I0
aI0
aI1
aa(lp52
I0
aI0
aI0
aaa(lp53
(lp54
I0
aI0
aI0
aa(lp55
I0
aI0
aI0
aa(lp56
I1
aI1
aI0
aaa(lp57
(lp58
I0
aI0
aI1
aa(lp59
I0
aI0
aI0
aa(lp60
I0
aI1
aI0
aaa(lp61
(lp62
I0
aI0
aI1
aa(lp63
I2
aI2
aI0
aa(lp64
I2
aI2
aI0
aaa(lp65
(lp66
I0
aI1
aI1
aa(lp67
I0
aI0
aI0
aa(lp68
I0
aI0
aI0
aaa(lp69
(lp70
I1
aI0
aI0
aa(lp71
I0
aI1
aI0
aa(lp72
I0
aI0
aI0
aaa(lp73
(lp74
I0
aI1
aI0
aa(lp75
I0
aI0
aI1
aa(lp76
I0
aI0
aI0
aaa(lp77
(lp78
I0
aI0
aI0
aa(lp79
I0
aI1
aI1
aa(lp80
I0
aI0
aI0
aaa(lp81
(lp82
I0
aI1
aI0
aa(lp83
I0
aI1
aI0
aa(lp84
I0
aI0
aI0
aaa(lp85
(lp86
I0
aI0
aI0
aa(lp87
I2
aI2
aI0
aa(lp88
I2
aI2
aI1
aaa(lp89
(lp90
I1
aI1
aI0
aa(lp91
I0
aI0
aI0
aa(lp92
I0
aI0
aI0
aaa(lp93
(lp94
I0
aI0
aI0
aa(lp95
I0
aI1
aI0
aa(lp96
I0
aI1
aI0
aaa(lp97
(lp98
I0
aI0
aI0
aa(lp99
I0
aI0
aI1
aa(lp100
I0
aI1
aI0
aaa(lp101
(lp102
I0
aI2
aI2
aa(lp103
I1
aI2
aI2
aa(lp104
I0
aI0
aI0
aaa(lp105
(lp106
I2
aI2
aI0
aa(lp107
I2
aI2
aI1
aa(lp108
I0
aI0
aI0
aaa(lp109
(lp110
I0
aI1
aI0
aa(lp111
I0
aI2
aI2
aa(lp112
I0
aI2
aI2
aaa(lp113
(lp114
I1
aI0
aI0
aa(lp115
I0
aI0
aI0
aa(lp116
I0
aI1
aI0
aaa(lp117
(lp118
I1
aI0
aI0
aa(lp119
I0
aI0
aI0
aa(lp120
I0
aI0
aI1
aaa(lp121
(lp122
I0
aI0
aI1
aa(lp123
I0
aI0
aI0
aa(lp124
I0
aI0
aI1
aaa(lp125
(lp126
I0
aI1
aI0
aa(lp127
I0
aI0
aI0
aa(lp128
I1
aI0
aI0
aaa(lp129
(lp130
I1
aI0
aI0
aa(lp131
I1
aI0
aI0
aa(lp132
I0
aI0
aI0
aaa(lp133
(lp134
I0
aI0
aI0
aa(lp135
I0
aI2
aI2
aa(lp136
I1
aI2
aI2
aaa(lp137
(lp138
I0
aI0
aI0
aa(lp139
I1
aI0
aI0
aa(lp140
I1
aI0
aI0
aaa(lp141
(lp142
I0
aI0
aI0
aa(lp143
I0
aI0
aI1
aa(lp144
I0
aI0
aI1
aaa(lp145
(lp146
I0
aI1
aI0
aa(lp147
I0
aI0
aI0
aa(lp148
I0
aI1
aI0
aaa(lp149
(lp150
I1
aI0
aI1
aa(lp151
I0
aI0
aI0
aa(lp152
I0
aI0
aI0
aaa(lp153
(lp154
I0
aI2
aI2
aa(lp155
I0
aI2
aI2
aa(lp156
I1
aI0
aI0
aaa(lp157
(lp158
I1
aI0
aI0
aa(lp159
I0
aI2
aI2
aa(lp160
I0
aI2
aI2
aaa(lp161
(lp162
I0
aI0
aI0
aa(lp163
I1
aI0
aI1
aa(lp164
I0
aI0
aI0
aaa(lp165
(lp166
I0
aI2
aI2
aa(lp167
I0
aI2
aI2
aa(lp168
I0
aI1
aI0
aaa(lp169
(lp170
I2
aI2
aI1
aa(lp171
I2
aI2
aI0
aa(lp172
I0
aI0
aI0
aaa(lp173
(lp174
I0
aI0
aI0
aa(lp175
I0
aI1
aI0
aa(lp176
I0
aI0
aI1
aaa(lp177
(lp178
I0
aI1
aI0
aa(lp179
I2
aI2
aI0
aa(lp180
I2
aI2
aI0
aaa(lp181
(lp182
I0
aI0
aI0
aa(lp183
I1
aI1
aI0
aa(lp184
I0
aI0
aI0
aaa(lp185
(lp186
I0
aI0
aI0
aa(lp187
I1
aI0
aI0
aa(lp188
I0
aI1
aI0
aaa(lp189
(lp190
I0
aI1
aI0
aa(lp191
I0
aI0
aI0
aa(lp192
I0
aI0
aI1
aaa(lp193
(lp194
I0
aI0
aI1
aa(lp195
I0
aI1
aI0
aa(lp196
I0
aI0
aI0
aaa(lp197
(lp198
I2
aI2
aI0
aa(lp199
I2
aI2
aI0
aa(lp200
I0
aI1
aI0
aaa(lp201
(lp202
I0
aI0
aI0
aa(lp203
I0
aI1
aI0
aa(lp204
I1
aI0
aI0
aaa(lp205
(lp206
I2
aI2
aI0
aa(lp207
I2
aI2
aI0
aa(lp208
I1
aI0
aI0
aaa(lp209
(lp210
I0
aI0
aI0
aa(lp211
I2
aI2
aI1
aa(lp212
I2
aI2
aI0
aaa(lp213
(lp214
I0
aI0
aI0
aa(lp215
I1
aI2
aI2
aa(lp216
I0
aI2
aI2
aaa(lp217
(lp218
I0
aI1
aI0
aa(lp219
I1
aI0
aI0
aa(lp220
I0
aI0
aI0
aaa(lp221
(lp222
I1
aI0
aI0
aa(lp223
I0
aI0
aI0
aa(lp224
I1
aI0
aI0
aaa.