(lp0
(lp1
(lp2
I1
aI2
aI2
aa(lp3
I0
aI2
aI2
aa(lp4
I0
aI0
aI1
aaa(lp5
(lp6
I0
aI0
aI1
aa(lp7
I0
aI1
aI0
aa(lp8
I1
aI0
aI0
aaa(lp9
(lp10
I0
aI0
aI0
aa(lp11
I1
aI0
aI1
aa(lp12
I1
aI0
aI0
aaa(lp13
(lp14
I0
aI2
aI2
aa(lp15
I1
aI2
aI2
aa(lp16
I0
aI1
aI0
aaa(lp17
(lp18
I0
aI1
aI0
aa(lp19
I1
aI0
aI0
aa(lp20
I0
aI1
aI0
aaa(lp21
(lp22
I2
aI2
aI0
aa(lp23
I2
aI2
aI1
aa(lp24
I0
aI0
aI1
aaa(lp25
(lp26
I0
aI1
aI0
aa(lp27
I0
aI1
aI0
aa(lp28
I0
aI0
aI1
aaa(lp29
(lp30
I1
aI0
aI0
aa(lp31
I0
aI1
aI0
aa(lp32
I0
aI0
aI1
aaa(lp33
(lp34
I0
aI0
aI0
aa(lp35
I1
aI2
aI2
aa(lp36
I1
aI2
aI2
aaa(lp37
(lp38
I0
aI0
aI1
aa(lp39
I1
aI0
aI0
aa(lp40
I0
aI1
aI0
aaa(lp41
(lp42
I2
aI2
aI1
aa(lp43
I2
aI2
aI1
aa(lp44
I0
aI0
aI0
aaa(lp45
(lp46
I0
aI1
aI0
aa(lp47
I2
aI2
aI1
aa(lp48
I2
aI2
aI0
aaa(lp49
(lp50
I0
aI0
aI0
aa(lp51
I1
aI1
aI0
aa(lp52
I0
aI0
aI1
aaa(lp53
(lp54
I1
aI0
aI0
aa(lp55
I2
aI2
aI1
aa(lp56
I2
aI2
aI0
aaa(lp57
(lp58
I0
aI1
aI1
aa(lp59
I0
aI0
aI1
aa(lp60
I0
aI0
aI0
aaa(lp61
(lp62
I0
aI0
aI0
aa(lp63
I0
aI0
aI1
aa(lp64
I1
aI0
aI1
aaa(lp65
(lp66
I1
aI0
aI0
aa(lp67
I1
aI0
aI0
aa(lp68
I0
aI1
aI0
aaa(lp69
(lp70
I0
aI0
aI1
aa(lp71
I1
aI2
aI2
aa(lp72
I0
aI2
aI2
aaa(lp73
(lp74
I2
aI2
aI1
aa(lp75
I2
aI2
aI0
aa(lp76
I0
aI1
aI0
aaa(lp77
(lp78
I1
aI1
aI1
aa(lp79
I0
aI0
aI0
aa(lp80
I0
aI0
aI0
aaa(lp81
(lp82
I0
aI0
aI1
aa(lp83
I0
aI0
aI1
aa(lp84
I0
aI0
aI1
aaa(lp85
(lp86
I0
aI2
aI2
aa(lp87
I1
aI2
aI2
aa(lp88
I1
aI0
aI0
aaa(lp89
(lp90
I2
aI2
aI0
aa(lp91
I2
aI2
aI0
aa(lp92
I1
aI1
aI0
aaa(lp93
(lp94
I1
aI0
aI0
aa(lp95
I0
aI0
aI0
aa(lp96
I1
aI1
aI0
aaa(lp97
(lp98
I1
aI1
aI0
aa(lp99
I0
aI0
aI0
aa(lp100
I0
aI1
aI0
aaa(lp101
(lp102
I2
aI2
aI0
aa(lp103
I2
aI2
aI0
aa(lp104
I0
aI1
aI1
aaa(lp105
(lp106
I1
aI1
aI0
aa(lp107
I2
aI2
aI0
aa(lp108
I2
aI2
aI0
aaa(lp109
(lp110
I0
aI1
aI0
aa(lp111
I0
aI0
aI1
aa(lp112
I1
aI0
aI0
aaa(lp113
(lp114
I0
aI2
aI2
aa(lp115
I0
aI2
aI2
aa(lp116
I1
aI0
aI1
aaa(lp117
(lp118
I2
aI2
aI0
aa(lp119
I2
aI2
aI0
aa(lp120
I1
aI0
aI1
aaa(lp121
(lp122
I1
aI0
aI1
aa(lp123
I2
aI2
aI0
aa(lp124
I2
aI2
aI0
aaa(lp125
(lp126
I1
aI1
aI0
aa(lp127
I0
aI0
aI0
aa(lp128
I0
aI0
aI1
aaa(lp129
(lp130
I1
aI1
aI0
aa(lp131
I0
aI0
aI1
aa(lp132
I0
aI0
aI0
aaa(lp133
(lp134
I0
aI0
aI0
aa(lp135
I0
aI1
aI0
aa(lp136
I1
aI0
aI1
aaa(lp137
(lp138
I1
aI0
aI0
aa(lp139
I0
aI0
aI1
aa(lp140
I1
aI0
aI0
aaa(lp141
(lp142
I0
aI1
aI1
aa(lp143
I0
aI0
aI0
aa(lp144
I1
aI0
aI0
aaa(lp145
(lp146
I0
aI1
aI0
aa(lp147
I0
aI1
aI1
aa(lp148
I0
aI0
aI0
aaa(lp149
(lp150
I0
aI0
aI1
aa(lp151
I0
aI1
aI0
aa(lp152
I0
aI0
aI1
aaa(lp153
(lp154
I0
aI0
aI0
aa(lp155
I0
aI1
aI1
aa(lp156
I1
aI0
aI0
aaa(lp157
(lp158
I0
aI0
aI0
aa(lp159
I0
aI1
aI0
aa(lp160
I1
aI1
aI0
aaa(lp161
(lp162
I0
aI0
aI1
aa(lp163
I0
aI0
aI0
aa(lp164
I1
aI1
aI0
aaa(lp165
(lp166
I0
aI1
aI0
aa(lp167
I2
aI2
aI0
aa(lp168
I2
aI2
aI1
aaa(lp169
(lp170
I1
aI0
aI0
aa(lp171
I0
aI0
aI1
aa(lp172
I0
aI0
aI1
aaa(lp173
(lp174
I0
aI0
aI0
aa(lp175
I1
aI0
aI1
aa(lp176
I0
aI1
aI0
aaa(lp177
(lp178
I0
aI0
aI1
aa(lp179
I0
aI0
aI1
aa(lp180
I0
aI1
aI0
aaa(lp181
(lp182
I1
aI2
aI2
aa(lp183
I1
aI2
aI2
aa(lp184
I0
aI0
aI0
aaa(lp185
(lp186
I0
aI1
aI0
aa(lp187
I0
aI0
aI1
aa(lp188
I0
aI0
aI1
aaa(lp189
(lp190
I0
aI0
aI1
aa(lp191
I0
aI1
aI0
aa(lp192
I0
aI1
aI0
aaa(lp193
(lp194
I2
aI2
aI1
aa(lp195
I2
aI2
aI0
aa(lp196
I0
aI0
aI1
aaa(lp197
(lp198
I0
aI0
aI0
aa(lp199
I0
aI1
aI0
aa(lp200
I0
aI1
aI1
aaa(lp201
(lp202
I0
aI0
aI0
aa(lp203
I0
aI0
aI1
aa(lp204
I0
aI1
aI1
aaa(lp205
(lp206
I0
aI0
aI1
aa(lp207
I2
aI2
aI0
aa(lp208
I2
aI2
aI1
aaa(lp209
(lp210
I1
aI0
aI0
aa(lp211
I1
aI2
aI2
aa(lp212
I0
aI2
aI2
aaa(lp213
(lp214
I1
aI0
aI0
aa(lp215
I2
aI2
aI0
aa(lp216
I2
aI2
aI1
aaa(lp217
(lp218
I0
aI0
aI1
aa(lp219
I2
aI2
aI1
aa(lp220
I2
aI2
aI0
aaa(lp221
(lp222
I2
aI2
aI0
aa(lp223
I2
aI2
aI1
aa(lp224
I1
aI0
aI0
aaa(lp225
(lp226
I1
aI0
aI0
aa(lp227
I1
aI0
aI0
aa(lp228
I0
aI0
aI1
aaa(lp229
(lp230
I0
aI0
aI1
aa(lp231
I0
aI0
aI0
aa(lp232
I0
aI1
aI1
aaa(lp233
(lp234
I0
aI1
aI1
aa(lp235
I0
aI2
aI2
aa(lp236
I0
aI2
aI2
aaa(lp237
(lp238
I0
aI0
aI0
aa(lp239
I1
aI0
aI0
aa(lp240
I0
aI1
aI1
aaa(lp241
(lp242
I0
aI0
aI0
aa(lp243
I1
aI1
aI0
aa(lp244
I0
aI1
aI0
aaa(lp245
(lp246
I0
aI0
aI1
aa(lp247
I0
aI0
aI0
aa(lp248
I1
aI0
aI1
aaa(lp249
(lp250
I0
aI0
aI0
aa(lp251
I0
aI1
aI1
aa(lp252
I0
aI0
aI1
aaa(lp253
(lp254
I0
aI2
aI2
aa(lp255
I0
aI2
aI2
aa(lp256
I0
aI1
aI1
aaa(lp257
(lp258
I0
aI1
aI1
aa(lp259
I1
aI0
aI0
aa(lp260
I0
aI0
aI0
aaa(lp261
(lp262
I0
aI0
aI1
aa(lp263
I1
aI0
aI0
aa(lp264
I1
aI0
aI0
aaa(lp265
(lp266
I1
aI0
aI1
aa(lp267
I0
aI0
aI0
aa(lp268
I0
aI0
aI1
aaa(lp269
(lp270
I0
aI0
aI0
aa(lp271
I1
aI0
aI0
aa(lp272
I1
aI0
aI1
aaa(lp273
(lp274
I1
aI0
aI0
aa(lp275
I0
aI1
aI1
aa(lp276
I0
aI0
aI0
aaa(lp277
(lp278
I0
aI0
aI1
aa(lp279
I0
aI0
aI1
aa(lp280
I1
aI0
aI0
aaa(lp281
(lp282
I0
aI1
aI1
aa(lp283
I0
aI0
aI0
aa(lp284
I0
aI0
aI1
aaa(lp285
(lp286
I0
aI0
aI0
aa(lp287
I1
aI0
aI0
aa(lp288
I1
aI1
aI0
aaa(lp289
(lp290
I0
aI2
aI2
aa(lp291
I1
aI2
aI2
aa(lp292
I0
aI0
aI1
aaa(lp293
(lp294
I1
aI0
aI0
aa(lp295
I0
aI1
aI0
aa(lp296
I1
aI0
aI0
aaa(lp297
(lp298
I0
aI0
aI1
aa(lp299
I1
aI0
aI0
aa(lp300
I0
aI0
aI1
aaa(lp301
(lp302
I1
aI0
aI1
aa(lp303
I0
aI0
aI0
aa(lp304
I0
aI1
aI0
aaa(lp305
(lp306
I0
aI0
aI0
aa(lp307
I1
aI1
aI1
aa(lp308
I0
aI0
aI0
aaa(lp309
(lp310
I0
aI2
aI2
aa(lp311
I0
aI2
aI2
aa(lp312
I1
aI1
aI0
aaa(lp313
(lp314
I0
aI1
aI0
aa(lp315
I0
aI0
aI0
aa(lp316
I0
aI1
aI1
aaa(lp317
(lp318
I1
aI0
aI0
aa(lp319
I0
aI1
aI0
aa(lp320
I0
aI1
aI0
aaa(lp321
(lp322
I0
aI0
aI0
aa(lp323
I2
aI2
aI1
aa(lp324
I2
aI2
aI1
aaa(lp325
(lp326
I1
aI2
aI2
aa(lp327
I0
aI2
aI2
aa(lp328
I1
aI0
aI0
aaa(lp329
(lp330
I1
aI0
aI1
aa(lp331
I0
aI1
aI0
aa(lp332
I0
aI0
aI0
aaa(lp333
(lp334
I0
aI0
aI0
aa(lp335
I0
aI1
aI1
aa(lp336
I0
aI1
aI0
aaa(lp337
(lp338
I0
aI1
aI1
aa(lp339
I0
aI0
aI0
aa(lp340
I0
aI1
aI0
aaa(lp341
(lp342
I0
aI0
aI0
aa(lp343
I0
aI0
aI0
aa(lp344
I1
aI1
aI1
aaa(lp345
(lp346
I1
aI0
aI0
aa(lp347
I1
aI1
aI0
aa(lp348
I0
aI0
aI0
aaa(lp349
(lp350
I0
aI0
aI0
aa(lp351
I1
aI0
aI1
aa(lp352
I0
aI0
aI1
aaa(lp353
(lp354
I0
aI1
aI0
aa(lp355
I0
aI0
aI0
aa(lp356
I1
aI0
aI1
aaa(lp357
(lp358
I0
aI1
aI1
aa(lp359
I2
aI2
aI0
aa(lp360
I2
aI2
aI0
aaa(lp361
(lp362
I0
aI1
aI0
aa(lp363
I1
aI0
aI0
aa(lp364
I0
aI0
aI1
aaa(lp365
(lp366
I1
aI0
aI0
aa(lp367
I1
aI0
aI0
aa(lp368
I1
aI0
aI0
aaa(lp369
(lp370
I2
aI2
aI1
aa(lp371
I2
aI2
aI0
aa(lp372
I1
aI0
aI0
aaa(lp373
(lp374
I0
aI1
aI0
aa(lp375
I0
aI1
aI0
aa(lp376
I1
aI0
aI0
aaa(lp377
(lp378
I1
aI0
aI0
aa(lp379
I0
aI0
aI0
aa(lp380
I1
aI0
aI1
aaa(lp381
(lp382
I1
aI0
aI1
aa(lp383
I0
aI2
aI2
aa(lp384
I0
aI2
aI2
aaa(lp385
(lp386
I0
aI0
aI1
aa(lp387
I0
aI1
aI1
aa(lp388
I0
aI0
aI0
aaa(lp389
(lp390
I1
aI1
aI0
aa(lp391
I0
aI1
aI0
aa(lp392
I0
aI0
aI0
aaa(lp393
(lp394
I0
aI1
aI0
aa(lp395
I1
aI2
aI2
aa(lp396
I0
aI2
aI2
aaa(lp397
(lp398
I0
aI0
aI1
aa(lp399
I0
aI2
aI2
aa(lp400
I1
aI2
aI2
aaa(lp401
(lp402
I0
aI1
aI0
aa(lp403
I0
aI0
aI0
aa(lp404
I1
aI1
aI0
aaa(lp405
(lp406
I1
aI0
aI0
aa(lp407
I1
aI0
aI1
aa(lp408
I0
aI0
aI0
aaa(lp409
(lp410
I1
aI0
aI0
aa(lp411
I0
aI2
aI2
aa(lp412
I1
aI2
aI2
aaa(lp413
(lp414
I1
aI1
aI0
aa(lp415
I0
aI2
aI2
aa(lp416
I0
aI2
aI2
aaa(lp417
(lp418
I0
aI1
aI0
aa(lp419
I0
aI0
aI1
aa(lp420
I0
aI1
aI0
aaa(lp421
(lp422
I2
aI2
aI0
aa(lp423
I2
aI2
aI1
aa(lp424
I0
aI1
aI0
aaa(lp425
(lp426
I1
aI0
aI1
aa(lp427
I1
aI0
aI0
aa(lp428
I0
aI0
aI0
aaa(lp429
(lp430
I0
aI1
aI0
aa(lp431
I0
aI2
aI2
aa(lp432
I1
aI2
aI2
aaa(lp433
(lp434
I0
aI1
aI1
aa(lp435
I0
aI1
aI0
aa(lp436
I0
aI0
aI0
aaa(lp437
(lp438
I1
aI0
aI1
aa(lp439
I0
aI0
aI1
aa(lp440
I0
aI0
aI0
aaa(lp441
(lp442
I1
aI0
aI0
aa(lp443
I0
aI0
aI1
aa(lp444
I0
aI1
aI0
aaa(lp445
(lp446
I0
aI1
aI0
aa(lp447
I0
aI1
aI0
aa(lp448
I0
aI1
aI0
aaa(lp449
(lp450
I0
aI0
aI0
aa(lp451
I0
aI0
aI1
aa(lp452
I1
aI1
aI0
aaa(lp453
(lp454
I0
aI1
aI0
aa(lp455
I1
aI0
aI1
aa(lp456
I0
aI0
aI0
aaa(lp457
(lp458
I1
aI0
aI0
aa(lp459
I0
aI0
aI0
aa(lp460
I0
aI1
aI1
aaa(lp461
(lp462
I0
aI0
aI0
aa(lp463
I1
aI1
aI0
aa(lp464
I1
aI0
aI0
aaa(lp465
(lp466
I1
aI2
aI2
aa(lp467
I0
aI2
aI2
aa(lp468
I0
aI1
aI0
aaa(lp469
(lp470
I1
aI1
aI0
aa(lp471
I1
aI0
aI0
aa(lp472
I0
aI0
aI0
aaa(lp473
(lp474
I0
aI1
aI0
aa(lp475
I1
aI1
aI0
aa(lp476
I0
aI0
aI0
aaa(lp477
(lp478
I0
aI1
aI0
aa(lp479
I1
aI0
aI0
aa(lp480
I1
aI0
aI0
aaa(lp481
(lp482
I1
aI0
aI1
aa(lp483
I0
aI0
aI0
aa(lp484
I1
aI0
aI0
aaa(lp485
(lp486
I0
aI0
aI1
aa(lp487
I1
aI1
aI0
aa(lp488
I0
aI0
aI0
aaa(lp489
(lp490
I1
aI1
aI0
aa(lp491
I0
aI0
aI0
aa(lp492
I1
aI0
aI0
aaa(lp493
(lp494
I0
aI0
aI1
aa(lp495
I1
aI0
aI1
aa(lp496
I0
aI0
aI0
aaa.