(lp0
(lp1
(lp2
I00
aI00
aI00
aI00
aI00
aI00
aI00
aI00
aI00
aI00
aI00
aI00
aI00
aI00
aI01
aI01
aI00
aI01
aI01
aI01
aI00
aI01
aI01
aI00
aa(lp3
g2
a(istate
Node
p4
(dp5
S'_hash_'
p6
S'000000000000000100110010'
p7
sS'parent'
p8
(istate
Node
p9
(dp10
g6
S'000000000000000100110110'
p11
sg8
(istate
Node
p12
(dp13
g6
S'000000000000000101110110'
p14
sg8
(istate
Node
p15
(dp16
g6
S'000000000000001101110110'
p17
sg8
NsS'state'
p18
(lp19
I00
aI00
aI00
aI00
aI00
aI00
aI00
aI00
aI00
aI00
aI00
aI00
aI00
aI00
aI01
aI01
aI00
aI01
aI01
aI01
aI00
aI01
aI01
aI00
asS'pos'
p20
I-1
sS'depth'
p21
I0
sS'action'
p22
Nsbsg18
(lp23
I00
aI00
aI00
aI00
aI00
aI00
aI00
aI00
aI00
aI00
aI00
aI00
aI00
aI00
aI00
aI01
aI00
aI01
aI01
aI01
aI00
aI01
aI01
aI00
asg20
I14
sg21
I1
sg22
I01
sbsg18
(lp24
I00
aI00
aI00
aI00
aI00
aI00
aI00
aI00
aI00
aI00
aI00
aI00
aI00
aI00
aI00
aI01
aI00
aI00
aI01
aI01
aI00
aI01
aI01
aI00
asg20
I17
sg21
I2
sg22
I01
sbsg18
(lp25
I00
aI00
aI00
aI00
aI00
aI00
aI00
aI00
aI00
aI00
aI00
aI00
aI00
aI00
aI00
aI01
aI00
aI00
aI01
aI01
aI00
aI00
aI01
aI00
asg20
I21
sg21
I3
sg22
I01
sba(lp26
I14
aI17
aI21
aaI7
aI22
aI47
aF0.031646013259887695
aaa(lp27
(lp28
I00
aI00
aI01
aI00
aI00
aI01
aI01
aI00
aI01
aI01
aI00
aI01
aI01
aI00
aI00
aI01
aI00
aI00
aI00
aI00
aI00
aI00
aI00
aI00
aa(lp29
g28
a(istate
Node
p30
(dp31
g6
S'000000001001100100000000'
p32
sg8
(istate
Node
p33
(dp34
g6
S'000000001101100100000000'
p35
sg8
(istate
Node
p36
(dp37
g6
S'000000101101100100000000'
p38
sg8
(istate
Node
p39
(dp40
g6
S'000001101101100100000000'
p41
sg8
(istate
Node
p42
(dp43
g6
S'001001101101100100000000'
p44
sg8
Nsg18
(lp45
I00
aI00
aI01
aI00
aI00
aI01
aI01
aI00
aI01
aI01
aI00
aI01
aI01
aI00
aI00
aI01
aI00
aI00
aI00
aI00
aI00
aI00
aI00
aI00
asg20
I-1
sg21
I0
sg22
Nsbsg18
(lp46
I00
aI00
aI00
aI00
aI00
aI01
aI01
aI00
aI01
aI01
aI00
aI01
aI01
aI00
aI00
aI01
aI00
aI00
aI00
aI00
aI00
aI00
aI00
aI00
asg20
I2
sg21
I1
sg22
I01
sbsg18
(lp47
I00
aI00
aI00
aI00
aI00
aI00
aI01
aI00
aI01
aI01
aI00
aI01
aI01
aI00
aI00
aI01
aI00
aI00
aI00
aI00
aI00
aI00
aI00
aI00
asg20
I5
sg21
I2
sg22
I01
sbsg18
(lp48
I00
aI00
aI00
aI00
aI00
aI00
aI00
aI00
aI01
aI01
aI00
aI01
aI01
aI00
aI00
aI01
aI00
aI00
aI00
aI00
aI00
aI00
aI00
aI00
asg20
I6
sg21
I3
sg22
I01
sbsg18
(lp49
I00
aI00
aI00
aI00
aI00
aI00
aI00
aI00
aI01
aI00
aI00
aI01
aI01
aI00
aI00
aI01
aI00
aI00
aI00
aI00
aI00
aI00
aI00
aI00
asg20
I9
sg21
I4
sg22
I01
sba(lp50
I2
aI5
aI6
aI9
aaI8
aI29
aI20
aF0.0304720401763916
aaa(lp51
(lp52
I00
aI00
aI00
aI00
aI00
aI00
aI00
aI00
aI00
aI00
aI00
aI00
aI00
aI00
aI01
aI01
aI00
aI01
aI01
aI01
aI00
aI01
aI01
aI00
aa(lp53
g52
a(istate
Node
p54
(dp55
g6
S'000000000000000100110010'
p56
sg8
(istate
Node
p57
(dp58
g6
S'000000000000000100110110'
p59
sg8
(istate
Node
p60
(dp61
g6
S'000000000000000101110110'
p62
sg8
(istate
Node
p63
(dp64
g6
S'000000000000001101110110'
p65
sg8
Nsg18
(lp66
I00
aI00
aI00
aI00
aI00
aI00
aI00
aI00
aI00
aI00
aI00
aI00
aI00
aI00
aI01
aI01
aI00
aI01
aI01
aI01
aI00
aI01
aI01
aI00
asg20
I-1
sg21
I0
sg22
Nsbsg18
(lp67
I00
aI00
aI00
aI00
aI00
aI00
aI00
aI00
aI00
aI00
aI00
aI00
aI00
aI00
aI00
aI01
aI00
aI01
aI01
aI01
aI00
aI01
aI01
aI00
asg20
I14
sg21
I1
sg22
I01
sbsg18
(lp68
I00
aI00
aI00
aI00
aI00
aI00
aI00
aI00
aI00
aI00
aI00
aI00
aI00
aI00
aI00
aI01
aI00
aI00
aI01
aI01
aI00
aI01
aI01
aI00
asg20
I17
sg21
I2
sg22
I01
sbsg18
(lp69
I00
aI00
aI00
aI00
aI00
aI00
aI00
aI00
aI00
aI00
aI00
aI00
aI00
aI00
aI00
aI01
aI00
aI00
aI01
aI01
aI00
aI00
aI01
aI00
asg20
I21
sg21
I3
sg22
I01
sba(lp70
I14
aI17
aI21
aaI7
aI22
aI47
aF0.046028852462768555
aaa(lp71
(lp72
I00
aI01
aI01
aI00
aI01
aI01
aI01
aI00
aI01
aI01
aI00
aI00
aI00
aI00
aI00
aI00
aI00
aI00
aI00
aI00
aI00
aI00
aI00
aI00
aa(lp73
g72
a(istate
Node
p74
(dp75
g6
S'001001100100000000000000'
p76
sg8
(istate
Node
p77
(dp78
g6
S'001001101100000000000000'
p79
sg8
(istate
Node
p80
(dp81
g6
S'001011101100000000000000'
p82
sg8
(istate
Node
p83
(dp84
g6
S'011011101100000000000000'
p85
sg8
Nsg18
(lp86
I00
aI01
aI01
aI00
aI01
aI01
aI01
aI00
aI01
aI01
aI00
aI00
aI00
aI00
aI00
aI00
aI00
aI00
aI00
aI00
aI00
aI00
aI00
aI00
asg20
I-1
sg21
I0
sg22
Nsbsg18
(lp87
I00
aI00
aI01
aI00
aI01
aI01
aI01
aI00
aI01
aI01
aI00
aI00
aI00
aI00
aI00
aI00
aI00
aI00
aI00
aI00
aI00
aI00
aI00
aI00
asg20
I1
sg21
I1
sg22
I01
sbsg18
(lp88
I00
aI00
aI01
aI00
aI00
aI01
aI01
aI00
aI01
aI01
aI00
aI00
aI00
aI00
aI00
aI00
aI00
aI00
aI00
aI00
aI00
aI00
aI00
aI00
asg20
I4
sg21
I2
sg22
I01
sbsg18
(lp89
I00
aI00
aI01
aI00
aI00
aI01
aI01
aI00
aI00
aI01
aI00
aI00
aI00
aI00
aI00
aI00
aI00
aI00
aI00
aI00
aI00
aI00
aI00
aI00
asg20
I8
sg21
I3
sg22
I01
sba(lp90
I1
aI4
aI8
aaI7
aI22
aI47
aF0.06971383094787598
aaa(lp91
(lp92
I00
aI00
aI00
aI00
aI00
aI00
aI00
aI00
aI01
aI00
aI00
aI01
aI01
aI00
aI00
aI01
aI00
aI00
aI01
aI01
aI00
aI00
aI01
aI00
aa(lp93
g92
a(istate
Node
p94
(dp95
g6
S'000000000000000100110010'
p96
sg8
(istate
Node
p97
(dp98
g6
S'000000000000100100110010'
p99
sg8
(istate
Node
p100
(dp101
g6
S'000000000001100100110010'
p102
sg8
(istate
Node
p103
(dp104
g6
S'000000001001100100110010'
p105
sg8
Nsg18
(lp106
I00
aI00
aI00
aI00
aI00
aI00
aI00
aI00
aI01
aI00
aI00
aI01
aI01
aI00
aI00
aI01
aI00
aI00
aI01
aI01
aI00
aI00
aI01
aI00
asg20
I-1
sg21
I0
sg22
Nsbsg18
(lp107
I00
aI00
aI00
aI00
aI00
aI00
aI00
aI00
aI00
aI00
aI00
aI01
aI01
aI00
aI00
aI01
aI00
aI00
aI01
aI01
aI00
aI00
aI01
aI00
asg20
I8
sg21
I1
sg22
I01
sbsg18
(lp108
I00
aI00
aI00
aI00
aI00
aI00
aI00
aI00
aI00
aI00
aI00
aI00
aI01
aI00
aI00
aI01
aI00
aI00
aI01
aI01
aI00
aI00
aI01
aI00
asg20
I11
sg21
I2
sg22
I01
sbsg18
(lp109
I00
aI00
aI00
aI00
aI00
aI00
aI00
aI00
aI00
aI00
aI00
aI00
aI00
aI00
aI00
aI01
aI00
aI00
aI01
aI01
aI00
aI00
aI01
aI00
asg20
I12
sg21
I3
sg22
I01
sba(lp110
I8
aI11
aI12
aaI3
aI16
aI3
aF0.009675025939941406
aaa(lp111
(lp112
I00
aI00
aI00
aI00
aI00
aI00
aI00
aI00
aI00
aI01
aI00
aI00
aI01
aI01
aI01
aI00
aI01
aI01
aI01
aI00
aI00
aI01
aI00
aI00
aa(lp113
g112
a(istate
Node
p114
(dp115
g6
S'000000000000001001100100'
p116
sg8
(istate
Node
p117
(dp118
g6
S'000000000000001011100100'
p119
sg8
(istate
Node
p120
(dp121
g6
S'000000000000011011100100'
p122
sg8
(istate
Node
p123
(dp124
g6
S'000000000000111011100100'
p125
sg8
(istate
Node
p126
(dp127
g6
S'000000000100111011100100'
p128
sg8
Nsg18
(lp129
I00
aI00
aI00
aI00
aI00
aI00
aI00
aI00
aI00
aI01
aI00
aI00
aI01
aI01
aI01
aI00
aI01
aI01
aI01
aI00
aI00
aI01
aI00
aI00
asg20
I-1
sg21
I0
sg22
Nsbsg18
(lp130
I00
aI00
aI00
aI00
aI00
aI00
aI00
aI00
aI00
aI00
aI00
aI00
aI01
aI01
aI01
aI00
aI01
aI01
aI01
aI00
aI00
aI01
aI00
aI00
asg20
I9
sg21
I1
sg22
I01
sbsg18
(lp131
I00
aI00
aI00
aI00
aI00
aI00
aI00
aI00
aI00
aI00
aI00
aI00
aI00
aI01
aI01
aI00
aI01
aI01
aI01
aI00
aI00
aI01
aI00
aI00
asg20
I12
sg21
I2
sg22
I01
sbsg18
(lp132
I00
aI00
aI00
aI00
aI00
aI00
aI00
aI00
aI00
aI00
aI00
aI00
aI00
aI00
aI01
aI00
aI01
aI01
aI01
aI00
aI00
aI01
aI00
aI00
asg20
I13
sg21
I3
sg22
I01
sbsg18
(lp133
I00
aI00
aI00
aI00
aI00
aI00
aI00
aI00
aI00
aI00
aI00
aI00
aI00
aI00
aI01
aI00
aI00
aI01
aI01
aI00
aI00
aI01
aI00
aI00
asg20
I16
sg21
I4
sg22
I01
sba(lp134
I9
aI12
aI13
aI16
aaI8
aI29
aI20
aF0.023107051849365234
aaa(lp135
(lp136
I00
aI00
aI00
aI00
aI00
aI00
aI00
aI01
aI00
aI00
aI01
aI01
aI00
aI00
aI01
aI00
aI00
aI01
aI01
aI00
aI00
aI01
aI00
aI00
aa(lp137
g136
a(istate
Node
p138
(dp139
g6
S'000000000000001001100100'
p140
sg8
(istate
Node
p141
(dp142
g6
S'000000000001001001100100'
p143
sg8
(istate
Node
p144
(dp145
g6
S'000000000011001001100100'
p146
sg8
(istate
Node
p147
(dp148
g6
S'000000010011001001100100'
p149
sg8
Nsg18
(lp150
I00
aI00
aI00
aI00
aI00
aI00
aI00
aI01
aI00
aI00
aI01
aI01
aI00
aI00
aI01
aI00
aI00
aI01
aI01
aI00
aI00
aI01
aI00
aI00
asg20
I-1
sg21
I0
sg22
Nsbsg18
(lp151
I00
aI00
aI00
aI00
aI00
aI00
aI00
aI00
aI00
aI00
aI01
aI01
aI00
aI00
aI01
aI00
aI00
aI01
aI01
aI00
aI00
aI01
aI00
aI00
asg20
I7
sg21
I1
sg22
I01
sbsg18
(lp152
I00
aI00
aI00
aI00
aI00
aI00
aI00
aI00
aI00
aI00
aI00
aI01
aI00
aI00
aI01
aI00
aI00
aI01
aI01
aI00
aI00
aI01
aI00
aI00
asg20
I10
sg21
I2
sg22
I01
sbsg18
(lp153
I00
aI00
aI00
aI00
aI00
aI00
aI00
aI00
aI00
aI00
aI00
aI00
aI00
aI00
aI01
aI00
aI00
aI01
aI01
aI00
aI00
aI01
aI00
aI00
asg20
I11
sg21
I3
sg22
I01
sba(lp154
I7
aI10
aI11
aaI3
aI16
aI3
aF0.009907007217407227
aaa(lp155
(lp156
I00
aI00
aI00
aI00
aI00
aI00
aI00
aI00
aI01
aI00
aI00
aI01
aI01
aI00
aI00
aI01
aI01
aI00
aI00
aI01
aI01
aI00
aI00
aI01
aa(lp157
g156
a(istate
Node
p158
(dp159
g6
S'000000000000000010011001'
p160
sg8
(istate
Node
p161
(dp162
g6
S'000000000000000110011001'
p163
sg8
(istate
Node
p164
(dp165
g6
S'000000000000100110011001'
p166
sg8
(istate
Node
p167
(dp168
g6
S'000000000001100110011001'
p169
sg8
(istate
Node
p170
(dp171
g6
S'000000001001100110011001'
p172
sg8
Nsg18
(lp173
I00
aI00
aI00
aI00
aI00
aI00
aI00
aI00
aI01
aI00
aI00
aI01
aI01
aI00
aI00
aI01
aI01
aI00
aI00
aI01
aI01
aI00
aI00
aI01
asg20
I-1
sg21
I0
sg22
Nsbsg18
(lp174
I00
aI00
aI00
aI00
aI00
aI00
aI00
aI00
aI00
aI00
aI00
aI01
aI01
aI00
aI00
aI01
aI01
aI00
aI00
aI01
aI01
aI00
aI00
aI01
asg20
I8
sg21
I1
sg22
I01
sbsg18
(lp175
I00
aI00
aI00
aI00
aI00
aI00
aI00
aI00
aI00
aI00
aI00
aI00
aI01
aI00
aI00
aI01
aI01
aI00
aI00
aI01
aI01
aI00
aI00
aI01
asg20
I11
sg21
I2
sg22
I01
sbsg18
(lp176
I00
aI00
aI00
aI00
aI00
aI00
aI00
aI00
aI00
aI00
aI00
aI00
aI00
aI00
aI00
aI01
aI01
aI00
aI00
aI01
aI01
aI00
aI00
aI01
asg20
I12
sg21
I3
sg22
I01
sbsg18
(lp177
I00
aI00
aI00
aI00
aI00
aI00
aI00
aI00
aI00
aI00
aI00
aI00
aI00
aI00
aI00
aI00
aI01
aI00
aI00
aI01
aI01
aI00
aI00
aI01
asg20
I15
sg21
I4
sg22
I01
sba(lp178
I8
aI11
aI12
aI15
aaI4
aI23
aI4
aF0.01524496078491211
aaa(lp179
(lp180
I00
aI01
aI00
aI00
aI01
aI01
aI00
aI00
aI01
aI00
aI00
aI00
aI00
aI00
aI00
aI01
aI00
aI00
aI01
aI01
aI00
aI00
aI01
aI00
aa(lp181
g180
a(istate
Node
p182
(dp183
g6
S'000000000000000100110010'
p184
sg8
(istate
Node
p185
(dp186
g6
S'000000001000000100110010'
p187
sg8
(istate
Node
p188
(dp189
g6
S'000001001000000100110010'
p190
sg8
(istate
Node
p191
(dp192
g6
S'000011001000000100110010'
p193
sg8
(istate
Node
p194
(dp195
g6
S'010011001000000100110010'
p196
sg8
Nsg18
(lp197
I00
aI01
aI00
aI00
aI01
aI01
aI00
aI00
aI01
aI00
aI00
aI00
aI00
aI00
aI00
aI01
aI00
aI00
aI01
aI01
aI00
aI00
aI01
aI00
asg20
I-1
sg21
I0
sg22
Nsbsg18
(lp198
I00
aI00
aI00
aI00
aI01
aI01
aI00
aI00
aI01
aI00
aI00
aI00
aI00
aI00
aI00
aI01
aI00
aI00
aI01
aI01
aI00
aI00
aI01
aI00
asg20
I1
sg21
I1
sg22
I01
sbsg18
(lp199
I00
aI00
aI00
aI00
aI00
aI01
aI00
aI00
aI01
aI00
aI00
aI00
aI00
aI00
aI00
aI01
aI00
aI00
aI01
aI01
aI00
aI00
aI01
aI00
asg20
I4
sg21
I2
sg22
I01
sbsg18
(lp200
I00
aI00
aI00
aI00
aI00
aI00
aI00
aI00
aI01
aI00
aI00
aI00
aI00
aI00
aI00
aI01
aI00
aI00
aI01
aI01
aI00
aI00
aI01
aI00
asg20
I5
sg21
I3
sg22
I01
sbsg18
(lp201
I00
aI00
aI00
aI00
aI00
aI00
aI00
aI00
aI00
aI00
aI00
aI00
aI00
aI00
aI00
aI01
aI00
aI00
aI01
aI01
aI00
aI00
aI01
aI00
asg20
I8
sg21
I4
sg22
I01
sba(lp202
I1
aI4
aI5
aI8
aaI4
aI23
aI4
aF0.014597892761230469
aaa(lp203
(lp204
I00
aI00
aI00
aI00
aI00
aI00
aI00
aI00
aI01
aI01
aI00
aI01
aI01
aI01
aI00
aI01
aI01
aI00
aI00
aI00
aI00
aI00
aI00
aI00
aa(lp205
g204
a(istate
Node
p206
(dp207
g6
S'000000000100110010000000'
p208
sg8
(istate
Node
p209
(dp210
g6
S'000000000100110110000000'
p211
sg8
(istate
Node
p212
(dp213
g6
S'000000000101110110000000'
p214
sg8
(istate
Node
p215
(dp216
g6
S'000000001101110110000000'
p217
sg8
Nsg18
(lp218
I00
aI00
aI00
aI00
aI00
aI00
aI00
aI00
aI01
aI01
aI00
aI01
aI01
aI01
aI00
aI01
aI01
aI00
aI00
aI00
aI00
aI00
aI00
aI00
asg20
I-1
sg21
I0
sg22
Nsbsg18
(lp219
I00
aI00
aI00
aI00
aI00
aI00
aI00
aI00
aI00
aI01
aI00
aI01
aI01
aI01
aI00
aI01
aI01
aI00
aI00
aI00
aI00
aI00
aI00
aI00
asg20
I8
sg21
I1
sg22
I01
sbsg18
(lp220
I00
aI00
aI00
aI00
aI00
aI00
aI00
aI00
aI00
aI01
aI00
aI00
aI01
aI01
aI00
aI01
aI01
aI00
aI00
aI00
aI00
aI00
aI00
aI00
asg20
I11
sg21
I2
sg22
I01
sbsg18
(lp221
I00
aI00
aI00
aI00
aI00
aI00
aI00
aI00
aI00
aI01
aI00
aI00
aI01
aI01
aI00
aI00
aI01
aI00
aI00
aI00
aI00
aI00
aI00
aI00
asg20
I15
sg21
I3
sg22
I01
sba(lp222
I8
aI11
aI15
aaI7
aI22
aI47
aF0.05001997947692871
aaa.