(lp0
(lp1
(lp2
I00
aI00
aI00
aI00
aI00
aI00
aI00
aI00
aI00
aI00
aI00
aI00
aI00
aI00
aI01
aI01
aI00
aI01
aI01
aI01
aI00
aI01
aI01
aI00
aa(lp3
(lp4
I00
aI00
aI00
aI00
aI00
aI00
aI00
aI00
aI00
aI00
aI00
aI00
aI00
aI00
aI01
aI01
aI00
aI01
aI01
aI01
aI00
aI01
aI01
aI00
aa(istate
Node
p5
(dp6
S'_hash_'
p7
S'000000000000000100110010'
p8
sS'depth'
p9
I3
sS'state'
p10
(lp11
I00
aI00
aI00
aI00
aI00
aI00
aI00
aI00
aI00
aI00
aI00
aI00
aI00
aI00
aI00
aI01
aI00
aI00
aI01
aI01
aI00
aI00
aI01
aI00
asS'parent'
p12
(istate
Node
p13
(dp14
g7
S'000000000000000100110110'
p15
sg9
I2
sg10
(lp16
I00
aI00
aI00
aI00
aI00
aI00
aI00
aI00
aI00
aI00
aI00
aI00
aI00
aI00
aI00
aI01
aI00
aI00
aI01
aI01
aI00
aI01
aI01
aI00
asg12
(istate
Node
p17
(dp18
g7
S'000000000000000101110110'
p19
sg9
I1
sg10
(lp20
I00
aI00
aI00
aI00
aI00
aI00
aI00
aI00
aI00
aI00
aI00
aI00
aI00
aI00
aI00
aI01
aI00
aI01
aI01
aI01
aI00
aI01
aI01
aI00
asg12
(istate
Node
p21
(dp22
g7
S'000000000000001101110110'
p23
sg9
I0
sg10
(lp24
I00
aI00
aI00
aI00
aI00
aI00
aI00
aI00
aI00
aI00
aI00
aI00
aI00
aI00
aI01
aI01
aI00
aI01
aI01
aI01
aI00
aI01
aI01
aI00
asg12
NsS'action'
p25
NsS'pos'
p26
I-1
sbsg25
I01
sg26
I14
sbsg25
I01
sg26
I17
sbsg25
I01
sg26
I21
sba(lp27
I14
aI17
aI21
aaI7
aI22
aI128
aS'N/A'
p28
aaa(lp29
(lp30
I00
aI00
aI01
aI00
aI00
aI01
aI01
aI00
aI01
aI01
aI00
aI01
aI01
aI00
aI00
aI01
aI00
aI00
aI00
aI00
aI00
aI00
aI00
aI00
aa(lp31
(lp32
I00
aI00
aI01
aI00
aI00
aI01
aI01
aI00
aI01
aI01
aI00
aI01
aI01
aI00
aI00
aI01
aI00
aI00
aI00
aI00
aI00
aI00
aI00
aI00
aa(istate
Node
p33
(dp34
g7
S'000000001001100100000000'
p35
sg9
I4
sg10
(lp36
I00
aI00
aI00
aI00
aI00
aI00
aI00
aI00
aI01
aI00
aI00
aI01
aI01
aI00
aI00
aI01
aI00
aI00
aI00
aI00
aI00
aI00
aI00
aI00
asg12
(istate
Node
p37
(dp38
g7
S'000000001101100100000000'
p39
sg9
I3
sg10
(lp40
I00
aI00
aI00
aI00
aI00
aI00
aI00
aI00
aI01
aI01
aI00
aI01
aI01
aI00
aI00
aI01
aI00
aI00
aI00
aI00
aI00
aI00
aI00
aI00
asg12
(istate
Node
p41
(dp42
g7
S'000000101101100100000000'
p43
sg9
I2
sg10
(lp44
I00
aI00
aI00
aI00
aI00
aI00
aI01
aI00
aI01
aI01
aI00
aI01
aI01
aI00
aI00
aI01
aI00
aI00
aI00
aI00
aI00
aI00
aI00
aI00
asg12
(istate
Node
p45
(dp46
g7
S'000001101101100100000000'
p47
sg9
I1
sg10
(lp48
I00
aI00
aI00
aI00
aI00
aI01
aI01
aI00
aI01
aI01
aI00
aI01
aI01
aI00
aI00
aI01
aI00
aI00
aI00
aI00
aI00
aI00
aI00
aI00
asg12
(istate
Node
p49
(dp50
g7
S'001001101101100100000000'
p51
sg9
I0
sg10
(lp52
I00
aI00
aI01
aI00
aI00
aI01
aI01
aI00
aI01
aI01
aI00
aI01
aI01
aI00
aI00
aI01
aI00
aI00
aI00
aI00
aI00
aI00
aI00
aI00
asg12
Nsg25
Nsg26
I-1
sbsg25
I01
sg26
I2
sbsg25
I01
sg26
I5
sbsg25
I01
sg26
I6
sbsg25
I01
sg26
I9
sba(lp53
I2
aI5
aI6
aI9
aaI8
aI29
aI256
ag28
aaa(lp54
(lp55
I00
aI00
aI00
aI00
aI00
aI00
aI00
aI00
aI00
aI00
aI00
aI00
aI00
aI00
aI01
aI01
aI00
aI01
aI01
aI01
aI00
aI01
aI01
aI00
aa(lp56
(lp57
I00
aI00
aI00
aI00
aI00
aI00
aI00
aI00
aI00
aI00
aI00
aI00
aI00
aI00
aI01
aI01
aI00
aI01
aI01
aI01
aI00
aI01
aI01
aI00
aa(istate
Node
p58
(dp59
g7
S'000000000000000100110010'
p60
sg9
I3
sg10
(lp61
I00
aI00
aI00
aI00
aI00
aI00
aI00
aI00
aI00
aI00
aI00
aI00
aI00
aI00
aI00
aI01
aI00
aI00
aI01
aI01
aI00
aI00
aI01
aI00
asg12
(istate
Node
p62
(dp63
g7
S'000000000000000100110110'
p64
sg9
I2
sg10
(lp65
I00
aI00
aI00
aI00
aI00
aI00
aI00
aI00
aI00
aI00
aI00
aI00
aI00
aI00
aI00
aI01
aI00
aI00
aI01
aI01
aI00
aI01
aI01
aI00
asg12
(istate
Node
p66
(dp67
g7
S'000000000000000101110110'
p68
sg9
I1
sg10
(lp69
I00
aI00
aI00
aI00
aI00
aI00
aI00
aI00
aI00
aI00
aI00
aI00
aI00
aI00
aI00
aI01
aI00
aI01
aI01
aI01
aI00
aI01
aI01
aI00
asg12
(istate
Node
p70
(dp71
g7
S'000000000000001101110110'
p72
sg9
I0
sg10
(lp73
I00
aI00
aI00
aI00
aI00
aI00
aI00
aI00
aI00
aI00
aI00
aI00
aI00
aI00
aI01
aI01
aI00
aI01
aI01
aI01
aI00
aI01
aI01
aI00
asg12
Nsg25
Nsg26
I-1
sbsg25
I01
sg26
I14
sbsg25
I01
sg26
I17
sbsg25
I01
sg26
I21
sba(lp74
I14
aI17
aI21
aaI7
aI22
aI128
ag28
aaa(lp75
(lp76
I00
aI01
aI01
aI00
aI01
aI01
aI01
aI00
aI01
aI01
aI00
aI00
aI00
aI00
aI00
aI00
aI00
aI00
aI00
aI00
aI00
aI00
aI00
aI00
aa(lp77
(lp78
I00
aI01
aI01
aI00
aI01
aI01
aI01
aI00
aI01
aI01
aI00
aI00
aI00
aI00
aI00
aI00
aI00
aI00
aI00
aI00
aI00
aI00
aI00
aI00
aa(istate
Node
p79
(dp80
g7
S'001001100100000000000000'
p81
sg9
I3
sg10
(lp82
I00
aI00
aI01
aI00
aI00
aI01
aI01
aI00
aI00
aI01
aI00
aI00
aI00
aI00
aI00
aI00
aI00
aI00
aI00
aI00
aI00
aI00
aI00
aI00
asg12
(istate
Node
p83
(dp84
g7
S'001001101100000000000000'
p85
sg9
I2
sg10
(lp86
I00
aI00
aI01
aI00
aI00
aI01
aI01
aI00
aI01
aI01
aI00
aI00
aI00
aI00
aI00
aI00
aI00
aI00
aI00
aI00
aI00
aI00
aI00
aI00
asg12
(istate
Node
p87
(dp88
g7
S'001011101100000000000000'
p89
sg9
I1
sg10
(lp90
I00
aI00
aI01
aI00
aI01
aI01
aI01
aI00
aI01
aI01
aI00
aI00
aI00
aI00
aI00
aI00
aI00
aI00
aI00
aI00
aI00
aI00
aI00
aI00
asg12
(istate
Node
p91
(dp92
g7
S'011011101100000000000000'
p93
sg9
I0
sg10
(lp94
I00
aI01
aI01
aI00
aI01
aI01
aI01
aI00
aI01
aI01
aI00
aI00
aI00
aI00
aI00
aI00
aI00
aI00
aI00
aI00
aI00
aI00
aI00
aI00
asg12
Nsg25
Nsg26
I-1
sbsg25
I01
sg26
I1
sbsg25
I01
sg26
I4
sbsg25
I01
sg26
I8
sba(lp95
I1
aI4
aI8
aaI7
aI22
aI128
ag28
aaa(lp96
(lp97
I00
aI00
aI00
aI00
aI00
aI00
aI00
aI00
aI01
aI00
aI00
aI01
aI01
aI00
aI00
aI01
aI00
aI00
aI01
aI01
aI00
aI00
aI01
aI00
aa(lp98
g97
a(istate
Node
p99
(dp100
g7
S'000000000000000100110010'
p101
sg12
(istate
Node
p102
(dp103
g7
S'000000000000100100110010'
p104
sg12
(istate
Node
p105
(dp106
g7
S'000000000001100100110010'
p107
sg12
(istate
Node
p108
(dp109
g7
S'000000001001100100110010'
p110
sg12
Nsg10
(lp111
I00
aI00
aI00
aI00
aI00
aI00
aI00
aI00
aI01
aI00
aI00
aI01
aI01
aI00
aI00
aI01
aI00
aI00
aI01
aI01
aI00
aI00
aI01
aI00
asg26
I-1
sg9
I0
sg25
Nsbsg10
(lp112
I00
aI00
aI00
aI00
aI00
aI00
aI00
aI00
aI00
aI00
aI00
aI01
aI01
aI00
aI00
aI01
aI00
aI00
aI01
aI01
aI00
aI00
aI01
aI00
asg26
I8
sg9
I1
sg25
I01
sbsg10
(lp113
I00
aI00
aI00
aI00
aI00
aI00
aI00
aI00
aI00
aI00
aI00
aI00
aI01
aI00
aI00
aI01
aI00
aI00
aI01
aI01
aI00
aI00
aI01
aI00
asg26
I11
sg9
I2
sg25
I01
sbsg10
(lp114
I00
aI00
aI00
aI00
aI00
aI00
aI00
aI00
aI00
aI00
aI00
aI00
aI00
aI00
aI00
aI01
aI00
aI00
aI01
aI01
aI00
aI00
aI01
aI00
asg26
I12
sg9
I3
sg25
I01
sba(lp115
I8
aI11
aI12
aaI3
aI16
aI9
aF0.029087066650390625
aaa(lp116
(lp117
I00
aI00
aI00
aI00
aI00
aI00
aI00
aI00
aI00
aI01
aI00
aI00
aI01
aI01
aI01
aI00
aI01
aI01
aI01
aI00
aI00
aI01
aI00
aI00
aa(lp118
(lp119
I00
aI00
aI00
aI00
aI00
aI00
aI00
aI00
aI00
aI01
aI00
aI00
aI01
aI01
aI01
aI00
aI01
aI01
aI01
aI00
aI00
aI01
aI00
aI00
aa(istate
Node
p120
(dp121
g7
S'000000000000001001100100'
p122
sg9
I4
sg10
(lp123
I00
aI00
aI00
aI00
aI00
aI00
aI00
aI00
aI00
aI00
aI00
aI00
aI00
aI00
aI01
aI00
aI00
aI01
aI01
aI00
aI00
aI01
aI00
aI00
asg12
(istate
Node
p124
(dp125
g7
S'000000000000001011100100'
p126
sg9
I3
sg10
(lp127
I00
aI00
aI00
aI00
aI00
aI00
aI00
aI00
aI00
aI00
aI00
aI00
aI00
aI00
aI01
aI00
aI01
aI01
aI01
aI00
aI00
aI01
aI00
aI00
asg12
(istate
Node
p128
(dp129
g7
S'000000000000011011100100'
p130
sg9
I2
sg10
(lp131
I00
aI00
aI00
aI00
aI00
aI00
aI00
aI00
aI00
aI00
aI00
aI00
aI00
aI01
aI01
aI00
aI01
aI01
aI01
aI00
aI00
aI01
aI00
aI00
asg12
(istate
Node
p132
(dp133
g7
S'000000000000111011100100'
p134
sg9
I1
sg10
(lp135
I00
aI00
aI00
aI00
aI00
aI00
aI00
aI00
aI00
aI00
aI00
aI00
aI01
aI01
aI01
aI00
aI01
aI01
aI01
aI00
aI00
aI01
aI00
aI00
asg12
(istate
Node
p136
(dp137
g7
S'000000000100111011100100'
p138
sg9
I0
sg10
(lp139
I00
aI00
aI00
aI00
aI00
aI00
aI00
aI00
aI00
aI01
aI00
aI00
aI01
aI01
aI01
aI00
aI01
aI01
aI01
aI00
aI00
aI01
aI00
aI00
asg12
Nsg25
Nsg26
I-1
sbsg25
I01
sg26
I9
sbsg25
I01
sg26
I12
sbsg25
I01
sg26
I13
sbsg25
I01
sg26
I16
sba(lp140
I9
aI12
aI13
aI16
aaI8
aI29
aI256
ag28
aaa(lp141
(lp142
I00
aI00
aI00
aI00
aI00
aI00
aI00
aI01
aI00
aI00
aI01
aI01
aI00
aI00
aI01
aI00
aI00
aI01
aI01
aI00
aI00
aI01
aI00
aI00
aa(lp143
g142
a(istate
Node
p144
(dp145
g7
S'000000000000001001100100'
p146
sg12
(istate
Node
p147
(dp148
g7
S'000000000001001001100100'
p149
sg12
(istate
Node
p150
(dp151
g7
S'000000000011001001100100'
p152
sg12
(istate
Node
p153
(dp154
g7
S'000000010011001001100100'
p155
sg12
Nsg10
(lp156
I00
aI00
aI00
aI00
aI00
aI00
aI00
aI01
aI00
aI00
aI01
aI01
aI00
aI00
aI01
aI00
aI00
aI01
aI01
aI00
aI00
aI01
aI00
aI00
asg26
I-1
sg9
I0
sg25
Nsbsg10
(lp157
I00
aI00
aI00
aI00
aI00
aI00
aI00
aI00
aI00
aI00
aI01
aI01
aI00
aI00
aI01
aI00
aI00
aI01
aI01
aI00
aI00
aI01
aI00
aI00
asg26
I7
sg9
I1
sg25
I01
sbsg10
(lp158
I00
aI00
aI00
aI00
aI00
aI00
aI00
aI00
aI00
aI00
aI00
aI01
aI00
aI00
aI01
aI00
aI00
aI01
aI01
aI00
aI00
aI01
aI00
aI00
asg26
I10
sg9
I2
sg25
I01
sbsg10
(lp159
I00
aI00
aI00
aI00
aI00
aI00
aI00
aI00
aI00
aI00
aI00
aI00
aI00
aI00
aI01
aI00
aI00
aI01
aI01
aI00
aI00
aI01
aI00
aI00
asg26
I11
sg9
I3
sg25
I01
sba(lp160
I7
aI10
aI11
aaI3
aI16
aI9
aF0.031861066818237305
aaa(lp161
(lp162
I00
aI00
aI00
aI00
aI00
aI00
aI00
aI00
aI01
aI00
aI00
aI01
aI01
aI00
aI00
aI01
aI01
aI00
aI00
aI01
aI01
aI00
aI00
aI01
aa(lp163
g162
a(istate
Node
p164
(dp165
g7
S'000000000000000010011001'
p166
sg12
(istate
Node
p167
(dp168
g7
S'000000000000000110011001'
p169
sg12
(istate
Node
p170
(dp171
g7
S'000000000000100110011001'
p172
sg12
(istate
Node
p173
(dp174
g7
S'000000000001100110011001'
p175
sg12
(istate
Node
p176
(dp177
g7
S'000000001001100110011001'
p178
sg12
Nsg10
(lp179
I00
aI00
aI00
aI00
aI00
aI00
aI00
aI00
aI01
aI00
aI00
aI01
aI01
aI00
aI00
aI01
aI01
aI00
aI00
aI01
aI01
aI00
aI00
aI01
asg26
I-1
sg9
I0
sg25
Nsbsg10
(lp180
I00
aI00
aI00
aI00
aI00
aI00
aI00
aI00
aI00
aI00
aI00
aI01
aI01
aI00
aI00
aI01
aI01
aI00
aI00
aI01
aI01
aI00
aI00
aI01
asg26
I8
sg9
I1
sg25
I01
sbsg10
(lp181
I00
aI00
aI00
aI00
aI00
aI00
aI00
aI00
aI00
aI00
aI00
aI00
aI01
aI00
aI00
aI01
aI01
aI00
aI00
aI01
aI01
aI00
aI00
aI01
asg26
I11
sg9
I2
sg25
I01
sbsg10
(lp182
I00
aI00
aI00
aI00
aI00
aI00
aI00
aI00
aI00
aI00
aI00
aI00
aI00
aI00
aI00
aI01
aI01
aI00
aI00
aI01
aI01
aI00
aI00
aI01
asg26
I12
sg9
I3
sg25
I01
sbsg10
(lp183
I00
aI00
aI00
aI00
aI00
aI00
aI00
aI00
aI00
aI00
aI00
aI00
aI00
aI00
aI00
aI00
aI01
aI00
aI00
aI01
aI01
aI00
aI00
aI01
asg26
I15
sg9
I4
sg25
I01
sba(lp184
I8
aI11
aI12
aI15
aaI4
aI23
aI47
aF0.09432005882263184
aaa(lp185
(lp186
I00
aI01
aI00
aI00
aI01
aI01
aI00
aI00
aI01
aI00
aI00
aI00
aI00
aI00
aI00
aI01
aI00
aI00
aI01
aI01
aI00
aI00
aI01
aI00
aa(lp187
g186
a(istate
Node
p188
(dp189
g7
S'000000000000000100110010'
p190
sg12
(istate
Node
p191
(dp192
g7
S'000000001000000100110010'
p193
sg12
(istate
Node
p194
(dp195
g7
S'000001001000000100110010'
p196
sg12
(istate
Node
p197
(dp198
g7
S'000011001000000100110010'
p199
sg12
(istate
Node
p200
(dp201
g7
S'010011001000000100110010'
p202
sg12
Nsg10
(lp203
I00
aI01
aI00
aI00
aI01
aI01
aI00
aI00
aI01
aI00
aI00
aI00
aI00
aI00
aI00
aI01
aI00
aI00
aI01
aI01
aI00
aI00
aI01
aI00
asg26
I-1
sg9
I0
sg25
Nsbsg10
(lp204
I00
aI00
aI00
aI00
aI01
aI01
aI00
aI00
aI01
aI00
aI00
aI00
aI00
aI00
aI00
aI01
aI00
aI00
aI01
aI01
aI00
aI00
aI01
aI00
asg26
I1
sg9
I1
sg25
I01
sbsg10
(lp205
I00
aI00
aI00
aI00
aI00
aI01
aI00
aI00
aI01
aI00
aI00
aI00
aI00
aI00
aI00
aI01
aI00
aI00
aI01
aI01
aI00
aI00
aI01
aI00
asg26
I4
sg9
I2
sg25
I01
sbsg10
(lp206
I00
aI00
aI00
aI00
aI00
aI00
aI00
aI00
aI01
aI00
aI00
aI00
aI00
aI00
aI00
aI01
aI00
aI00
aI01
aI01
aI00
aI00
aI01
aI00
asg26
I5
sg9
I3
sg25
I01
sbsg10
(lp207
I00
aI00
aI00
aI00
aI00
aI00
aI00
aI00
aI00
aI00
aI00
aI00
aI00
aI00
aI00
aI01
aI00
aI00
aI01
aI01
aI00
aI00
aI01
aI00
asg26
I8
sg9
I4
sg25
I01
sba(lp208
I1
aI4
aI5
aI8
aaI4
aI23
aI47
aF0.10205698013305664
aaa(lp209
(lp210
I00
aI00
aI00
aI00
aI00
aI00
aI00
aI00
aI01
aI01
aI00
aI01
aI01
aI01
aI00
aI01
aI01
aI00
aI00
aI00
aI00
aI00
aI00
aI00
aa(lp211
(lp212
I00
aI00
aI00
aI00
aI00
aI00
aI00
aI00
aI01
aI01
aI00
aI01
aI01
aI01
aI00
aI01
aI01
aI00
aI00
aI00
aI00
aI00
aI00
aI00
aa(istate
Node
p213
(dp214
g7
S'000000000100110010000000'
p215
sg9
I3
sg10
(lp216
I00
aI00
aI00
aI00
aI00
aI00
aI00
aI00
aI00
aI01
aI00
aI00
aI01
aI01
aI00
aI00
aI01
aI00
aI00
aI00
aI00
aI00
aI00
aI00
asg12
(istate
Node
p217
(dp218
g7
S'000000000100110110000000'
p219
sg9
I2
sg10
(lp220
I00
aI00
aI00
aI00
aI00
aI00
aI00
aI00
aI00
aI01
aI00
aI00
aI01
aI01
aI00
aI01
aI01
aI00
aI00
aI00
aI00
aI00
aI00
aI00
asg12
(istate
Node
p221
(dp222
g7
S'000000000101110110000000'
p223
sg9
I1
sg10
(lp224
I00
aI00
aI00
aI00
aI00
aI00
aI00
aI00
aI00
aI01
aI00
aI01
aI01
aI01
aI00
aI01
aI01
aI00
aI00
aI00
aI00
aI00
aI00
aI00
asg12
(istate
Node
p225
(dp226
g7
S'000000001101110110000000'
p227
sg9
I0
sg10
(lp228
I00
aI00
aI00
aI00
aI00
aI00
aI00
aI00
aI01
aI01
aI00
aI01
aI01
aI01
aI00
aI01
aI01
aI00
aI00
aI00
aI00
aI00
aI00
aI00
asg12
Nsg25
Nsg26
I-1
sbsg25
I01
sg26
I8
sbsg25
I01
sg26
I11
sbsg25
I01
sg26
I15
sba(lp229
I8
aI11
aI15
aaI7
aI22
aI128
ag28
aaa.