(lp0
(lp1
(lp2
I01
aI00
aI00
aI01
aI01
aI00
aI00
aI01
aI01
aI00
aI00
aI01
aI01
aI00
aI00
aI01
aI00
aI00
aI01
aI01
aI00
aI00
aI01
aI00
aa(lp3
(lp4
I01
aI00
aI00
aI01
aI01
aI00
aI00
aI01
aI01
aI00
aI00
aI01
aI01
aI00
aI00
aI01
aI00
aI00
aI01
aI01
aI00
aI00
aI01
aI00
aa(istate
Node
p5
(dp6
S'_hash_'
p7
S'000000000000000100110010'
p8
sS'depth'
p9
I7
sS'state'
p10
(lp11
I00
aI00
aI00
aI00
aI00
aI00
aI00
aI00
aI00
aI00
aI00
aI00
aI00
aI00
aI00
aI01
aI00
aI00
aI01
aI01
aI00
aI00
aI01
aI00
asS'parent'
p12
(istate
Node
p13
(dp14
g7
S'000000000000100100110010'
p15
sg9
I6
sg10
(lp16
I00
aI00
aI00
aI00
aI00
aI00
aI00
aI00
aI00
aI00
aI00
aI00
aI01
aI00
aI00
aI01
aI00
aI00
aI01
aI01
aI00
aI00
aI01
aI00
asg12
(istate
Node
p17
(dp18
g7
S'000000000001100100110010'
p19
sg9
I5
sg10
(lp20
I00
aI00
aI00
aI00
aI00
aI00
aI00
aI00
aI00
aI00
aI00
aI01
aI01
aI00
aI00
aI01
aI00
aI00
aI01
aI01
aI00
aI00
aI01
aI00
asg12
(istate
Node
p21
(dp22
g7
S'000000001001100100110010'
p23
sg9
I4
sg10
(lp24
I00
aI00
aI00
aI00
aI00
aI00
aI00
aI00
aI01
aI00
aI00
aI01
aI01
aI00
aI00
aI01
aI00
aI00
aI01
aI01
aI00
aI00
aI01
aI00
asg12
(istate
Node
p25
(dp26
g7
S'000000011001100100110010'
p27
sg9
I3
sg10
(lp28
I00
aI00
aI00
aI00
aI00
aI00
aI00
aI01
aI01
aI00
aI00
aI01
aI01
aI00
aI00
aI01
aI00
aI00
aI01
aI01
aI00
aI00
aI01
aI00
asg12
(istate
Node
p29
(dp30
g7
S'000010011001100100110010'
p31
sg9
I2
sg10
(lp32
I00
aI00
aI00
aI00
aI01
aI00
aI00
aI01
aI01
aI00
aI00
aI01
aI01
aI00
aI00
aI01
aI00
aI00
aI01
aI01
aI00
aI00
aI01
aI00
asg12
(istate
Node
p33
(dp34
g7
S'000110011001100100110010'
p35
sg9
I1
sg10
(lp36
I00
aI00
aI00
aI01
aI01
aI00
aI00
aI01
aI01
aI00
aI00
aI01
aI01
aI00
aI00
aI01
aI00
aI00
aI01
aI01
aI00
aI00
aI01
aI00
asg12
(istate
Node
p37
(dp38
g7
S'100110011001100100110010'
p39
sg9
I0
sg10
(lp40
I01
aI00
aI00
aI01
aI01
aI00
aI00
aI01
aI01
aI00
aI00
aI01
aI01
aI00
aI00
aI01
aI00
aI00
aI01
aI01
aI00
aI00
aI01
aI00
asg12
NsS'action'
p41
NsS'pos'
p42
I-1
sbsg41
I01
sg42
I0
sbsg41
I01
sg42
I3
sbsg41
I01
sg42
I4
sbsg41
I01
sg42
I7
sbsg41
I01
sg42
I8
sbsg41
I01
sg42
I11
sbsg41
I01
sg42
I12
sba(lp43
I0
aI3
aI4
aI7
aI8
aI11
aI12
aaI7
aI50
aI128
aS'N/A'
p44
aaa(lp45
(lp46
I01
aI00
aI00
aI01
aI01
aI00
aI00
aI01
aI01
aI01
aI00
aI01
aI01
aI01
aI00
aI01
aI01
aI00
aI00
aI00
aI00
aI00
aI00
aI00
aa(lp47
(lp48
I01
aI00
aI00
aI01
aI01
aI00
aI00
aI01
aI01
aI01
aI00
aI01
aI01
aI01
aI00
aI01
aI01
aI00
aI00
aI00
aI00
aI00
aI00
aI00
aa(istate
Node
p49
(dp50
g7
S'000000000100110010000000'
p51
sg9
I7
sg10
(lp52
I00
aI00
aI00
aI00
aI00
aI00
aI00
aI00
aI00
aI01
aI00
aI00
aI01
aI01
aI00
aI00
aI01
aI00
aI00
aI00
aI00
aI00
aI00
aI00
asg12
(istate
Node
p53
(dp54
g7
S'000000000100110110000000'
p55
sg9
I6
sg10
(lp56
I00
aI00
aI00
aI00
aI00
aI00
aI00
aI00
aI00
aI01
aI00
aI00
aI01
aI01
aI00
aI01
aI01
aI00
aI00
aI00
aI00
aI00
aI00
aI00
asg12
(istate
Node
p57
(dp58
g7
S'000000000101110110000000'
p59
sg9
I5
sg10
(lp60
I00
aI00
aI00
aI00
aI00
aI00
aI00
aI00
aI00
aI01
aI00
aI01
aI01
aI01
aI00
aI01
aI01
aI00
aI00
aI00
aI00
aI00
aI00
aI00
asg12
(istate
Node
p61
(dp62
g7
S'000000001101110110000000'
p63
sg9
I4
sg10
(lp64
I00
aI00
aI00
aI00
aI00
aI00
aI00
aI00
aI01
aI01
aI00
aI01
aI01
aI01
aI00
aI01
aI01
aI00
aI00
aI00
aI00
aI00
aI00
aI00
asg12
(istate
Node
p65
(dp66
g7
S'000000011101110110000000'
p67
sg9
I3
sg10
(lp68
I00
aI00
aI00
aI00
aI00
aI00
aI00
aI01
aI01
aI01
aI00
aI01
aI01
aI01
aI00
aI01
aI01
aI00
aI00
aI00
aI00
aI00
aI00
aI00
asg12
(istate
Node
p69
(dp70
g7
S'000010011101110110000000'
p71
sg9
I2
sg10
(lp72
I00
aI00
aI00
aI00
aI01
aI00
aI00
aI01
aI01
aI01
aI00
aI01
aI01
aI01
aI00
aI01
aI01
aI00
aI00
aI00
aI00
aI00
aI00
aI00
asg12
(istate
Node
p73
(dp74
g7
S'000110011101110110000000'
p75
sg9
I1
sg10
(lp76
I00
aI00
aI00
aI01
aI01
aI00
aI00
aI01
aI01
aI01
aI00
aI01
aI01
aI01
aI00
aI01
aI01
aI00
aI00
aI00
aI00
aI00
aI00
aI00
asg12
(istate
Node
p77
(dp78
g7
S'100110011101110110000000'
p79
sg9
I0
sg10
(lp80
I01
aI00
aI00
aI01
aI01
aI00
aI00
aI01
aI01
aI01
aI00
aI01
aI01
aI01
aI00
aI01
aI01
aI00
aI00
aI00
aI00
aI00
aI00
aI00
asg12
Nsg41
Nsg42
I-1
sbsg41
I01
sg42
I0
sbsg41
I01
sg42
I3
sbsg41
I01
sg42
I4
sbsg41
I01
sg42
I7
sbsg41
I01
sg42
I8
sbsg41
I01
sg42
I11
sbsg41
I01
sg42
I15
sba(lp81
I0
aI3
aI4
aI7
aI8
aI11
aI15
aaI11
aI56
aI2048
ag44
aaa(lp82
(lp83
I00
aI00
aI01
aI00
aI00
aI01
aI01
aI01
aI00
aI01
aI01
aI01
aI00
aI00
aI01
aI00
aI00
aI01
aI01
aI00
aI00
aI01
aI00
aI00
aa(lp84
(lp85
I00
aI00
aI01
aI00
aI00
aI01
aI01
aI01
aI00
aI01
aI01
aI01
aI00
aI00
aI01
aI00
aI00
aI01
aI01
aI00
aI00
aI01
aI00
aI00
aa(istate
Node
p86
(dp87
g7
S'000000000000001001100100'
p88
sg9
I7
sg10
(lp89
I00
aI00
aI00
aI00
aI00
aI00
aI00
aI00
aI00
aI00
aI00
aI00
aI00
aI00
aI01
aI00
aI00
aI01
aI01
aI00
aI00
aI01
aI00
aI00
asg12
(istate
Node
p90
(dp91
g7
S'000000000001001001100100'
p92
sg9
I6
sg10
(lp93
I00
aI00
aI00
aI00
aI00
aI00
aI00
aI00
aI00
aI00
aI00
aI01
aI00
aI00
aI01
aI00
aI00
aI01
aI01
aI00
aI00
aI01
aI00
aI00
asg12
(istate
Node
p94
(dp95
g7
S'000000000011001001100100'
p96
sg9
I5
sg10
(lp97
I00
aI00
aI00
aI00
aI00
aI00
aI00
aI00
aI00
aI00
aI01
aI01
aI00
aI00
aI01
aI00
aI00
aI01
aI01
aI00
aI00
aI01
aI00
aI00
asg12
(istate
Node
p98
(dp99
g7
S'000000000111001001100100'
p100
sg9
I4
sg10
(lp101
I00
aI00
aI00
aI00
aI00
aI00
aI00
aI00
aI00
aI01
aI01
aI01
aI00
aI00
aI01
aI00
aI00
aI01
aI01
aI00
aI00
aI01
aI00
aI00
asg12
(istate
Node
p102
(dp103
g7
S'000000010111001001100100'
p104
sg9
I3
sg10
(lp105
I00
aI00
aI00
aI00
aI00
aI00
aI00
aI01
aI00
aI01
aI01
aI01
aI00
aI00
aI01
aI00
aI00
aI01
aI01
aI00
aI00
aI01
aI00
aI00
asg12
(istate
Node
p106
(dp107
g7
S'000000110111001001100100'
p108
sg9
I2
sg10
(lp109
I00
aI00
aI00
aI00
aI00
aI00
aI01
aI01
aI00
aI01
aI01
aI01
aI00
aI00
aI01
aI00
aI00
aI01
aI01
aI00
aI00
aI01
aI00
aI00
asg12
(istate
Node
p110
(dp111
g7
S'000001110111001001100100'
p112
sg9
I1
sg10
(lp113
I00
aI00
aI00
aI00
aI00
aI01
aI01
aI01
aI00
aI01
aI01
aI01
aI00
aI00
aI01
aI00
aI00
aI01
aI01
aI00
aI00
aI01
aI00
aI00
asg12
(istate
Node
p114
(dp115
g7
S'001001110111001001100100'
p116
sg9
I0
sg10
(lp117
I00
aI00
aI01
aI00
aI00
aI01
aI01
aI01
aI00
aI01
aI01
aI01
aI00
aI00
aI01
aI00
aI00
aI01
aI01
aI00
aI00
aI01
aI00
aI00
asg12
Nsg41
Nsg42
I-1
sbsg41
I01
sg42
I2
sbsg41
I01
sg42
I5
sbsg41
I01
sg42
I6
sbsg41
I01
sg42
I7
sbsg41
I01
sg42
I9
sbsg41
I01
sg42
I10
sbsg41
I01
sg42
I11
sba(lp118
I2
aI5
aI6
aI7
aI9
aI10
aI11
aaI7
aI50
aI128
ag44
aaa(lp119
(lp120
I00
aI00
aI00
aI00
aI00
aI00
aI00
aI01
aI01
aI00
aI01
aI01
aI01
aI00
aI01
aI01
aI00
aI00
aI01
aI01
aI00
aI00
aI01
aI00
aa(lp121
g120
a(istate
Node
p122
(dp123
g7
S'000000000000000100110010'
p124
sg12
(istate
Node
p125
(dp126
g7
S'000000000000001100110010'
p127
sg12
(istate
Node
p128
(dp129
g7
S'000000000000101100110010'
p130
sg12
(istate
Node
p131
(dp132
g7
S'000000000001101100110010'
p133
sg12
(istate
Node
p134
(dp135
g7
S'000000000011101100110010'
p136
sg12
(istate
Node
p137
(dp138
g7
S'000000001011101100110010'
p139
sg12
(istate
Node
p140
(dp141
g7
S'000000011011101100110010'
p142
sg12
Nsg10
(lp143
I00
aI00
aI00
aI00
aI00
aI00
aI00
aI01
aI01
aI00
aI01
aI01
aI01
aI00
aI01
aI01
aI00
aI00
aI01
aI01
aI00
aI00
aI01
aI00
asg42
I-1
sg9
I0
sg41
Nsbsg10
(lp144
I00
aI00
aI00
aI00
aI00
aI00
aI00
aI00
aI01
aI00
aI01
aI01
aI01
aI00
aI01
aI01
aI00
aI00
aI01
aI01
aI00
aI00
aI01
aI00
asg42
I7
sg9
I1
sg41
I01
sbsg10
(lp145
I00
aI00
aI00
aI00
aI00
aI00
aI00
aI00
aI00
aI00
aI01
aI01
aI01
aI00
aI01
aI01
aI00
aI00
aI01
aI01
aI00
aI00
aI01
aI00
asg42
I8
sg9
I2
sg41
I01
sbsg10
(lp146
I00
aI00
aI00
aI00
aI00
aI00
aI00
aI00
aI00
aI00
aI00
aI01
aI01
aI00
aI01
aI01
aI00
aI00
aI01
aI01
aI00
aI00
aI01
aI00
asg42
I10
sg9
I3
sg41
I01
sbsg10
(lp147
I00
aI00
aI00
aI00
aI00
aI00
aI00
aI00
aI00
aI00
aI00
aI00
aI01
aI00
aI01
aI01
aI00
aI00
aI01
aI01
aI00
aI00
aI01
aI00
asg42
I11
sg9
I4
sg41
I01
sbsg10
(lp148
I00
aI00
aI00
aI00
aI00
aI00
aI00
aI00
aI00
aI00
aI00
aI00
aI00
aI00
aI01
aI01
aI00
aI00
aI01
aI01
aI00
aI00
aI01
aI00
asg42
I12
sg9
I5
sg41
I01
sbsg10
(lp149
I00
aI00
aI00
aI00
aI00
aI00
aI00
aI00
aI00
aI00
aI00
aI00
aI00
aI00
aI00
aI01
aI00
aI00
aI01
aI01
aI00
aI00
aI01
aI00
asg42
I14
sg9
I6
sg41
I01
sba(lp150
I7
aI8
aI10
aI11
aI12
aI14
aaI6
aI40
aI630
aF6.154583930969238
aaa(lp151
(lp152
I00
aI00
aI00
aI00
aI00
aI00
aI00
aI01
aI00
aI01
aI01
aI01
aI01
aI01
aI01
aI00
aI01
aI01
aI01
aI00
aI00
aI01
aI00
aI00
aa(lp153
(lp154
I00
aI00
aI00
aI00
aI00
aI00
aI00
aI01
aI00
aI01
aI01
aI01
aI01
aI01
aI01
aI00
aI01
aI01
aI01
aI00
aI00
aI01
aI00
aI00
aa(istate
Node
p155
(dp156
g7
S'000000000000001001100100'
p157
sg9
I7
sg10
(lp158
I00
aI00
aI00
aI00
aI00
aI00
aI00
aI00
aI00
aI00
aI00
aI00
aI00
aI00
aI01
aI00
aI00
aI01
aI01
aI00
aI00
aI01
aI00
aI00
asg12
(istate
Node
p159
(dp160
g7
S'000000000000001011100100'
p161
sg9
I6
sg10
(lp162
I00
aI00
aI00
aI00
aI00
aI00
aI00
aI00
aI00
aI00
aI00
aI00
aI00
aI00
aI01
aI00
aI01
aI01
aI01
aI00
aI00
aI01
aI00
aI00
asg12
(istate
Node
p163
(dp164
g7
S'000000000000011011100100'
p165
sg9
I5
sg10
(lp166
I00
aI00
aI00
aI00
aI00
aI00
aI00
aI00
aI00
aI00
aI00
aI00
aI00
aI01
aI01
aI00
aI01
aI01
aI01
aI00
aI00
aI01
aI00
aI00
asg12
(istate
Node
p167
(dp168
g7
S'000000000000111011100100'
p169
sg9
I4
sg10
(lp170
I00
aI00
aI00
aI00
aI00
aI00
aI00
aI00
aI00
aI00
aI00
aI00
aI01
aI01
aI01
aI00
aI01
aI01
aI01
aI00
aI00
aI01
aI00
aI00
asg12
(istate
Node
p171
(dp172
g7
S'000000000001111011100100'
p173
sg9
I3
sg10
(lp174
I00
aI00
aI00
aI00
aI00
aI00
aI00
aI00
aI00
aI00
aI00
aI01
aI01
aI01
aI01
aI00
aI01
aI01
aI01
aI00
aI00
aI01
aI00
aI00
asg12
(istate
Node
p175
(dp176
g7
S'000000000011111011100100'
p177
sg9
I2
sg10
(lp178
I00
aI00
aI00
aI00
aI00
aI00
aI00
aI00
aI00
aI00
aI01
aI01
aI01
aI01
aI01
aI00
aI01
aI01
aI01
aI00
aI00
aI01
aI00
aI00
asg12
(istate
Node
p179
(dp180
g7
S'000000000111111011100100'
p181
sg9
I1
sg10
(lp182
I00
aI00
aI00
aI00
aI00
aI00
aI00
aI00
aI00
aI01
aI01
aI01
aI01
aI01
aI01
aI00
aI01
aI01
aI01
aI00
aI00
aI01
aI00
aI00
asg12
(istate
Node
p183
(dp184
g7
S'000000010111111011100100'
p185
sg9
I0
sg10
(lp186
I00
aI00
aI00
aI00
aI00
aI00
aI00
aI01
aI00
aI01
aI01
aI01
aI01
aI01
aI01
aI00
aI01
aI01
aI01
aI00
aI00
aI01
aI00
aI00
asg12
Nsg41
Nsg42
I-1
sbsg41
I01
sg42
I7
sbsg41
I01
sg42
I9
sbsg41
I01
sg42
I10
sbsg41
I01
sg42
I11
sbsg41
I01
sg42
I12
sbsg41
I01
sg42
I13
sbsg41
I01
sg42
I16
sba(lp187
I7
aI9
aI10
aI11
aI12
aI13
aI16
aaI11
aI56
aI2048
ag44
aaa(lp188
(lp189
I00
aI00
aI01
aI00
aI00
aI01
aI01
aI01
aI00
aI01
aI01
aI01
aI01
aI01
aI01
aI00
aI01
aI00
aI00
aI00
aI00
aI00
aI00
aI00
aa(lp190
(lp191
I00
aI00
aI01
aI00
aI00
aI01
aI01
aI01
aI00
aI01
aI01
aI01
aI01
aI01
aI01
aI00
aI01
aI00
aI00
aI00
aI00
aI00
aI00
aI00
aa(istate
Node
p192
(dp193
g7
S'000000000100110010000000'
p194
sg9
I7
sg10
(lp195
I00
aI00
aI00
aI00
aI00
aI00
aI00
aI00
aI00
aI01
aI00
aI00
aI01
aI01
aI00
aI00
aI01
aI00
aI00
aI00
aI00
aI00
aI00
aI00
asg12
(istate
Node
p196
(dp197
g7
S'000000000100111010000000'
p198
sg9
I6
sg10
(lp199
I00
aI00
aI00
aI00
aI00
aI00
aI00
aI00
aI00
aI01
aI00
aI00
aI01
aI01
aI01
aI00
aI01
aI00
aI00
aI00
aI00
aI00
aI00
aI00
asg12
(istate
Node
p200
(dp201
g7
S'000000000101111010000000'
p202
sg9
I5
sg10
(lp203
I00
aI00
aI00
aI00
aI00
aI00
aI00
aI00
aI00
aI01
aI00
aI01
aI01
aI01
aI01
aI00
aI01
aI00
aI00
aI00
aI00
aI00
aI00
aI00
asg12
(istate
Node
p204
(dp205
g7
S'000000000111111010000000'
p206
sg9
I4
sg10
(lp207
I00
aI00
aI00
aI00
aI00
aI00
aI00
aI00
aI00
aI01
aI01
aI01
aI01
aI01
aI01
aI00
aI01
aI00
aI00
aI00
aI00
aI00
aI00
aI00
asg12
(istate
Node
p208
(dp209
g7
S'000000010111111010000000'
p210
sg9
I3
sg10
(lp211
I00
aI00
aI00
aI00
aI00
aI00
aI00
aI01
aI00
aI01
aI01
aI01
aI01
aI01
aI01
aI00
aI01
aI00
aI00
aI00
aI00
aI00
aI00
aI00
asg12
(istate
Node
p212
(dp213
g7
S'000000110111111010000000'
p214
sg9
I2
sg10
(lp215
I00
aI00
aI00
aI00
aI00
aI00
aI01
aI01
aI00
aI01
aI01
aI01
aI01
aI01
aI01
aI00
aI01
aI00
aI00
aI00
aI00
aI00
aI00
aI00
asg12
(istate
Node
p216
(dp217
g7
S'000001110111111010000000'
p218
sg9
I1
sg10
(lp219
I00
aI00
aI00
aI00
aI00
aI01
aI01
aI01
aI00
aI01
aI01
aI01
aI01
aI01
aI01
aI00
aI01
aI00
aI00
aI00
aI00
aI00
aI00
aI00
asg12
(istate
Node
p220
(dp221
g7
S'001001110111111010000000'
p222
sg9
I0
sg10
(lp223
I00
aI00
aI01
aI00
aI00
aI01
aI01
aI01
aI00
aI01
aI01
aI01
aI01
aI01
aI01
aI00
aI01
aI00
aI00
aI00
aI00
aI00
aI00
aI00
asg12
Nsg41
Nsg42
I-1
sbsg41
I01
sg42
I2
sbsg41
I01
sg42
I5
sbsg41
I01
sg42
I6
sbsg41
I01
sg42
I7
sbsg41
I01
sg42
I10
sbsg41
I01
sg42
I11
sbsg41
I01
sg42
I14
sba(lp224
I2
aI5
aI6
aI7
aI10
aI11
aI14
aaI11
aI56
aI2048
ag44
aaa(lp225
(lp226
I01
aI00
aI00
aI01
aI01
aI00
aI00
aI01
aI00
aI01
aI00
aI00
aI01
aI01
aI01
aI00
aI01
aI01
aI01
aI00
aI00
aI01
aI00
aI00
aa(lp227
(lp228
I01
aI00
aI00
aI01
aI01
aI00
aI00
aI01
aI00
aI01
aI00
aI00
aI01
aI01
aI01
aI00
aI01
aI01
aI01
aI00
aI00
aI01
aI00
aI00
aa(istate
Node
p229
(dp230
g7
S'000000000000001001100100'
p231
sg9
I8
sg10
(lp232
I00
aI00
aI00
aI00
aI00
aI00
aI00
aI00
aI00
aI00
aI00
aI00
aI00
aI00
aI01
aI00
aI00
aI01
aI01
aI00
aI00
aI01
aI00
aI00
asg12
(istate
Node
p233
(dp234
g7
S'000000000000001011100100'
p235
sg9
I7
sg10
(lp236
I00
aI00
aI00
aI00
aI00
aI00
aI00
aI00
aI00
aI00
aI00
aI00
aI00
aI00
aI01
aI00
aI01
aI01
aI01
aI00
aI00
aI01
aI00
aI00
asg12
(istate
Node
p237
(dp238
g7
S'000000000000011011100100'
p239
sg9
I6
sg10
(lp240
I00
aI00
aI00
aI00
aI00
aI00
aI00
aI00
aI00
aI00
aI00
aI00
aI00
aI01
aI01
aI00
aI01
aI01
aI01
aI00
aI00
aI01
aI00
aI00
asg12
(istate
Node
p241
(dp242
g7
S'000000000000111011100100'
p243
sg9
I5
sg10
(lp244
I00
aI00
aI00
aI00
aI00
aI00
aI00
aI00
aI00
aI00
aI00
aI00
aI01
aI01
aI01
aI00
aI01
aI01
aI01
aI00
aI00
aI01
aI00
aI00
asg12
(istate
Node
p245
(dp246
g7
S'000000000100111011100100'
p247
sg9
I4
sg10
(lp248
I00
aI00
aI00
aI00
aI00
aI00
aI00
aI00
aI00
aI01
aI00
aI00
aI01
aI01
aI01
aI00
aI01
aI01
aI01
aI00
aI00
aI01
aI00
aI00
asg12
(istate
Node
p249
(dp250
g7
S'000000010100111011100100'
p251
sg9
I3
sg10
(lp252
I00
aI00
aI00
aI00
aI00
aI00
aI00
aI01
aI00
aI01
aI00
aI00
aI01
aI01
aI01
aI00
aI01
aI01
aI01
aI00
aI00
aI01
aI00
aI00
asg12
(istate
Node
p253
(dp254
g7
S'000010010100111011100100'
p255
sg9
I2
sg10
(lp256
I00
aI00
aI00
aI00
aI01
aI00
aI00
aI01
aI00
aI01
aI00
aI00
aI01
aI01
aI01
aI00
aI01
aI01
aI01
aI00
aI00
aI01
aI00
aI00
asg12
(istate
Node
p257
(dp258
g7
S'000110010100111011100100'
p259
sg9
I1
sg10
(lp260
I00
aI00
aI00
aI01
aI01
aI00
aI00
aI01
aI00
aI01
aI00
aI00
aI01
aI01
aI01
aI00
aI01
aI01
aI01
aI00
aI00
aI01
aI00
aI00
asg12
(istate
Node
p261
(dp262
g7
S'100110010100111011100100'
p263
sg9
I0
sg10
(lp264
I01
aI00
aI00
aI01
aI01
aI00
aI00
aI01
aI00
aI01
aI00
aI00
aI01
aI01
aI01
aI00
aI01
aI01
aI01
aI00
aI00
aI01
aI00
aI00
asg12
Nsg41
Nsg42
I-1
sbsg41
I01
sg42
I0
sbsg41
I01
sg42
I3
sbsg41
I01
sg42
I4
sbsg41
I01
sg42
I7
sbsg41
I01
sg42
I9
sbsg41
I01
sg42
I12
sbsg41
I01
sg42
I13
sbsg41
I01
sg42
I16
sba(lp265
I0
aI3
aI4
aI7
aI9
aI12
aI13
aI16
aaI12
aI67
aI4096
ag44
aaa(lp266
(lp267
I00
aI01
aI00
aI00
aI01
aI01
aI00
aI01
aI01
aI00
aI01
aI01
aI00
aI00
aI01
aI00
aI00
aI01
aI01
aI00
aI00
aI01
aI00
aI00
aa(lp268
(lp269
I00
aI01
aI00
aI00
aI01
aI01
aI00
aI01
aI01
aI00
aI01
aI01
aI00
aI00
aI01
aI00
aI00
aI01
aI01
aI00
aI00
aI01
aI00
aI00
aa(istate
Node
p270
(dp271
g7
S'000000000000001001100100'
p272
sg9
I7
sg10
(lp273
I00
aI00
aI00
aI00
aI00
aI00
aI00
aI00
aI00
aI00
aI00
aI00
aI00
aI00
aI01
aI00
aI00
aI01
aI01
aI00
aI00
aI01
aI00
aI00
asg12
(istate
Node
p274
(dp275
g7
S'000000000001001001100100'
p276
sg9
I6
sg10
(lp277
I00
aI00
aI00
aI00
aI00
aI00
aI00
aI00
aI00
aI00
aI00
aI01
aI00
aI00
aI01
aI00
aI00
aI01
aI01
aI00
aI00
aI01
aI00
aI00
asg12
(istate
Node
p278
(dp279
g7
S'000000000011001001100100'
p280
sg9
I5
sg10
(lp281
I00
aI00
aI00
aI00
aI00
aI00
aI00
aI00
aI00
aI00
aI01
aI01
aI00
aI00
aI01
aI00
aI00
aI01
aI01
aI00
aI00
aI01
aI00
aI00
asg12
(istate
Node
p282
(dp283
g7
S'000000001011001001100100'
p284
sg9
I4
sg10
(lp285
I00
aI00
aI00
aI00
aI00
aI00
aI00
aI00
aI01
aI00
aI01
aI01
aI00
aI00
aI01
aI00
aI00
aI01
aI01
aI00
aI00
aI01
aI00
aI00
asg12
(istate
Node
p286
(dp287
g7
S'000000011011001001100100'
p288
sg9
I3
sg10
(lp289
I00
aI00
aI00
aI00
aI00
aI00
aI00
aI01
aI01
aI00
aI01
aI01
aI00
aI00
aI01
aI00
aI00
aI01
aI01
aI00
aI00
aI01
aI00
aI00
asg12
(istate
Node
p290
(dp291
g7
S'000001011011001001100100'
p292
sg9
I2
sg10
(lp293
I00
aI00
aI00
aI00
aI00
aI01
aI00
aI01
aI01
aI00
aI01
aI01
aI00
aI00
aI01
aI00
aI00
aI01
aI01
aI00
aI00
aI01
aI00
aI00
asg12
(istate
Node
p294
(dp295
g7
S'000011011011001001100100'
p296
sg9
I1
sg10
(lp297
I00
aI00
aI00
aI00
aI01
aI01
aI00
aI01
aI01
aI00
aI01
aI01
aI00
aI00
aI01
aI00
aI00
aI01
aI01
aI00
aI00
aI01
aI00
aI00
asg12
(istate
Node
p298
(dp299
g7
S'010011011011001001100100'
p300
sg9
I0
sg10
(lp301
I00
aI01
aI00
aI00
aI01
aI01
aI00
aI01
aI01
aI00
aI01
aI01
aI00
aI00
aI01
aI00
aI00
aI01
aI01
aI00
aI00
aI01
aI00
aI00
asg12
Nsg41
Nsg42
I-1
sbsg41
I01
sg42
I1
sbsg41
I01
sg42
I4
sbsg41
I01
sg42
I5
sbsg41
I01
sg42
I7
sbsg41
I01
sg42
I8
sbsg41
I01
sg42
I10
sbsg41
I01
sg42
I11
sba(lp302
I1
aI4
aI5
aI7
aI8
aI10
aI11
aaI7
aI50
aI128
ag44
aaa(lp303
(lp304
I00
aI01
aI01
aI00
aI01
aI01
aI01
aI00
aI01
aI01
aI00
aI00
aI00
aI00
aI00
aI00
aI01
aI00
aI00
aI01
aI01
aI00
aI00
aI01
aa(lp305
(lp306
I00
aI01
aI01
aI00
aI01
aI01
aI01
aI00
aI01
aI01
aI00
aI00
aI00
aI00
aI00
aI00
aI01
aI00
aI00
aI01
aI01
aI00
aI00
aI01
aa(istate
Node
p307
(dp308
g7
S'000000000000000010011001'
p309
sg9
I7
sg10
(lp310
I00
aI00
aI00
aI00
aI00
aI00
aI00
aI00
aI00
aI00
aI00
aI00
aI00
aI00
aI00
aI00
aI01
aI00
aI00
aI01
aI01
aI00
aI00
aI01
asg12
(istate
Node
p311
(dp312
g7
S'000000000100000010011001'
p313
sg9
I6
sg10
(lp314
I00
aI00
aI00
aI00
aI00
aI00
aI00
aI00
aI00
aI01
aI00
aI00
aI00
aI00
aI00
aI00
aI01
aI00
aI00
aI01
aI01
aI00
aI00
aI01
asg12
(istate
Node
p315
(dp316
g7
S'000000001100000010011001'
p317
sg9
I5
sg10
(lp318
I00
aI00
aI00
aI00
aI00
aI00
aI00
aI00
aI01
aI01
aI00
aI00
aI00
aI00
aI00
aI00
aI01
aI00
aI00
aI01
aI01
aI00
aI00
aI01
asg12
(istate
Node
p319
(dp320
g7
S'000000101100000010011001'
p321
sg9
I4
sg10
(lp322
I00
aI00
aI00
aI00
aI00
aI00
aI01
aI00
aI01
aI01
aI00
aI00
aI00
aI00
aI00
aI00
aI01
aI00
aI00
aI01
aI01
aI00
aI00
aI01
asg12
(istate
Node
p323
(dp324
g7
S'000001101100000010011001'
p325
sg9
I3
sg10
(lp326
I00
aI00
aI00
aI00
aI00
aI01
aI01
aI00
aI01
aI01
aI00
aI00
aI00
aI00
aI00
aI00
aI01
aI00
aI00
aI01
aI01
aI00
aI00
aI01
asg12
(istate
Node
p327
(dp328
g7
S'000011101100000010011001'
p329
sg9
I2
sg10
(lp330
I00
aI00
aI00
aI00
aI01
aI01
aI01
aI00
aI01
aI01
aI00
aI00
aI00
aI00
aI00
aI00
aI01
aI00
aI00
aI01
aI01
aI00
aI00
aI01
asg12
(istate
Node
p331
(dp332
g7
S'001011101100000010011001'
p333
sg9
I1
sg10
(lp334
I00
aI00
aI01
aI00
aI01
aI01
aI01
aI00
aI01
aI01
aI00
aI00
aI00
aI00
aI00
aI00
aI01
aI00
aI00
aI01
aI01
aI00
aI00
aI01
asg12
(istate
Node
p335
(dp336
g7
S'011011101100000010011001'
p337
sg9
I0
sg10
(lp338
I00
aI01
aI01
aI00
aI01
aI01
aI01
aI00
aI01
aI01
aI00
aI00
aI00
aI00
aI00
aI00
aI01
aI00
aI00
aI01
aI01
aI00
aI00
aI01
asg12
Nsg41
Nsg42
I-1
sbsg41
I01
sg42
I1
sbsg41
I01
sg42
I2
sbsg41
I01
sg42
I4
sbsg41
I01
sg42
I5
sbsg41
I01
sg42
I6
sbsg41
I01
sg42
I8
sbsg41
I01
sg42
I9
sba(lp339
I1
aI2
aI4
aI5
aI6
aI8
aI9
aaI7
aI50
aI128
ag44
aaa(lp340
(lp341
I00
aI00
aI00
aI00
aI00
aI00
aI00
aI00
aI00
aI01
aI00
aI00
aI01
aI01
aI00
aI01
aI01
aI00
aI01
aI01
aI01
aI00
aI01
aI01
aa(lp342
(lp343
I00
aI00
aI00
aI00
aI00
aI00
aI00
aI00
aI00
aI01
aI00
aI00
aI01
aI01
aI00
aI01
aI01
aI00
aI01
aI01
aI01
aI00
aI01
aI01
aa(istate
Node
p344
(dp345
g7
S'000000000000000010011001'
p346
sg9
I6
sg10
(lp347
I00
aI00
aI00
aI00
aI00
aI00
aI00
aI00
aI00
aI00
aI00
aI00
aI00
aI00
aI00
aI00
aI01
aI00
aI00
aI01
aI01
aI00
aI00
aI01
asg12
(istate
Node
p348
(dp349
g7
S'000000000000000010011011'
p350
sg9
I5
sg10
(lp351
I00
aI00
aI00
aI00
aI00
aI00
aI00
aI00
aI00
aI00
aI00
aI00
aI00
aI00
aI00
aI00
aI01
aI00
aI00
aI01
aI01
aI00
aI01
aI01
asg12
(istate
Node
p352
(dp353
g7
S'000000000000000010111011'
p354
sg9
I4
sg10
(lp355
I00
aI00
aI00
aI00
aI00
aI00
aI00
aI00
aI00
aI00
aI00
aI00
aI00
aI00
aI00
aI00
aI01
aI00
aI01
aI01
aI01
aI00
aI01
aI01
asg12
(istate
Node
p356
(dp357
g7
S'000000000000000110111011'
p358
sg9
I3
sg10
(lp359
I00
aI00
aI00
aI00
aI00
aI00
aI00
aI00
aI00
aI00
aI00
aI00
aI00
aI00
aI00
aI01
aI01
aI00
aI01
aI01
aI01
aI00
aI01
aI01
asg12
(istate
Node
p360
(dp361
g7
S'000000000000010110111011'
p362
sg9
I2
sg10
(lp363
I00
aI00
aI00
aI00
aI00
aI00
aI00
aI00
aI00
aI00
aI00
aI00
aI00
aI01
aI00
aI01
aI01
aI00
aI01
aI01
aI01
aI00
aI01
aI01
asg12
(istate
Node
p364
(dp365
g7
S'000000000000110110111011'
p366
sg9
I1
sg10
(lp367
I00
aI00
aI00
aI00
aI00
aI00
aI00
aI00
aI00
aI00
aI00
aI00
aI01
aI01
aI00
aI01
aI01
aI00
aI01
aI01
aI01
aI00
aI01
aI01
asg12
(istate
Node
p368
(dp369
g7
S'000000000100110110111011'
p370
sg9
I0
sg10
(lp371
I00
aI00
aI00
aI00
aI00
aI00
aI00
aI00
aI00
aI01
aI00
aI00
aI01
aI01
aI00
aI01
aI01
aI00
aI01
aI01
aI01
aI00
aI01
aI01
asg12
Nsg41
Nsg42
I-1
sbsg41
I01
sg42
I9
sbsg41
I01
sg42
I12
sbsg41
I01
sg42
I13
sbsg41
I01
sg42
I15
sbsg41
I01
sg42
I18
sbsg41
I01
sg42
I22
sba(lp372
I9
aI12
aI13
aI15
aI18
aI22
aaI10
aI46
aI1024
ag44
aaa.