(lp0
(lp1
(lp2
I01
aI00
aI00
aI01
aI01
aI00
aI00
aI01
aI01
aI00
aI00
aI01
aI01
aI00
aI00
aI01
aI00
aI00
aI01
aI01
aI00
aI00
aI01
aI00
aa(lp3
g2
a(istate
Node
p4
(dp5
S'_hash_'
p6
S'000000000000000100110010'
p7
sS'parent'
p8
(istate
Node
p9
(dp10
g6
S'000000000000100100110010'
p11
sg8
(istate
Node
p12
(dp13
g6
S'000000000001100100110010'
p14
sg8
(istate
Node
p15
(dp16
g6
S'000000001001100100110010'
p17
sg8
(istate
Node
p18
(dp19
g6
S'000000011001100100110010'
p20
sg8
(istate
Node
p21
(dp22
g6
S'000010011001100100110010'
p23
sg8
(istate
Node
p24
(dp25
g6
S'000110011001100100110010'
p26
sg8
(istate
Node
p27
(dp28
g6
S'100110011001100100110010'
p29
sg8
NsS'state'
p30
(lp31
I01
aI00
aI00
aI01
aI01
aI00
aI00
aI01
aI01
aI00
aI00
aI01
aI01
aI00
aI00
aI01
aI00
aI00
aI01
aI01
aI00
aI00
aI01
aI00
asS'pos'
p32
I-1
sS'depth'
p33
I0
sS'action'
p34
Nsbsg30
(lp35
I00
aI00
aI00
aI01
aI01
aI00
aI00
aI01
aI01
aI00
aI00
aI01
aI01
aI00
aI00
aI01
aI00
aI00
aI01
aI01
aI00
aI00
aI01
aI00
asg32
I0
sg33
I1
sg34
I01
sbsg30
(lp36
I00
aI00
aI00
aI00
aI01
aI00
aI00
aI01
aI01
aI00
aI00
aI01
aI01
aI00
aI00
aI01
aI00
aI00
aI01
aI01
aI00
aI00
aI01
aI00
asg32
I3
sg33
I2
sg34
I01
sbsg30
(lp37
I00
aI00
aI00
aI00
aI00
aI00
aI00
aI01
aI01
aI00
aI00
aI01
aI01
aI00
aI00
aI01
aI00
aI00
aI01
aI01
aI00
aI00
aI01
aI00
asg32
I4
sg33
I3
sg34
I01
sbsg30
(lp38
I00
aI00
aI00
aI00
aI00
aI00
aI00
aI00
aI01
aI00
aI00
aI01
aI01
aI00
aI00
aI01
aI00
aI00
aI01
aI01
aI00
aI00
aI01
aI00
asg32
I7
sg33
I4
sg34
I01
sbsg30
(lp39
I00
aI00
aI00
aI00
aI00
aI00
aI00
aI00
aI00
aI00
aI00
aI01
aI01
aI00
aI00
aI01
aI00
aI00
aI01
aI01
aI00
aI00
aI01
aI00
asg32
I8
sg33
I5
sg34
I01
sbsg30
(lp40
I00
aI00
aI00
aI00
aI00
aI00
aI00
aI00
aI00
aI00
aI00
aI00
aI01
aI00
aI00
aI01
aI00
aI00
aI01
aI01
aI00
aI00
aI01
aI00
asg32
I11
sg33
I6
sg34
I01
sbsg30
(lp41
I00
aI00
aI00
aI00
aI00
aI00
aI00
aI00
aI00
aI00
aI00
aI00
aI00
aI00
aI00
aI01
aI00
aI00
aI01
aI01
aI00
aI00
aI01
aI00
asg32
I12
sg33
I7
sg34
I01
sba(lp42
I0
aI3
aI4
aI7
aI8
aI11
aI12
aaI7
aI50
aI7
aF0.17429780960083008
aaa(lp43
(lp44
I01
aI00
aI00
aI01
aI01
aI00
aI00
aI01
aI01
aI01
aI00
aI01
aI01
aI01
aI00
aI01
aI01
aI00
aI00
aI00
aI00
aI00
aI00
aI00
aa(lp45
g44
a(istate
Node
p46
(dp47
g6
S'000000000100110010000000'
p48
sg8
(istate
Node
p49
(dp50
g6
S'000000000100110110000000'
p51
sg8
(istate
Node
p52
(dp53
g6
S'000000000101110110000000'
p54
sg8
(istate
Node
p55
(dp56
g6
S'000000001101110110000000'
p57
sg8
(istate
Node
p58
(dp59
g6
S'000000011101110110000000'
p60
sg8
(istate
Node
p61
(dp62
g6
S'000010011101110110000000'
p63
sg8
(istate
Node
p64
(dp65
g6
S'000110011101110110000000'
p66
sg8
(istate
Node
p67
(dp68
g6
S'100110011101110110000000'
p69
sg8
Nsg30
(lp70
I01
aI00
aI00
aI01
aI01
aI00
aI00
aI01
aI01
aI01
aI00
aI01
aI01
aI01
aI00
aI01
aI01
aI00
aI00
aI00
aI00
aI00
aI00
aI00
asg32
I-1
sg33
I0
sg34
Nsbsg30
(lp71
I00
aI00
aI00
aI01
aI01
aI00
aI00
aI01
aI01
aI01
aI00
aI01
aI01
aI01
aI00
aI01
aI01
aI00
aI00
aI00
aI00
aI00
aI00
aI00
asg32
I0
sg33
I1
sg34
I01
sbsg30
(lp72
I00
aI00
aI00
aI00
aI01
aI00
aI00
aI01
aI01
aI01
aI00
aI01
aI01
aI01
aI00
aI01
aI01
aI00
aI00
aI00
aI00
aI00
aI00
aI00
asg32
I3
sg33
I2
sg34
I01
sbsg30
(lp73
I00
aI00
aI00
aI00
aI00
aI00
aI00
aI01
aI01
aI01
aI00
aI01
aI01
aI01
aI00
aI01
aI01
aI00
aI00
aI00
aI00
aI00
aI00
aI00
asg32
I4
sg33
I3
sg34
I01
sbsg30
(lp74
I00
aI00
aI00
aI00
aI00
aI00
aI00
aI00
aI01
aI01
aI00
aI01
aI01
aI01
aI00
aI01
aI01
aI00
aI00
aI00
aI00
aI00
aI00
aI00
asg32
I7
sg33
I4
sg34
I01
sbsg30
(lp75
I00
aI00
aI00
aI00
aI00
aI00
aI00
aI00
aI00
aI01
aI00
aI01
aI01
aI01
aI00
aI01
aI01
aI00
aI00
aI00
aI00
aI00
aI00
aI00
asg32
I8
sg33
I5
sg34
I01
sbsg30
(lp76
I00
aI00
aI00
aI00
aI00
aI00
aI00
aI00
aI00
aI01
aI00
aI00
aI01
aI01
aI00
aI01
aI01
aI00
aI00
aI00
aI00
aI00
aI00
aI00
asg32
I11
sg33
I6
sg34
I01
sbsg30
(lp77
I00
aI00
aI00
aI00
aI00
aI00
aI00
aI00
aI00
aI01
aI00
aI00
aI01
aI01
aI00
aI00
aI01
aI00
aI00
aI00
aI00
aI00
aI00
aI00
asg32
I15
sg33
I7
sg34
I01
sba(lp78
I0
aI3
aI4
aI7
aI8
aI11
aI15
aaI11
aI56
aI51
aF0.2945849895477295
aaa(lp79
(lp80
I00
aI00
aI01
aI00
aI00
aI01
aI01
aI01
aI00
aI01
aI01
aI01
aI00
aI00
aI01
aI00
aI00
aI01
aI01
aI00
aI00
aI01
aI00
aI00
aa(lp81
g80
a(istate
Node
p82
(dp83
g6
S'000000000000001001100100'
p84
sg8
(istate
Node
p85
(dp86
g6
S'000000000001001001100100'
p87
sg8
(istate
Node
p88
(dp89
g6
S'000000000011001001100100'
p90
sg8
(istate
Node
p91
(dp92
g6
S'000000000111001001100100'
p93
sg8
(istate
Node
p94
(dp95
g6
S'000000010111001001100100'
p96
sg8
(istate
Node
p97
(dp98
g6
S'000000110111001001100100'
p99
sg8
(istate
Node
p100
(dp101
g6
S'000001110111001001100100'
p102
sg8
(istate
Node
p103
(dp104
g6
S'001001110111001001100100'
p105
sg8
Nsg30
(lp106
I00
aI00
aI01
aI00
aI00
aI01
aI01
aI01
aI00
aI01
aI01
aI01
aI00
aI00
aI01
aI00
aI00
aI01
aI01
aI00
aI00
aI01
aI00
aI00
asg32
I-1
sg33
I0
sg34
Nsbsg30
(lp107
I00
aI00
aI00
aI00
aI00
aI01
aI01
aI01
aI00
aI01
aI01
aI01
aI00
aI00
aI01
aI00
aI00
aI01
aI01
aI00
aI00
aI01
aI00
aI00
asg32
I2
sg33
I1
sg34
I01
sbsg30
(lp108
I00
aI00
aI00
aI00
aI00
aI00
aI01
aI01
aI00
aI01
aI01
aI01
aI00
aI00
aI01
aI00
aI00
aI01
aI01
aI00
aI00
aI01
aI00
aI00
asg32
I5
sg33
I2
sg34
I01
sbsg30
(lp109
I00
aI00
aI00
aI00
aI00
aI00
aI00
aI01
aI00
aI01
aI01
aI01
aI00
aI00
aI01
aI00
aI00
aI01
aI01
aI00
aI00
aI01
aI00
aI00
asg32
I6
sg33
I3
sg34
I01
sbsg30
(lp110
I00
aI00
aI00
aI00
aI00
aI00
aI00
aI00
aI00
aI01
aI01
aI01
aI00
aI00
aI01
aI00
aI00
aI01
aI01
aI00
aI00
aI01
aI00
aI00
asg32
I7
sg33
I4
sg34
I01
sbsg30
(lp111
I00
aI00
aI00
aI00
aI00
aI00
aI00
aI00
aI00
aI00
aI01
aI01
aI00
aI00
aI01
aI00
aI00
aI01
aI01
aI00
aI00
aI01
aI00
aI00
asg32
I9
sg33
I5
sg34
I01
sbsg30
(lp112
I00
aI00
aI00
aI00
aI00
aI00
aI00
aI00
aI00
aI00
aI00
aI01
aI00
aI00
aI01
aI00
aI00
aI01
aI01
aI00
aI00
aI01
aI00
aI00
asg32
I10
sg33
I6
sg34
I01
sbsg30
(lp113
I00
aI00
aI00
aI00
aI00
aI00
aI00
aI00
aI00
aI00
aI00
aI00
aI00
aI00
aI01
aI00
aI00
aI01
aI01
aI00
aI00
aI01
aI00
aI00
asg32
I11
sg33
I7
sg34
I01
sba(lp114
I2
aI5
aI6
aI7
aI9
aI10
aI11
aaI7
aI50
aI7
aF0.12694191932678223
aaa(lp115
(lp116
I00
aI00
aI00
aI00
aI00
aI00
aI00
aI01
aI01
aI00
aI01
aI01
aI01
aI00
aI01
aI01
aI00
aI00
aI01
aI01
aI00
aI00
aI01
aI00
aa(lp117
g116
a(istate
Node
p118
(dp119
g6
S'000000000000000100110010'
p120
sg8
(istate
Node
p121
(dp122
g6
S'000000000000001100110010'
p123
sg8
(istate
Node
p124
(dp125
g6
S'000000000000101100110010'
p126
sg8
(istate
Node
p127
(dp128
g6
S'000000000001101100110010'
p129
sg8
(istate
Node
p130
(dp131
g6
S'000000000011101100110010'
p132
sg8
(istate
Node
p133
(dp134
g6
S'000000001011101100110010'
p135
sg8
(istate
Node
p136
(dp137
g6
S'000000011011101100110010'
p138
sg8
Nsg30
(lp139
I00
aI00
aI00
aI00
aI00
aI00
aI00
aI01
aI01
aI00
aI01
aI01
aI01
aI00
aI01
aI01
aI00
aI00
aI01
aI01
aI00
aI00
aI01
aI00
asg32
I-1
sg33
I0
sg34
Nsbsg30
(lp140
I00
aI00
aI00
aI00
aI00
aI00
aI00
aI00
aI01
aI00
aI01
aI01
aI01
aI00
aI01
aI01
aI00
aI00
aI01
aI01
aI00
aI00
aI01
aI00
asg32
I7
sg33
I1
sg34
I01
sbsg30
(lp141
I00
aI00
aI00
aI00
aI00
aI00
aI00
aI00
aI00
aI00
aI01
aI01
aI01
aI00
aI01
aI01
aI00
aI00
aI01
aI01
aI00
aI00
aI01
aI00
asg32
I8
sg33
I2
sg34
I01
sbsg30
(lp142
I00
aI00
aI00
aI00
aI00
aI00
aI00
aI00
aI00
aI00
aI00
aI01
aI01
aI00
aI01
aI01
aI00
aI00
aI01
aI01
aI00
aI00
aI01
aI00
asg32
I10
sg33
I3
sg34
I01
sbsg30
(lp143
I00
aI00
aI00
aI00
aI00
aI00
aI00
aI00
aI00
aI00
aI00
aI00
aI01
aI00
aI01
aI01
aI00
aI00
aI01
aI01
aI00
aI00
aI01
aI00
asg32
I11
sg33
I4
sg34
I01
sbsg30
(lp144
I00
aI00
aI00
aI00
aI00
aI00
aI00
aI00
aI00
aI00
aI00
aI00
aI00
aI00
aI01
aI01
aI00
aI00
aI01
aI01
aI00
aI00
aI01
aI00
asg32
I12
sg33
I5
sg34
I01
sbsg30
(lp145
I00
aI00
aI00
aI00
aI00
aI00
aI00
aI00
aI00
aI00
aI00
aI00
aI00
aI00
aI00
aI01
aI00
aI00
aI01
aI01
aI00
aI00
aI01
aI00
asg32
I14
sg33
I6
sg34
I01
sba(lp146
I7
aI8
aI10
aI11
aI12
aI14
aaI6
aI40
aI6
aF0.10374689102172852
aaa(lp147
(lp148
I00
aI00
aI00
aI00
aI00
aI00
aI00
aI01
aI00
aI01
aI01
aI01
aI01
aI01
aI01
aI00
aI01
aI01
aI01
aI00
aI00
aI01
aI00
aI00
aa(lp149
g148
a(istate
Node
p150
(dp151
g6
S'000000000000001001100100'
p152
sg8
(istate
Node
p153
(dp154
g6
S'000000000000001011100100'
p155
sg8
(istate
Node
p156
(dp157
g6
S'000000000000011011100100'
p158
sg8
(istate
Node
p159
(dp160
g6
S'000000000000111011100100'
p161
sg8
(istate
Node
p162
(dp163
g6
S'000000000001111011100100'
p164
sg8
(istate
Node
p165
(dp166
g6
S'000000000011111011100100'
p167
sg8
(istate
Node
p168
(dp169
g6
S'000000000111111011100100'
p170
sg8
(istate
Node
p171
(dp172
g6
S'000000010111111011100100'
p173
sg8
Nsg30
(lp174
I00
aI00
aI00
aI00
aI00
aI00
aI00
aI01
aI00
aI01
aI01
aI01
aI01
aI01
aI01
aI00
aI01
aI01
aI01
aI00
aI00
aI01
aI00
aI00
asg32
I-1
sg33
I0
sg34
Nsbsg30
(lp175
I00
aI00
aI00
aI00
aI00
aI00
aI00
aI00
aI00
aI01
aI01
aI01
aI01
aI01
aI01
aI00
aI01
aI01
aI01
aI00
aI00
aI01
aI00
aI00
asg32
I7
sg33
I1
sg34
I01
sbsg30
(lp176
I00
aI00
aI00
aI00
aI00
aI00
aI00
aI00
aI00
aI00
aI01
aI01
aI01
aI01
aI01
aI00
aI01
aI01
aI01
aI00
aI00
aI01
aI00
aI00
asg32
I9
sg33
I2
sg34
I01
sbsg30
(lp177
I00
aI00
aI00
aI00
aI00
aI00
aI00
aI00
aI00
aI00
aI00
aI01
aI01
aI01
aI01
aI00
aI01
aI01
aI01
aI00
aI00
aI01
aI00
aI00
asg32
I10
sg33
I3
sg34
I01
sbsg30
(lp178
I00
aI00
aI00
aI00
aI00
aI00
aI00
aI00
aI00
aI00
aI00
aI00
aI01
aI01
aI01
aI00
aI01
aI01
aI01
aI00
aI00
aI01
aI00
aI00
asg32
I11
sg33
I4
sg34
I01
sbsg30
(lp179
I00
aI00
aI00
aI00
aI00
aI00
aI00
aI00
aI00
aI00
aI00
aI00
aI00
aI01
aI01
aI00
aI01
aI01
aI01
aI00
aI00
aI01
aI00
aI00
asg32
I12
sg33
I5
sg34
I01
sbsg30
(lp180
I00
aI00
aI00
aI00
aI00
aI00
aI00
aI00
aI00
aI00
aI00
aI00
aI00
aI00
aI01
aI00
aI01
aI01
aI01
aI00
aI00
aI01
aI00
aI00
asg32
I13
sg33
I6
sg34
I01
sbsg30
(lp181
I00
aI00
aI00
aI00
aI00
aI00
aI00
aI00
aI00
aI00
aI00
aI00
aI00
aI00
aI01
aI00
aI00
aI01
aI01
aI00
aI00
aI01
aI00
aI00
asg32
I16
sg33
I7
sg34
I01
sba(lp182
I7
aI9
aI10
aI11
aI12
aI13
aI16
aaI11
aI56
aI23
aF0.24012112617492676
aaa(lp183
(lp184
I00
aI00
aI01
aI00
aI00
aI01
aI01
aI01
aI00
aI01
aI01
aI01
aI01
aI01
aI01
aI00
aI01
aI00
aI00
aI00
aI00
aI00
aI00
aI00
aa(lp185
g184
a(istate
Node
p186
(dp187
g6
S'000000000100110010000000'
p188
sg8
(istate
Node
p189
(dp190
g6
S'000000000100111010000000'
p191
sg8
(istate
Node
p192
(dp193
g6
S'000000000101111010000000'
p194
sg8
(istate
Node
p195
(dp196
g6
S'000000000111111010000000'
p197
sg8
(istate
Node
p198
(dp199
g6
S'000000010111111010000000'
p200
sg8
(istate
Node
p201
(dp202
g6
S'000000110111111010000000'
p203
sg8
(istate
Node
p204
(dp205
g6
S'000001110111111010000000'
p206
sg8
(istate
Node
p207
(dp208
g6
S'001001110111111010000000'
p209
sg8
Nsg30
(lp210
I00
aI00
aI01
aI00
aI00
aI01
aI01
aI01
aI00
aI01
aI01
aI01
aI01
aI01
aI01
aI00
aI01
aI00
aI00
aI00
aI00
aI00
aI00
aI00
asg32
I-1
sg33
I0
sg34
Nsbsg30
(lp211
I00
aI00
aI00
aI00
aI00
aI01
aI01
aI01
aI00
aI01
aI01
aI01
aI01
aI01
aI01
aI00
aI01
aI00
aI00
aI00
aI00
aI00
aI00
aI00
asg32
I2
sg33
I1
sg34
I01
sbsg30
(lp212
I00
aI00
aI00
aI00
aI00
aI00
aI01
aI01
aI00
aI01
aI01
aI01
aI01
aI01
aI01
aI00
aI01
aI00
aI00
aI00
aI00
aI00
aI00
aI00
asg32
I5
sg33
I2
sg34
I01
sbsg30
(lp213
I00
aI00
aI00
aI00
aI00
aI00
aI00
aI01
aI00
aI01
aI01
aI01
aI01
aI01
aI01
aI00
aI01
aI00
aI00
aI00
aI00
aI00
aI00
aI00
asg32
I6
sg33
I3
sg34
I01
sbsg30
(lp214
I00
aI00
aI00
aI00
aI00
aI00
aI00
aI00
aI00
aI01
aI01
aI01
aI01
aI01
aI01
aI00
aI01
aI00
aI00
aI00
aI00
aI00
aI00
aI00
asg32
I7
sg33
I4
sg34
I01
sbsg30
(lp215
I00
aI00
aI00
aI00
aI00
aI00
aI00
aI00
aI00
aI01
aI00
aI01
aI01
aI01
aI01
aI00
aI01
aI00
aI00
aI00
aI00
aI00
aI00
aI00
asg32
I10
sg33
I5
sg34
I01
sbsg30
(lp216
I00
aI00
aI00
aI00
aI00
aI00
aI00
aI00
aI00
aI01
aI00
aI00
aI01
aI01
aI01
aI00
aI01
aI00
aI00
aI00
aI00
aI00
aI00
aI00
asg32
I11
sg33
I6
sg34
I01
sbsg30
(lp217
I00
aI00
aI00
aI00
aI00
aI00
aI00
aI00
aI00
aI01
aI00
aI00
aI01
aI01
aI00
aI00
aI01
aI00
aI00
aI00
aI00
aI00
aI00
aI00
asg32
I14
sg33
I7
sg34
I01
sba(lp218
I2
aI5
aI6
aI7
aI10
aI11
aI14
aaI11
aI56
aI83
aF0.3879070281982422
aaa(lp219
(lp220
I01
aI00
aI00
aI01
aI01
aI00
aI00
aI01
aI00
aI01
aI00
aI00
aI01
aI01
aI01
aI00
aI01
aI01
aI01
aI00
aI00
aI01
aI00
aI00
aa(lp221
g220
a(istate
Node
p222
(dp223
g6
S'000000000000001001100100'
p224
sg8
(istate
Node
p225
(dp226
g6
S'000000000000001011100100'
p227
sg8
(istate
Node
p228
(dp229
g6
S'000000000000011011100100'
p230
sg8
(istate
Node
p231
(dp232
g6
S'000000000000111011100100'
p233
sg8
(istate
Node
p234
(dp235
g6
S'000000000100111011100100'
p236
sg8
(istate
Node
p237
(dp238
g6
S'000000010100111011100100'
p239
sg8
(istate
Node
p240
(dp241
g6
S'000010010100111011100100'
p242
sg8
(istate
Node
p243
(dp244
g6
S'000110010100111011100100'
p245
sg8
(istate
Node
p246
(dp247
g6
S'100110010100111011100100'
p248
sg8
Nsg30
(lp249
I01
aI00
aI00
aI01
aI01
aI00
aI00
aI01
aI00
aI01
aI00
aI00
aI01
aI01
aI01
aI00
aI01
aI01
aI01
aI00
aI00
aI01
aI00
aI00
asg32
I-1
sg33
I0
sg34
Nsbsg30
(lp250
I00
aI00
aI00
aI01
aI01
aI00
aI00
aI01
aI00
aI01
aI00
aI00
aI01
aI01
aI01
aI00
aI01
aI01
aI01
aI00
aI00
aI01
aI00
aI00
asg32
I0
sg33
I1
sg34
I01
sbsg30
(lp251
I00
aI00
aI00
aI00
aI01
aI00
aI00
aI01
aI00
aI01
aI00
aI00
aI01
aI01
aI01
aI00
aI01
aI01
aI01
aI00
aI00
aI01
aI00
aI00
asg32
I3
sg33
I2
sg34
I01
sbsg30
(lp252
I00
aI00
aI00
aI00
aI00
aI00
aI00
aI01
aI00
aI01
aI00
aI00
aI01
aI01
aI01
aI00
aI01
aI01
aI01
aI00
aI00
aI01
aI00
aI00
asg32
I4
sg33
I3
sg34
I01
sbsg30
(lp253
I00
aI00
aI00
aI00
aI00
aI00
aI00
aI00
aI00
aI01
aI00
aI00
aI01
aI01
aI01
aI00
aI01
aI01
aI01
aI00
aI00
aI01
aI00
aI00
asg32
I7
sg33
I4
sg34
I01
sbsg30
(lp254
I00
aI00
aI00
aI00
aI00
aI00
aI00
aI00
aI00
aI00
aI00
aI00
aI01
aI01
aI01
aI00
aI01
aI01
aI01
aI00
aI00
aI01
aI00
aI00
asg32
I9
sg33
I5
sg34
I01
sbsg30
(lp255
I00
aI00
aI00
aI00
aI00
aI00
aI00
aI00
aI00
aI00
aI00
aI00
aI00
aI01
aI01
aI00
aI01
aI01
aI01
aI00
aI00
aI01
aI00
aI00
asg32
I12
sg33
I6
sg34
I01
sbsg30
(lp256
I00
aI00
aI00
aI00
aI00
aI00
aI00
aI00
aI00
aI00
aI00
aI00
aI00
aI00
aI01
aI00
aI01
aI01
aI01
aI00
aI00
aI01
aI00
aI00
asg32
I13
sg33
I7
sg34
I01
sbsg30
(lp257
I00
aI00
aI00
aI00
aI00
aI00
aI00
aI00
aI00
aI00
aI00
aI00
aI00
aI00
aI01
aI00
aI00
aI01
aI01
aI00
aI00
aI01
aI00
aI00
asg32
I16
sg33
I8
sg34
I01
sba(lp258
I0
aI3
aI4
aI7
aI9
aI12
aI13
aI16
aaI12
aI67
aI24
aF0.20773601531982422
aaa(lp259
(lp260
I00
aI01
aI00
aI00
aI01
aI01
aI00
aI01
aI01
aI00
aI01
aI01
aI00
aI00
aI01
aI00
aI00
aI01
aI01
aI00
aI00
aI01
aI00
aI00
aa(lp261
g260
a(istate
Node
p262
(dp263
g6
S'000000000000001001100100'
p264
sg8
(istate
Node
p265
(dp266
g6
S'000000000001001001100100'
p267
sg8
(istate
Node
p268
(dp269
g6
S'000000000011001001100100'
p270
sg8
(istate
Node
p271
(dp272
g6
S'000000001011001001100100'
p273
sg8
(istate
Node
p274
(dp275
g6
S'000000011011001001100100'
p276
sg8
(istate
Node
p277
(dp278
g6
S'000001011011001001100100'
p279
sg8
(istate
Node
p280
(dp281
g6
S'000011011011001001100100'
p282
sg8
(istate
Node
p283
(dp284
g6
S'010011011011001001100100'
p285
sg8
Nsg30
(lp286
I00
aI01
aI00
aI00
aI01
aI01
aI00
aI01
aI01
aI00
aI01
aI01
aI00
aI00
aI01
aI00
aI00
aI01
aI01
aI00
aI00
aI01
aI00
aI00
asg32
I-1
sg33
I0
sg34
Nsbsg30
(lp287
I00
aI00
aI00
aI00
aI01
aI01
aI00
aI01
aI01
aI00
aI01
aI01
aI00
aI00
aI01
aI00
aI00
aI01
aI01
aI00
aI00
aI01
aI00
aI00
asg32
I1
sg33
I1
sg34
I01
sbsg30
(lp288
I00
aI00
aI00
aI00
aI00
aI01
aI00
aI01
aI01
aI00
aI01
aI01
aI00
aI00
aI01
aI00
aI00
aI01
aI01
aI00
aI00
aI01
aI00
aI00
asg32
I4
sg33
I2
sg34
I01
sbsg30
(lp289
I00
aI00
aI00
aI00
aI00
aI00
aI00
aI01
aI01
aI00
aI01
aI01
aI00
aI00
aI01
aI00
aI00
aI01
aI01
aI00
aI00
aI01
aI00
aI00
asg32
I5
sg33
I3
sg34
I01
sbsg30
(lp290
I00
aI00
aI00
aI00
aI00
aI00
aI00
aI00
aI01
aI00
aI01
aI01
aI00
aI00
aI01
aI00
aI00
aI01
aI01
aI00
aI00
aI01
aI00
aI00
asg32
I7
sg33
I4
sg34
I01
sbsg30
(lp291
I00
aI00
aI00
aI00
aI00
aI00
aI00
aI00
aI00
aI00
aI01
aI01
aI00
aI00
aI01
aI00
aI00
aI01
aI01
aI00
aI00
aI01
aI00
aI00
asg32
I8
sg33
I5
sg34
I01
sbsg30
(lp292
I00
aI00
aI00
aI00
aI00
aI00
aI00
aI00
aI00
aI00
aI00
aI01
aI00
aI00
aI01
aI00
aI00
aI01
aI01
aI00
aI00
aI01
aI00
aI00
asg32
I10
sg33
I6
sg34
I01
sbsg30
(lp293
I00
aI00
aI00
aI00
aI00
aI00
aI00
aI00
aI00
aI00
aI00
aI00
aI00
aI00
aI01
aI00
aI00
aI01
aI01
aI00
aI00
aI01
aI00
aI00
asg32
I11
sg33
I7
sg34
I01
sba(lp294
I1
aI4
aI5
aI7
aI8
aI10
aI11
aaI7
aI50
aI7
aF0.13620209693908691
aaa(lp295
(lp296
I00
aI01
aI01
aI00
aI01
aI01
aI01
aI00
aI01
aI01
aI00
aI00
aI00
aI00
aI00
aI00
aI01
aI00
aI00
aI01
aI01
aI00
aI00
aI01
aa(lp297
g296
a(istate
Node
p298
(dp299
g6
S'000000000000000010011001'
p300
sg8
(istate
Node
p301
(dp302
g6
S'000000000100000010011001'
p303
sg8
(istate
Node
p304
(dp305
g6
S'000000001100000010011001'
p306
sg8
(istate
Node
p307
(dp308
g6
S'000000101100000010011001'
p309
sg8
(istate
Node
p310
(dp311
g6
S'000001101100000010011001'
p312
sg8
(istate
Node
p313
(dp314
g6
S'000011101100000010011001'
p315
sg8
(istate
Node
p316
(dp317
g6
S'001011101100000010011001'
p318
sg8
(istate
Node
p319
(dp320
g6
S'011011101100000010011001'
p321
sg8
Nsg30
(lp322
I00
aI01
aI01
aI00
aI01
aI01
aI01
aI00
aI01
aI01
aI00
aI00
aI00
aI00
aI00
aI00
aI01
aI00
aI00
aI01
aI01
aI00
aI00
aI01
asg32
I-1
sg33
I0
sg34
Nsbsg30
(lp323
I00
aI00
aI01
aI00
aI01
aI01
aI01
aI00
aI01
aI01
aI00
aI00
aI00
aI00
aI00
aI00
aI01
aI00
aI00
aI01
aI01
aI00
aI00
aI01
asg32
I1
sg33
I1
sg34
I01
sbsg30
(lp324
I00
aI00
aI00
aI00
aI01
aI01
aI01
aI00
aI01
aI01
aI00
aI00
aI00
aI00
aI00
aI00
aI01
aI00
aI00
aI01
aI01
aI00
aI00
aI01
asg32
I2
sg33
I2
sg34
I01
sbsg30
(lp325
I00
aI00
aI00
aI00
aI00
aI01
aI01
aI00
aI01
aI01
aI00
aI00
aI00
aI00
aI00
aI00
aI01
aI00
aI00
aI01
aI01
aI00
aI00
aI01
asg32
I4
sg33
I3
sg34
I01
sbsg30
(lp326
I00
aI00
aI00
aI00
aI00
aI00
aI01
aI00
aI01
aI01
aI00
aI00
aI00
aI00
aI00
aI00
aI01
aI00
aI00
aI01
aI01
aI00
aI00
aI01
asg32
I5
sg33
I4
sg34
I01
sbsg30
(lp327
I00
aI00
aI00
aI00
aI00
aI00
aI00
aI00
aI01
aI01
aI00
aI00
aI00
aI00
aI00
aI00
aI01
aI00
aI00
aI01
aI01
aI00
aI00
aI01
asg32
I6
sg33
I5
sg34
I01
sbsg30
(lp328
I00
aI00
aI00
aI00
aI00
aI00
aI00
aI00
aI00
aI01
aI00
aI00
aI00
aI00
aI00
aI00
aI01
aI00
aI00
aI01
aI01
aI00
aI00
aI01
asg32
I8
sg33
I6
sg34
I01
sbsg30
(lp329
I00
aI00
aI00
aI00
aI00
aI00
aI00
aI00
aI00
aI00
aI00
aI00
aI00
aI00
aI00
aI00
aI01
aI00
aI00
aI01
aI01
aI00
aI00
aI01
asg32
I9
sg33
I7
sg34
I01
sba(lp330
I1
aI2
aI4
aI5
aI6
aI8
aI9
aaI7
aI50
aI7
aF0.1399979591369629
aaa(lp331
(lp332
I00
aI00
aI00
aI00
aI00
aI00
aI00
aI00
aI00
aI01
aI00
aI00
aI01
aI01
aI00
aI01
aI01
aI00
aI01
aI01
aI01
aI00
aI01
aI01
aa(lp333
g332
a(istate
Node
p334
(dp335
g6
S'000000000000000010011001'
p336
sg8
(istate
Node
p337
(dp338
g6
S'000000000000000010011011'
p339
sg8
(istate
Node
p340
(dp341
g6
S'000000000000000010111011'
p342
sg8
(istate
Node
p343
(dp344
g6
S'000000000000000110111011'
p345
sg8
(istate
Node
p346
(dp347
g6
S'000000000000010110111011'
p348
sg8
(istate
Node
p349
(dp350
g6
S'000000000000110110111011'
p351
sg8
(istate
Node
p352
(dp353
g6
S'000000000100110110111011'
p354
sg8
Nsg30
(lp355
I00
aI00
aI00
aI00
aI00
aI00
aI00
aI00
aI00
aI01
aI00
aI00
aI01
aI01
aI00
aI01
aI01
aI00
aI01
aI01
aI01
aI00
aI01
aI01
asg32
I-1
sg33
I0
sg34
Nsbsg30
(lp356
I00
aI00
aI00
aI00
aI00
aI00
aI00
aI00
aI00
aI00
aI00
aI00
aI01
aI01
aI00
aI01
aI01
aI00
aI01
aI01
aI01
aI00
aI01
aI01
asg32
I9
sg33
I1
sg34
I01
sbsg30
(lp357
I00
aI00
aI00
aI00
aI00
aI00
aI00
aI00
aI00
aI00
aI00
aI00
aI00
aI01
aI00
aI01
aI01
aI00
aI01
aI01
aI01
aI00
aI01
aI01
asg32
I12
sg33
I2
sg34
I01
sbsg30
(lp358
I00
aI00
aI00
aI00
aI00
aI00
aI00
aI00
aI00
aI00
aI00
aI00
aI00
aI00
aI00
aI01
aI01
aI00
aI01
aI01
aI01
aI00
aI01
aI01
asg32
I13
sg33
I3
sg34
I01
sbsg30
(lp359
I00
aI00
aI00
aI00
aI00
aI00
aI00
aI00
aI00
aI00
aI00
aI00
aI00
aI00
aI00
aI00
aI01
aI00
aI01
aI01
aI01
aI00
aI01
aI01
asg32
I15
sg33
I4
sg34
I01
sbsg30
(lp360
I00
aI00
aI00
aI00
aI00
aI00
aI00
aI00
aI00
aI00
aI00
aI00
aI00
aI00
aI00
aI00
aI01
aI00
aI00
aI01
aI01
aI00
aI01
aI01
asg32
I18
sg33
I5
sg34
I01
sbsg30
(lp361
I00
aI00
aI00
aI00
aI00
aI00
aI00
aI00
aI00
aI00
aI00
aI00
aI00
aI00
aI00
aI00
aI01
aI00
aI00
aI01
aI01
aI00
aI00
aI01
asg32
I22
sg33
I6
sg34
I01
sba(lp362
I9
aI12
aI13
aI15
aI18
aI22
aaI10
aI46
aI50
aF0.20223784446716309
aaa.