(lp0
(lp1
(lp2
I00
aI00
aI01
aI00
aI00
aI01
aI01
aI00
aI01
aI01
aI00
aI01
aI01
aI00
aI00
aI01
aI01
aI00
aI00
aI01
aI01
aI00
aI00
aI01
aa(lp3
g2
a(istate
Node
p4
(dp5
S'_hash_'
p6
S'000000001001100110011001'
p7
sS'parent'
p8
(istate
Node
p9
(dp10
g6
S'000000001101100110011001'
p11
sg8
(istate
Node
p12
(dp13
g6
S'000000101101100110011001'
p14
sg8
(istate
Node
p15
(dp16
g6
S'000001101101100110011001'
p17
sg8
(istate
Node
p18
(dp19
g6
S'001001101101100110011001'
p20
sg8
NsS'state'
p21
(lp22
I00
aI00
aI01
aI00
aI00
aI01
aI01
aI00
aI01
aI01
aI00
aI01
aI01
aI00
aI00
aI01
aI01
aI00
aI00
aI01
aI01
aI00
aI00
aI01
asS'pos'
p23
I-1
sS'depth'
p24
I0
sS'action'
p25
Nsbsg21
(lp26
I00
aI00
aI00
aI00
aI00
aI01
aI01
aI00
aI01
aI01
aI00
aI01
aI01
aI00
aI00
aI01
aI01
aI00
aI00
aI01
aI01
aI00
aI00
aI01
asg23
I2
sg24
I1
sg25
I01
sbsg21
(lp27
I00
aI00
aI00
aI00
aI00
aI00
aI01
aI00
aI01
aI01
aI00
aI01
aI01
aI00
aI00
aI01
aI01
aI00
aI00
aI01
aI01
aI00
aI00
aI01
asg23
I5
sg24
I2
sg25
I01
sbsg21
(lp28
I00
aI00
aI00
aI00
aI00
aI00
aI00
aI00
aI01
aI01
aI00
aI01
aI01
aI00
aI00
aI01
aI01
aI00
aI00
aI01
aI01
aI00
aI00
aI01
asg23
I6
sg24
I3
sg25
I01
sbsg21
(lp29
I00
aI00
aI00
aI00
aI00
aI00
aI00
aI00
aI01
aI00
aI00
aI01
aI01
aI00
aI00
aI01
aI01
aI00
aI00
aI01
aI01
aI00
aI00
aI01
asg23
I9
sg24
I4
sg25
I01
sba(lp30
I2
aI5
aI6
aI9
aaI12
aI67
aI260
aF0.7457349300384521
aaa(lp31
(lp32
I00
aI01
aI01
aI00
aI01
aI01
aI01
aI00
aI01
aI01
aI00
aI00
aI00
aI00
aI00
aI00
aI01
aI00
aI00
aI01
aI01
aI00
aI00
aI01
aa(lp33
g32
a(istate
Node
p34
(dp35
g6
S'001001100100000010011001'
p36
sg8
(istate
Node
p37
(dp38
g6
S'001001101100000010011001'
p39
sg8
(istate
Node
p40
(dp41
g6
S'001011101100000010011001'
p42
sg8
(istate
Node
p43
(dp44
g6
S'011011101100000010011001'
p45
sg8
Nsg21
(lp46
I00
aI01
aI01
aI00
aI01
aI01
aI01
aI00
aI01
aI01
aI00
aI00
aI00
aI00
aI00
aI00
aI01
aI00
aI00
aI01
aI01
aI00
aI00
aI01
asg23
I-1
sg24
I0
sg25
Nsbsg21
(lp47
I00
aI00
aI01
aI00
aI01
aI01
aI01
aI00
aI01
aI01
aI00
aI00
aI00
aI00
aI00
aI00
aI01
aI00
aI00
aI01
aI01
aI00
aI00
aI01
asg23
I1
sg24
I1
sg25
I01
sbsg21
(lp48
I00
aI00
aI01
aI00
aI00
aI01
aI01
aI00
aI01
aI01
aI00
aI00
aI00
aI00
aI00
aI00
aI01
aI00
aI00
aI01
aI01
aI00
aI00
aI01
asg23
I4
sg24
I2
sg25
I01
sbsg21
(lp49
I00
aI00
aI01
aI00
aI00
aI01
aI01
aI00
aI00
aI01
aI00
aI00
aI00
aI00
aI00
aI00
aI01
aI00
aI00
aI01
aI01
aI00
aI00
aI01
asg23
I8
sg24
I3
sg25
I01
sba(lp50
I1
aI4
aI8
aaI11
aI56
aI707
aF1.6678171157836914
aaa(lp51
(lp52
I00
aI00
aI01
aI00
aI00
aI01
aI01
aI00
aI00
aI01
aI00
aI00
aI01
aI01
aI00
aI01
aI01
aI00
aI01
aI01
aI00
aI00
aI01
aI00
aa(lp53
g52
a(istate
Node
p54
(dp55
g6
S'000000000100110110110010'
p56
sg8
(istate
Node
p57
(dp58
g6
S'000000100100110110110010'
p59
sg8
(istate
Node
p60
(dp61
g6
S'000001100100110110110010'
p62
sg8
(istate
Node
p63
(dp64
g6
S'001001100100110110110010'
p65
sg8
Nsg21
(lp66
I00
aI00
aI01
aI00
aI00
aI01
aI01
aI00
aI00
aI01
aI00
aI00
aI01
aI01
aI00
aI01
aI01
aI00
aI01
aI01
aI00
aI00
aI01
aI00
asg23
I-1
sg24
I0
sg25
Nsbsg21
(lp67
I00
aI00
aI00
aI00
aI00
aI01
aI01
aI00
aI00
aI01
aI00
aI00
aI01
aI01
aI00
aI01
aI01
aI00
aI01
aI01
aI00
aI00
aI01
aI00
asg23
I2
sg24
I1
sg25
I01
sbsg21
(lp68
I00
aI00
aI00
aI00
aI00
aI00
aI01
aI00
aI00
aI01
aI00
aI00
aI01
aI01
aI00
aI01
aI01
aI00
aI01
aI01
aI00
aI00
aI01
aI00
asg23
I5
sg24
I2
sg25
I01
sbsg21
(lp69
I00
aI00
aI00
aI00
aI00
aI00
aI00
aI00
aI00
aI01
aI00
aI00
aI01
aI01
aI00
aI01
aI01
aI00
aI01
aI01
aI00
aI00
aI01
aI00
asg23
I6
sg24
I3
sg25
I01
sba(lp70
I2
aI5
aI6
aaI3
aI28
aI3
aF0.06640291213989258
aaa(lp71
(lp72
I01
aI00
aI01
aI01
aI01
aI01
aI01
aI01
aI00
aI01
aI00
aI00
aI00
aI00
aI00
aI01
aI00
aI00
aI01
aI01
aI00
aI00
aI01
aI00
aa(lp73
g72
a(istate
Node
p74
(dp75
g6
S'001001100100000100110010'
p76
sg8
(istate
Node
p77
(dp78
g6
S'001001110100000100110010'
p79
sg8
(istate
Node
p80
(dp81
g6
S'001011110100000100110010'
p82
sg8
(istate
Node
p83
(dp84
g6
S'001111110100000100110010'
p85
sg8
(istate
Node
p86
(dp87
g6
S'101111110100000100110010'
p88
sg8
Nsg21
(lp89
I01
aI00
aI01
aI01
aI01
aI01
aI01
aI01
aI00
aI01
aI00
aI00
aI00
aI00
aI00
aI01
aI00
aI00
aI01
aI01
aI00
aI00
aI01
aI00
asg23
I-1
sg24
I0
sg25
Nsbsg21
(lp90
I00
aI00
aI01
aI01
aI01
aI01
aI01
aI01
aI00
aI01
aI00
aI00
aI00
aI00
aI00
aI01
aI00
aI00
aI01
aI01
aI00
aI00
aI01
aI00
asg23
I0
sg24
I1
sg25
I01
sbsg21
(lp91
I00
aI00
aI01
aI00
aI01
aI01
aI01
aI01
aI00
aI01
aI00
aI00
aI00
aI00
aI00
aI01
aI00
aI00
aI01
aI01
aI00
aI00
aI01
aI00
asg23
I3
sg24
I2
sg25
I01
sbsg21
(lp92
I00
aI00
aI01
aI00
aI00
aI01
aI01
aI01
aI00
aI01
aI00
aI00
aI00
aI00
aI00
aI01
aI00
aI00
aI01
aI01
aI00
aI00
aI01
aI00
asg23
I4
sg24
I3
sg25
I01
sbsg21
(lp93
I00
aI00
aI01
aI00
aI00
aI01
aI01
aI00
aI00
aI01
aI00
aI00
aI00
aI00
aI00
aI01
aI00
aI00
aI01
aI01
aI00
aI00
aI01
aI00
asg23
I7
sg24
I4
sg25
I01
sba(lp94
I0
aI3
aI4
aI7
aaI12
aI67
aI1220
aF3.051481008529663
aaa(lp95
(lp96
I00
aI00
aI01
aI00
aI00
aI01
aI01
aI00
aI01
aI01
aI00
aI01
aI01
aI00
aI00
aI01
aI01
aI00
aI00
aI01
aI01
aI00
aI00
aI01
aa(lp97
g96
a(istate
Node
p98
(dp99
g6
S'000000001001100110011001'
p100
sg8
(istate
Node
p101
(dp102
g6
S'000000001101100110011001'
p103
sg8
(istate
Node
p104
(dp105
g6
S'000000101101100110011001'
p106
sg8
(istate
Node
p107
(dp108
g6
S'000001101101100110011001'
p109
sg8
(istate
Node
p110
(dp111
g6
S'001001101101100110011001'
p112
sg8
Nsg21
(lp113
I00
aI00
aI01
aI00
aI00
aI01
aI01
aI00
aI01
aI01
aI00
aI01
aI01
aI00
aI00
aI01
aI01
aI00
aI00
aI01
aI01
aI00
aI00
aI01
asg23
I-1
sg24
I0
sg25
Nsbsg21
(lp114
I00
aI00
aI00
aI00
aI00
aI01
aI01
aI00
aI01
aI01
aI00
aI01
aI01
aI00
aI00
aI01
aI01
aI00
aI00
aI01
aI01
aI00
aI00
aI01
asg23
I2
sg24
I1
sg25
I01
sbsg21
(lp115
I00
aI00
aI00
aI00
aI00
aI00
aI01
aI00
aI01
aI01
aI00
aI01
aI01
aI00
aI00
aI01
aI01
aI00
aI00
aI01
aI01
aI00
aI00
aI01
asg23
I5
sg24
I2
sg25
I01
sbsg21
(lp116
I00
aI00
aI00
aI00
aI00
aI00
aI00
aI00
aI01
aI01
aI00
aI01
aI01
aI00
aI00
aI01
aI01
aI00
aI00
aI01
aI01
aI00
aI00
aI01
asg23
I6
sg24
I3
sg25
I01
sbsg21
(lp117
I00
aI00
aI00
aI00
aI00
aI00
aI00
aI00
aI01
aI00
aI00
aI01
aI01
aI00
aI00
aI01
aI01
aI00
aI00
aI01
aI01
aI00
aI00
aI01
asg23
I9
sg24
I4
sg25
I01
sba(lp118
I2
aI5
aI6
aI9
aaI12
aI67
aI260
aF0.848020076751709
aaa(lp119
(lp120
I01
aI00
aI00
aI01
aI01
aI00
aI00
aI01
aI00
aI00
aI01
aI01
aI00
aI00
aI01
aI00
aI01
aI00
aI00
aI01
aI01
aI00
aI00
aI01
aa(lp121
g120
a(istate
Node
p122
(dp123
g6
S'000000010011001010011001'
p124
sg8
(istate
Node
p125
(dp126
g6
S'000010010011001010011001'
p127
sg8
(istate
Node
p128
(dp129
g6
S'000110010011001010011001'
p130
sg8
(istate
Node
p131
(dp132
g6
S'100110010011001010011001'
p133
sg8
Nsg21
(lp134
I01
aI00
aI00
aI01
aI01
aI00
aI00
aI01
aI00
aI00
aI01
aI01
aI00
aI00
aI01
aI00
aI01
aI00
aI00
aI01
aI01
aI00
aI00
aI01
asg23
I-1
sg24
I0
sg25
Nsbsg21
(lp135
I00
aI00
aI00
aI01
aI01
aI00
aI00
aI01
aI00
aI00
aI01
aI01
aI00
aI00
aI01
aI00
aI01
aI00
aI00
aI01
aI01
aI00
aI00
aI01
asg23
I0
sg24
I1
sg25
I01
sbsg21
(lp136
I00
aI00
aI00
aI00
aI01
aI00
aI00
aI01
aI00
aI00
aI01
aI01
aI00
aI00
aI01
aI00
aI01
aI00
aI00
aI01
aI01
aI00
aI00
aI01
asg23
I3
sg24
I2
sg25
I01
sbsg21
(lp137
I00
aI00
aI00
aI00
aI00
aI00
aI00
aI01
aI00
aI00
aI01
aI01
aI00
aI00
aI01
aI00
aI01
aI00
aI00
aI01
aI01
aI00
aI00
aI01
asg23
I4
sg24
I3
sg25
I01
sba(lp138
I0
aI3
aI4
aaI3
aI28
aI3
aF0.06859183311462402
aaa(lp139
(lp140
I00
aI01
aI00
aI00
aI01
aI01
aI00
aI01
aI01
aI00
aI01
aI01
aI00
aI00
aI01
aI01
aI00
aI00
aI01
aI01
aI00
aI00
aI01
aI00
aa(lp141
g140
a(istate
Node
p142
(dp143
g6
S'000000010011001100110010'
p144
sg8
(istate
Node
p145
(dp146
g6
S'000000011011001100110010'
p147
sg8
(istate
Node
p148
(dp149
g6
S'000001011011001100110010'
p150
sg8
(istate
Node
p151
(dp152
g6
S'000011011011001100110010'
p153
sg8
(istate
Node
p154
(dp155
g6
S'010011011011001100110010'
p156
sg8
Nsg21
(lp157
I00
aI01
aI00
aI00
aI01
aI01
aI00
aI01
aI01
aI00
aI01
aI01
aI00
aI00
aI01
aI01
aI00
aI00
aI01
aI01
aI00
aI00
aI01
aI00
asg23
I-1
sg24
I0
sg25
Nsbsg21
(lp158
I00
aI00
aI00
aI00
aI01
aI01
aI00
aI01
aI01
aI00
aI01
aI01
aI00
aI00
aI01
aI01
aI00
aI00
aI01
aI01
aI00
aI00
aI01
aI00
asg23
I1
sg24
I1
sg25
I01
sbsg21
(lp159
I00
aI00
aI00
aI00
aI00
aI01
aI00
aI01
aI01
aI00
aI01
aI01
aI00
aI00
aI01
aI01
aI00
aI00
aI01
aI01
aI00
aI00
aI01
aI00
asg23
I4
sg24
I2
sg25
I01
sbsg21
(lp160
I00
aI00
aI00
aI00
aI00
aI00
aI00
aI01
aI01
aI00
aI01
aI01
aI00
aI00
aI01
aI01
aI00
aI00
aI01
aI01
aI00
aI00
aI01
aI00
asg23
I5
sg24
I3
sg25
I01
sbsg21
(lp161
I00
aI00
aI00
aI00
aI00
aI00
aI00
aI01
aI00
aI00
aI01
aI01
aI00
aI00
aI01
aI01
aI00
aI00
aI01
aI01
aI00
aI00
aI01
aI00
asg23
I8
sg24
I4
sg25
I01
sba(lp162
I1
aI4
aI5
aI8
aaI12
aI67
aI260
aF0.7774789333343506
aaa(lp163
(lp164
I00
aI00
aI00
aI00
aI00
aI00
aI00
aI00
aI00
aI01
aI00
aI00
aI01
aI01
aI01
aI00
aI01
aI01
aI01
aI01
aI01
aI01
aI00
aI01
aa(lp165
g164
a(istate
Node
p166
(dp167
g6
S'000000000000001011111101'
p168
sg8
(istate
Node
p169
(dp170
g6
S'000000000000011011111101'
p171
sg8
(istate
Node
p172
(dp173
g6
S'000000000000111011111101'
p174
sg8
(istate
Node
p175
(dp176
g6
S'000000000100111011111101'
p177
sg8
Nsg21
(lp178
I00
aI00
aI00
aI00
aI00
aI00
aI00
aI00
aI00
aI01
aI00
aI00
aI01
aI01
aI01
aI00
aI01
aI01
aI01
aI01
aI01
aI01
aI00
aI01
asg23
I-1
sg24
I0
sg25
Nsbsg21
(lp179
I00
aI00
aI00
aI00
aI00
aI00
aI00
aI00
aI00
aI00
aI00
aI00
aI01
aI01
aI01
aI00
aI01
aI01
aI01
aI01
aI01
aI01
aI00
aI01
asg23
I9
sg24
I1
sg25
I01
sbsg21
(lp180
I00
aI00
aI00
aI00
aI00
aI00
aI00
aI00
aI00
aI00
aI00
aI00
aI00
aI01
aI01
aI00
aI01
aI01
aI01
aI01
aI01
aI01
aI00
aI01
asg23
I12
sg24
I2
sg25
I01
sbsg21
(lp181
I00
aI00
aI00
aI00
aI00
aI00
aI00
aI00
aI00
aI00
aI00
aI00
aI00
aI00
aI01
aI00
aI01
aI01
aI01
aI01
aI01
aI01
aI00
aI01
asg23
I13
sg24
I3
sg25
I01
sba(lp182
I9
aI12
aI13
aaI3
aI28
aI3
aF0.06962084770202637
aaa(lp183
(lp184
I00
aI01
aI00
aI00
aI01
aI01
aI00
aI00
aI01
aI00
aI00
aI01
aI01
aI00
aI00
aI01
aI01
aI00
aI00
aI01
aI01
aI00
aI00
aI01
aa(lp185
g184
a(istate
Node
p186
(dp187
g6
S'000000001001100110011001'
p188
sg8
(istate
Node
p189
(dp190
g6
S'000001001001100110011001'
p191
sg8
(istate
Node
p192
(dp193
g6
S'000011001001100110011001'
p194
sg8
(istate
Node
p195
(dp196
g6
S'010011001001100110011001'
p197
sg8
Nsg21
(lp198
I00
aI01
aI00
aI00
aI01
aI01
aI00
aI00
aI01
aI00
aI00
aI01
aI01
aI00
aI00
aI01
aI01
aI00
aI00
aI01
aI01
aI00
aI00
aI01
asg23
I-1
sg24
I0
sg25
Nsbsg21
(lp199
I00
aI00
aI00
aI00
aI01
aI01
aI00
aI00
aI01
aI00
aI00
aI01
aI01
aI00
aI00
aI01
aI01
aI00
aI00
aI01
aI01
aI00
aI00
aI01
asg23
I1
sg24
I1
sg25
I01
sbsg21
(lp200
I00
aI00
aI00
aI00
aI00
aI01
aI00
aI00
aI01
aI00
aI00
aI01
aI01
aI00
aI00
aI01
aI01
aI00
aI00
aI01
aI01
aI00
aI00
aI01
asg23
I4
sg24
I2
sg25
I01
sbsg21
(lp201
I00
aI00
aI00
aI00
aI00
aI00
aI00
aI00
aI01
aI00
aI00
aI01
aI01
aI00
aI00
aI01
aI01
aI00
aI00
aI01
aI01
aI00
aI00
aI01
asg23
I5
sg24
I3
sg25
I01
sba(lp202
I1
aI4
aI5
aaI3
aI28
aI3
aF0.08849406242370605
aaa(lp203
(lp204
I00
aI00
aI00
aI00
aI00
aI00
aI00
aI00
aI00
aI00
aI00
aI00
aI00
aI00
aI01
aI01
aI01
aI01
aI01
aI01
aI01
aI01
aI01
aI01
aa(lp205
g204
a(istate
Node
p206
(dp207
g6
S'000000000000000110111011'
p208
sg8
(istate
Node
p209
(dp210
g6
S'000000000000000110111111'
p211
sg8
(istate
Node
p212
(dp213
g6
S'000000000000000111111111'
p214
sg8
(istate
Node
p215
(dp216
g6
S'000000000000001111111111'
p217
sg8
Nsg21
(lp218
I00
aI00
aI00
aI00
aI00
aI00
aI00
aI00
aI00
aI00
aI00
aI00
aI00
aI00
aI01
aI01
aI01
aI01
aI01
aI01
aI01
aI01
aI01
aI01
asg23
I-1
sg24
I0
sg25
Nsbsg21
(lp219
I00
aI00
aI00
aI00
aI00
aI00
aI00
aI00
aI00
aI00
aI00
aI00
aI00
aI00
aI00
aI01
aI01
aI01
aI01
aI01
aI01
aI01
aI01
aI01
asg23
I14
sg24
I1
sg25
I01
sbsg21
(lp220
I00
aI00
aI00
aI00
aI00
aI00
aI00
aI00
aI00
aI00
aI00
aI00
aI00
aI00
aI00
aI01
aI01
aI00
aI01
aI01
aI01
aI01
aI01
aI01
asg23
I17
sg24
I2
sg25
I01
sbsg21
(lp221
I00
aI00
aI00
aI00
aI00
aI00
aI00
aI00
aI00
aI00
aI00
aI00
aI00
aI00
aI00
aI01
aI01
aI00
aI01
aI01
aI01
aI00
aI01
aI01
asg23
I21
sg24
I3
sg25
I01
sba(lp222
I14
aI17
aI21
aaI10
aI46
aI443
aF1.382856845855713
aaa.