(lp0
(lp1
(lp2
I00
aI00
aI01
aI00
aI00
aI01
aI01
aI00
aI01
aI01
aI00
aI01
aI01
aI00
aI00
aI01
aI01
aI00
aI00
aI01
aI01
aI00
aI00
aI01
aa(lp3
(lp4
I00
aI00
aI01
aI00
aI00
aI01
aI01
aI00
aI01
aI01
aI00
aI01
aI01
aI00
aI00
aI01
aI01
aI00
aI00
aI01
aI01
aI00
aI00
aI01
aa(istate
Node
p5
(dp6
S'_hash_'
p7
S'000000001001100110011001'
p8
sS'depth'
p9
I4
sS'state'
p10
(lp11
I00
aI00
aI00
aI00
aI00
aI00
aI00
aI00
aI01
aI00
aI00
aI01
aI01
aI00
aI00
aI01
aI01
aI00
aI00
aI01
aI01
aI00
aI00
aI01
asS'parent'
p12
(istate
Node
p13
(dp14
g7
S'000000001101100110011001'
p15
sg9
I3
sg10
(lp16
I00
aI00
aI00
aI00
aI00
aI00
aI00
aI00
aI01
aI01
aI00
aI01
aI01
aI00
aI00
aI01
aI01
aI00
aI00
aI01
aI01
aI00
aI00
aI01
asg12
(istate
Node
p17
(dp18
g7
S'000000101101100110011001'
p19
sg9
I2
sg10
(lp20
I00
aI00
aI00
aI00
aI00
aI00
aI01
aI00
aI01
aI01
aI00
aI01
aI01
aI00
aI00
aI01
aI01
aI00
aI00
aI01
aI01
aI00
aI00
aI01
asg12
(istate
Node
p21
(dp22
g7
S'000001101101100110011001'
p23
sg9
I1
sg10
(lp24
I00
aI00
aI00
aI00
aI00
aI01
aI01
aI00
aI01
aI01
aI00
aI01
aI01
aI00
aI00
aI01
aI01
aI00
aI00
aI01
aI01
aI00
aI00
aI01
asg12
(istate
Node
p25
(dp26
g7
S'001001101101100110011001'
p27
sg9
I0
sg10
(lp28
I00
aI00
aI01
aI00
aI00
aI01
aI01
aI00
aI01
aI01
aI00
aI01
aI01
aI00
aI00
aI01
aI01
aI00
aI00
aI01
aI01
aI00
aI00
aI01
asg12
NsS'action'
p29
NsS'pos'
p30
I-1
sbsg29
I01
sg30
I2
sbsg29
I01
sg30
I5
sbsg29
I01
sg30
I6
sbsg29
I01
sg30
I9
sba(lp31
I2
aI5
aI6
aI9
aaI12
aI67
aI4096
aS'N/A'
p32
aaa(lp33
(lp34
I00
aI01
aI01
aI00
aI01
aI01
aI01
aI00
aI01
aI01
aI00
aI00
aI00
aI00
aI00
aI00
aI01
aI00
aI00
aI01
aI01
aI00
aI00
aI01
aa(lp35
(lp36
I00
aI01
aI01
aI00
aI01
aI01
aI01
aI00
aI01
aI01
aI00
aI00
aI00
aI00
aI00
aI00
aI01
aI00
aI00
aI01
aI01
aI00
aI00
aI01
aa(istate
Node
p37
(dp38
g7
S'001001100100000010011001'
p39
sg9
I3
sg10
(lp40
I00
aI00
aI01
aI00
aI00
aI01
aI01
aI00
aI00
aI01
aI00
aI00
aI00
aI00
aI00
aI00
aI01
aI00
aI00
aI01
aI01
aI00
aI00
aI01
asg12
(istate
Node
p41
(dp42
g7
S'001001101100000010011001'
p43
sg9
I2
sg10
(lp44
I00
aI00
aI01
aI00
aI00
aI01
aI01
aI00
aI01
aI01
aI00
aI00
aI00
aI00
aI00
aI00
aI01
aI00
aI00
aI01
aI01
aI00
aI00
aI01
asg12
(istate
Node
p45
(dp46
g7
S'001011101100000010011001'
p47
sg9
I1
sg10
(lp48
I00
aI00
aI01
aI00
aI01
aI01
aI01
aI00
aI01
aI01
aI00
aI00
aI00
aI00
aI00
aI00
aI01
aI00
aI00
aI01
aI01
aI00
aI00
aI01
asg12
(istate
Node
p49
(dp50
g7
S'011011101100000010011001'
p51
sg9
I0
sg10
(lp52
I00
aI01
aI01
aI00
aI01
aI01
aI01
aI00
aI01
aI01
aI00
aI00
aI00
aI00
aI00
aI00
aI01
aI00
aI00
aI01
aI01
aI00
aI00
aI01
asg12
Nsg29
Nsg30
I-1
sbsg29
I01
sg30
I1
sbsg29
I01
sg30
I4
sbsg29
I01
sg30
I8
sba(lp53
I1
aI4
aI8
aaI11
aI56
aI2048
ag32
aaa(lp54
(lp55
I00
aI00
aI01
aI00
aI00
aI01
aI01
aI00
aI00
aI01
aI00
aI00
aI01
aI01
aI00
aI01
aI01
aI00
aI01
aI01
aI00
aI00
aI01
aI00
aa(lp56
g55
a(istate
Node
p57
(dp58
g7
S'000000000100110110110010'
p59
sg12
(istate
Node
p60
(dp61
g7
S'000000100100110110110010'
p62
sg12
(istate
Node
p63
(dp64
g7
S'000001100100110110110010'
p65
sg12
(istate
Node
p66
(dp67
g7
S'001001100100110110110010'
p68
sg12
Nsg10
(lp69
I00
aI00
aI01
aI00
aI00
aI01
aI01
aI00
aI00
aI01
aI00
aI00
aI01
aI01
aI00
aI01
aI01
aI00
aI01
aI01
aI00
aI00
aI01
aI00
asg30
I-1
sg9
I0
sg29
Nsbsg10
(lp70
I00
aI00
aI00
aI00
aI00
aI01
aI01
aI00
aI00
aI01
aI00
aI00
aI01
aI01
aI00
aI01
aI01
aI00
aI01
aI01
aI00
aI00
aI01
aI00
asg30
I2
sg9
I1
sg29
I01
sbsg10
(lp71
I00
aI00
aI00
aI00
aI00
aI00
aI01
aI00
aI00
aI01
aI00
aI00
aI01
aI01
aI00
aI01
aI01
aI00
aI01
aI01
aI00
aI00
aI01
aI00
asg30
I5
sg9
I2
sg29
I01
sbsg10
(lp72
I00
aI00
aI00
aI00
aI00
aI00
aI00
aI00
aI00
aI01
aI00
aI00
aI01
aI01
aI00
aI01
aI01
aI00
aI01
aI01
aI00
aI00
aI01
aI00
asg30
I6
sg9
I3
sg29
I01
sba(lp73
I2
aI5
aI6
aaI3
aI28
aI13
aF0.2503979206085205
aaa(lp74
(lp75
I01
aI00
aI01
aI01
aI01
aI01
aI01
aI01
aI00
aI01
aI00
aI00
aI00
aI00
aI00
aI01
aI00
aI00
aI01
aI01
aI00
aI00
aI01
aI00
aa(lp76
(lp77
I01
aI00
aI01
aI01
aI01
aI01
aI01
aI01
aI00
aI01
aI00
aI00
aI00
aI00
aI00
aI01
aI00
aI00
aI01
aI01
aI00
aI00
aI01
aI00
aa(istate
Node
p78
(dp79
g7
S'001001100100000100110010'
p80
sg9
I4
sg10
(lp81
I00
aI00
aI01
aI00
aI00
aI01
aI01
aI00
aI00
aI01
aI00
aI00
aI00
aI00
aI00
aI01
aI00
aI00
aI01
aI01
aI00
aI00
aI01
aI00
asg12
(istate
Node
p82
(dp83
g7
S'001001110100000100110010'
p84
sg9
I3
sg10
(lp85
I00
aI00
aI01
aI00
aI00
aI01
aI01
aI01
aI00
aI01
aI00
aI00
aI00
aI00
aI00
aI01
aI00
aI00
aI01
aI01
aI00
aI00
aI01
aI00
asg12
(istate
Node
p86
(dp87
g7
S'001011110100000100110010'
p88
sg9
I2
sg10
(lp89
I00
aI00
aI01
aI00
aI01
aI01
aI01
aI01
aI00
aI01
aI00
aI00
aI00
aI00
aI00
aI01
aI00
aI00
aI01
aI01
aI00
aI00
aI01
aI00
asg12
(istate
Node
p90
(dp91
g7
S'001111110100000100110010'
p92
sg9
I1
sg10
(lp93
I00
aI00
aI01
aI01
aI01
aI01
aI01
aI01
aI00
aI01
aI00
aI00
aI00
aI00
aI00
aI01
aI00
aI00
aI01
aI01
aI00
aI00
aI01
aI00
asg12
(istate
Node
p94
(dp95
g7
S'101111110100000100110010'
p96
sg9
I0
sg10
(lp97
I01
aI00
aI01
aI01
aI01
aI01
aI01
aI01
aI00
aI01
aI00
aI00
aI00
aI00
aI00
aI01
aI00
aI00
aI01
aI01
aI00
aI00
aI01
aI00
asg12
Nsg29
Nsg30
I-1
sbsg29
I01
sg30
I0
sbsg29
I01
sg30
I3
sbsg29
I01
sg30
I4
sbsg29
I01
sg30
I7
sba(lp98
I0
aI3
aI4
aI7
aaI12
aI67
aI4096
ag32
aaa(lp99
(lp100
I00
aI00
aI01
aI00
aI00
aI01
aI01
aI00
aI01
aI01
aI00
aI01
aI01
aI00
aI00
aI01
aI01
aI00
aI00
aI01
aI01
aI00
aI00
aI01
aa(lp101
(lp102
I00
aI00
aI01
aI00
aI00
aI01
aI01
aI00
aI01
aI01
aI00
aI01
aI01
aI00
aI00
aI01
aI01
aI00
aI00
aI01
aI01
aI00
aI00
aI01
aa(istate
Node
p103
(dp104
g7
S'000000001001100110011001'
p105
sg9
I4
sg10
(lp106
I00
aI00
aI00
aI00
aI00
aI00
aI00
aI00
aI01
aI00
aI00
aI01
aI01
aI00
aI00
aI01
aI01
aI00
aI00
aI01
aI01
aI00
aI00
aI01
asg12
(istate
Node
p107
(dp108
g7
S'000000001101100110011001'
p109
sg9
I3
sg10
(lp110
I00
aI00
aI00
aI00
aI00
aI00
aI00
aI00
aI01
aI01
aI00
aI01
aI01
aI00
aI00
aI01
aI01
aI00
aI00
aI01
aI01
aI00
aI00
aI01
asg12
(istate
Node
p111
(dp112
g7
S'000000101101100110011001'
p113
sg9
I2
sg10
(lp114
I00
aI00
aI00
aI00
aI00
aI00
aI01
aI00
aI01
aI01
aI00
aI01
aI01
aI00
aI00
aI01
aI01
aI00
aI00
aI01
aI01
aI00
aI00
aI01
asg12
(istate
Node
p115
(dp116
g7
S'000001101101100110011001'
p117
sg9
I1
sg10
(lp118
I00
aI00
aI00
aI00
aI00
aI01
aI01
aI00
aI01
aI01
aI00
aI01
aI01
aI00
aI00
aI01
aI01
aI00
aI00
aI01
aI01
aI00
aI00
aI01
asg12
(istate
Node
p119
(dp120
g7
S'001001101101100110011001'
p121
sg9
I0
sg10
(lp122
I00
aI00
aI01
aI00
aI00
aI01
aI01
aI00
aI01
aI01
aI00
aI01
aI01
aI00
aI00
aI01
aI01
aI00
aI00
aI01
aI01
aI00
aI00
aI01
asg12
Nsg29
Nsg30
I-1
sbsg29
I01
sg30
I2
sbsg29
I01
sg30
I5
sbsg29
I01
sg30
I6
sbsg29
I01
sg30
I9
sba(lp123
I2
aI5
aI6
aI9
aaI12
aI67
aI4096
ag32
aaa(lp124
(lp125
I01
aI00
aI00
aI01
aI01
aI00
aI00
aI01
aI00
aI00
aI01
aI01
aI00
aI00
aI01
aI00
aI01
aI00
aI00
aI01
aI01
aI00
aI00
aI01
aa(lp126
g125
a(istate
Node
p127
(dp128
g7
S'000000010011001010011001'
p129
sg12
(istate
Node
p130
(dp131
g7
S'000010010011001010011001'
p132
sg12
(istate
Node
p133
(dp134
g7
S'000110010011001010011001'
p135
sg12
(istate
Node
p136
(dp137
g7
S'100110010011001010011001'
p138
sg12
Nsg10
(lp139
I01
aI00
aI00
aI01
aI01
aI00
aI00
aI01
aI00
aI00
aI01
aI01
aI00
aI00
aI01
aI00
aI01
aI00
aI00
aI01
aI01
aI00
aI00
aI01
asg30
I-1
sg9
I0
sg29
Nsbsg10
(lp140
I00
aI00
aI00
aI01
aI01
aI00
aI00
aI01
aI00
aI00
aI01
aI01
aI00
aI00
aI01
aI00
aI01
aI00
aI00
aI01
aI01
aI00
aI00
aI01
asg30
I0
sg9
I1
sg29
I01
sbsg10
(lp141
I00
aI00
aI00
aI00
aI01
aI00
aI00
aI01
aI00
aI00
aI01
aI01
aI00
aI00
aI01
aI00
aI01
aI00
aI00
aI01
aI01
aI00
aI00
aI01
asg30
I3
sg9
I2
sg29
I01
sbsg10
(lp142
I00
aI00
aI00
aI00
aI00
aI00
aI00
aI01
aI00
aI00
aI01
aI01
aI00
aI00
aI01
aI00
aI01
aI00
aI00
aI01
aI01
aI00
aI00
aI01
asg30
I4
sg9
I3
sg29
I01
sba(lp143
I0
aI3
aI4
aaI3
aI28
aI13
aF0.26271986961364746
aaa(lp144
(lp145
I00
aI01
aI00
aI00
aI01
aI01
aI00
aI01
aI01
aI00
aI01
aI01
aI00
aI00
aI01
aI01
aI00
aI00
aI01
aI01
aI00
aI00
aI01
aI00
aa(lp146
(lp147
I00
aI01
aI00
aI00
aI01
aI01
aI00
aI01
aI01
aI00
aI01
aI01
aI00
aI00
aI01
aI01
aI00
aI00
aI01
aI01
aI00
aI00
aI01
aI00
aa(istate
Node
p148
(dp149
g7
S'000000010011001100110010'
p150
sg9
I4
sg10
(lp151
I00
aI00
aI00
aI00
aI00
aI00
aI00
aI01
aI00
aI00
aI01
aI01
aI00
aI00
aI01
aI01
aI00
aI00
aI01
aI01
aI00
aI00
aI01
aI00
asg12
(istate
Node
p152
(dp153
g7
S'000000011011001100110010'
p154
sg9
I3
sg10
(lp155
I00
aI00
aI00
aI00
aI00
aI00
aI00
aI01
aI01
aI00
aI01
aI01
aI00
aI00
aI01
aI01
aI00
aI00
aI01
aI01
aI00
aI00
aI01
aI00
asg12
(istate
Node
p156
(dp157
g7
S'000001011011001100110010'
p158
sg9
I2
sg10
(lp159
I00
aI00
aI00
aI00
aI00
aI01
aI00
aI01
aI01
aI00
aI01
aI01
aI00
aI00
aI01
aI01
aI00
aI00
aI01
aI01
aI00
aI00
aI01
aI00
asg12
(istate
Node
p160
(dp161
g7
S'000011011011001100110010'
p162
sg9
I1
sg10
(lp163
I00
aI00
aI00
aI00
aI01
aI01
aI00
aI01
aI01
aI00
aI01
aI01
aI00
aI00
aI01
aI01
aI00
aI00
aI01
aI01
aI00
aI00
aI01
aI00
asg12
(istate
Node
p164
(dp165
g7
S'010011011011001100110010'
p166
sg9
I0
sg10
(lp167
I00
aI01
aI00
aI00
aI01
aI01
aI00
aI01
aI01
aI00
aI01
aI01
aI00
aI00
aI01
aI01
aI00
aI00
aI01
aI01
aI00
aI00
aI01
aI00
asg12
Nsg29
Nsg30
I-1
sbsg29
I01
sg30
I1
sbsg29
I01
sg30
I4
sbsg29
I01
sg30
I5
sbsg29
I01
sg30
I8
sba(lp168
I1
aI4
aI5
aI8
aaI12
aI67
aI4096
ag32
aaa(lp169
(lp170
I00
aI00
aI00
aI00
aI00
aI00
aI00
aI00
aI00
aI01
aI00
aI00
aI01
aI01
aI01
aI00
aI01
aI01
aI01
aI01
aI01
aI01
aI00
aI01
aa(lp171
g170
a(istate
Node
p172
(dp173
g7
S'000000000000001011111101'
p174
sg12
(istate
Node
p175
(dp176
g7
S'000000000000011011111101'
p177
sg12
(istate
Node
p178
(dp179
g7
S'000000000000111011111101'
p180
sg12
(istate
Node
p181
(dp182
g7
S'000000000100111011111101'
p183
sg12
Nsg10
(lp184
I00
aI00
aI00
aI00
aI00
aI00
aI00
aI00
aI00
aI01
aI00
aI00
aI01
aI01
aI01
aI00
aI01
aI01
aI01
aI01
aI01
aI01
aI00
aI01
asg30
I-1
sg9
I0
sg29
Nsbsg10
(lp185
I00
aI00
aI00
aI00
aI00
aI00
aI00
aI00
aI00
aI00
aI00
aI00
aI01
aI01
aI01
aI00
aI01
aI01
aI01
aI01
aI01
aI01
aI00
aI01
asg30
I9
sg9
I1
sg29
I01
sbsg10
(lp186
I00
aI00
aI00
aI00
aI00
aI00
aI00
aI00
aI00
aI00
aI00
aI00
aI00
aI01
aI01
aI00
aI01
aI01
aI01
aI01
aI01
aI01
aI00
aI01
asg30
I12
sg9
I2
sg29
I01
sbsg10
(lp187
I00
aI00
aI00
aI00
aI00
aI00
aI00
aI00
aI00
aI00
aI00
aI00
aI00
aI00
aI01
aI00
aI01
aI01
aI01
aI01
aI01
aI01
aI00
aI01
asg30
I13
sg9
I3
sg29
I01
sba(lp188
I9
aI12
aI13
aaI3
aI28
aI13
aF0.2911369800567627
aaa(lp189
(lp190
I00
aI01
aI00
aI00
aI01
aI01
aI00
aI00
aI01
aI00
aI00
aI01
aI01
aI00
aI00
aI01
aI01
aI00
aI00
aI01
aI01
aI00
aI00
aI01
aa(lp191
g190
a(istate
Node
p192
(dp193
g7
S'000000001001100110011001'
p194
sg12
(istate
Node
p195
(dp196
g7
S'000001001001100110011001'
p197
sg12
(istate
Node
p198
(dp199
g7
S'000011001001100110011001'
p200
sg12
(istate
Node
p201
(dp202
g7
S'010011001001100110011001'
p203
sg12
Nsg10
(lp204
I00
aI01
aI00
aI00
aI01
aI01
aI00
aI00
aI01
aI00
aI00
aI01
aI01
aI00
aI00
aI01
aI01
aI00
aI00
aI01
aI01
aI00
aI00
aI01
asg30
I-1
sg9
I0
sg29
Nsbsg10
(lp205
I00
aI00
aI00
aI00
aI01
aI01
aI00
aI00
aI01
aI00
aI00
aI01
aI01
aI00
aI00
aI01
aI01
aI00
aI00
aI01
aI01
aI00
aI00
aI01
asg30
I1
sg9
I1
sg29
I01
sbsg10
(lp206
I00
aI00
aI00
aI00
aI00
aI01
aI00
aI00
aI01
aI00
aI00
aI01
aI01
aI00
aI00
aI01
aI01
aI00
aI00
aI01
aI01
aI00
aI00
aI01
asg30
I4
sg9
I2
sg29
I01
sbsg10
(lp207
I00
aI00
aI00
aI00
aI00
aI00
aI00
aI00
aI01
aI00
aI00
aI01
aI01
aI00
aI00
aI01
aI01
aI00
aI00
aI01
aI01
aI00
aI00
aI01
asg30
I5
sg9
I3
sg29
I01
sba(lp208
I1
aI4
aI5
aaI3
aI28
aI13
aF0.24385499954223633
aaa(lp209
(lp210
I00
aI00
aI00
aI00
aI00
aI00
aI00
aI00
aI00
aI00
aI00
aI00
aI00
aI00
aI01
aI01
aI01
aI01
aI01
aI01
aI01
aI01
aI01
aI01
aa(lp211
(lp212
I00
aI00
aI00
aI00
aI00
aI00
aI00
aI00
aI00
aI00
aI00
aI00
aI00
aI00
aI01
aI01
aI01
aI01
aI01
aI01
aI01
aI01
aI01
aI01
aa(istate
Node
p213
(dp214
g7
S'000000000000000110111011'
p215
sg9
I3
sg10
(lp216
I00
aI00
aI00
aI00
aI00
aI00
aI00
aI00
aI00
aI00
aI00
aI00
aI00
aI00
aI00
aI01
aI01
aI00
aI01
aI01
aI01
aI00
aI01
aI01
asg12
(istate
Node
p217
(dp218
g7
S'000000000000000110111111'
p219
sg9
I2
sg10
(lp220
I00
aI00
aI00
aI00
aI00
aI00
aI00
aI00
aI00
aI00
aI00
aI00
aI00
aI00
aI00
aI01
aI01
aI00
aI01
aI01
aI01
aI01
aI01
aI01
asg12
(istate
Node
p221
(dp222
g7
S'000000000000000111111111'
p223
sg9
I1
sg10
(lp224
I00
aI00
aI00
aI00
aI00
aI00
aI00
aI00
aI00
aI00
aI00
aI00
aI00
aI00
aI00
aI01
aI01
aI01
aI01
aI01
aI01
aI01
aI01
aI01
asg12
(istate
Node
p225
(dp226
g7
S'000000000000001111111111'
p227
sg9
I0
sg10
(lp228
I00
aI00
aI00
aI00
aI00
aI00
aI00
aI00
aI00
aI00
aI00
aI00
aI00
aI00
aI01
aI01
aI01
aI01
aI01
aI01
aI01
aI01
aI01
aI01
asg12
Nsg29
Nsg30
I-1
sbsg29
I01
sg30
I14
sbsg29
I01
sg30
I17
sbsg29
I01
sg30
I21
sba(lp229
I14
aI17
aI21
aaI10
aI46
aI1024
ag32
aaa.