(lp0
(lp1
(lp2
I0
aI0
aI0
aI0
aa(lp3
I0
aI0
aI0
aI0
aa(lp4
I0
aI0
aI0
aI1
aa(lp5
I0
aI0
aI0
aI0
aaa(lp6
(lp7
I0
aI0
aI0
aI1
aa(lp8
I0
aI0
aI0
aI0
aa(lp9
I0
aI0
aI0
aI0
aa(lp10
I0
aI0
aI0
aI0
aaa(lp11
(lp12
I0
aI0
aI0
aI0
aa(lp13
I0
aI0
aI0
aI0
aa(lp14
I1
aI0
aI0
aI0
aa(lp15
I0
aI0
aI0
aI0
aaa(lp16
(lp17
I0
aI0
aI0
aI0
aa(lp18
I0
aI0
aI0
aI1
aa(lp19
I0
aI0
aI0
aI0
aa(lp20
I0
aI0
aI0
aI0
aaa(lp21
(lp22
I3
aI3
aI3
aI0
aa(lp23
I3
aI3
aI3
aI0
aa(lp24
I3
aI3
aI3
aI0
aa(lp25
I0
aI0
aI0
aI0
aaa(lp26
(lp27
I0
aI0
aI0
aI0
aa(lp28
I0
aI0
aI0
aI0
aa(lp29
I0
aI1
aI0
aI0
aa(lp30
I0
aI0
aI0
aI0
aaa(lp31
(lp32
I0
aI0
aI0
aI0
aa(lp33
I0
aI0
aI0
aI0
aa(lp34
I0
aI0
aI1
aI0
aa(lp35
I0
aI0
aI0
aI0
aaa(lp36
(lp37
I0
aI0
aI0
aI0
aa(lp38
I0
aI0
aI0
aI0
aa(lp39
I0
aI0
aI0
aI0
aa(lp40
I0
aI0
aI1
aI0
aaa(lp41
(lp42
I0
aI0
aI0
aI0
aa(lp43
I0
aI0
aI0
aI0
aa(lp44
I0
aI0
aI0
aI0
aa(lp45
I0
aI1
aI0
aI0
aaa(lp46
(lp47
I0
aI0
aI0
aI0
aa(lp48
I0
aI0
aI1
aI0
aa(lp49
I0
aI0
aI0
aI0
aa(lp50
I0
aI0
aI0
aI0
aaa(lp51
(lp52
I4
aI4
aI4
aI4
aa(lp53
I4
aI4
aI4
aI4
aa(lp54
I4
aI4
aI4
aI4
aa(lp55
I4
aI4
aI4
aI4
aaa(lp56
(lp57
I0
aI0
aI0
aI0
aa(lp58
I0
aI0
aI0
aI0
aa(lp59
I0
aI0
aI2
aI2
aa(lp60
I0
aI0
aI2
aI2
aaa(lp61
(lp62
I2
aI2
aI0
aI0
aa(lp63
I2
aI2
aI0
aI0
aa(lp64
I0
aI0
aI0
aI0
aa(lp65
I0
aI0
aI0
aI0
aaa(lp66
(lp67
I0
aI0
aI0
aI0
aa(lp68
I0
aI0
aI0
aI0
aa(lp69
I0
aI0
aI0
aI0
aa(lp70
I1
aI0
aI0
aI0
aaa(lp71
(lp72
I0
aI0
aI0
aI0
aa(lp73
I1
aI0
aI0
aI0
aa(lp74
I0
aI0
aI0
aI0
aa(lp75
I0
aI0
aI0
aI0
aaa(lp76
(lp77
I0
aI1
aI0
aI0
aa(lp78
I0
aI0
aI0
aI0
aa(lp79
I0
aI0
aI0
aI0
aa(lp80
I0
aI0
aI0
aI0
aaa(lp81
(lp82
I0
aI0
aI0
aI0
aa(lp83
I0
aI1
aI0
aI0
aa(lp84
I0
aI0
aI0
aI0
aa(lp85
I0
aI0
aI0
aI0
aaa(lp86
(lp87
I0
aI0
aI1
aI0
aa(lp88
I0
aI0
aI0
aI0
aa(lp89
I0
aI0
aI0
aI0
aa(lp90
I0
aI0
aI0
aI0
aaa(lp91
(lp92
I0
aI0
aI2
aI2
aa(lp93
I0
aI0
aI2
aI2
aa(lp94
I0
aI0
aI0
aI0
aa(lp95
I0
aI0
aI0
aI0
aaa(lp96
(lp97
I0
aI0
aI0
aI0
aa(lp98
I0
aI3
aI3
aI3
aa(lp99
I0
aI3
aI3
aI3
aa(lp100
I0
aI3
aI3
aI3
aaa(lp101
(lp102
I0
aI0
aI0
aI0
aa(lp103
I0
aI0
aI0
aI0
aa(lp104
I0
aI2
aI2
aI0
aa(lp105
I0
aI2
aI2
aI0
aaa(lp106
(lp107
I0
aI0
aI0
aI0
aa(lp108
I0
aI0
aI0
aI0
aa(lp109
I0
aI0
aI0
aI0
aa(lp110
I0
aI0
aI0
aI1
aaa(lp111
(lp112
I0
aI3
aI3
aI3
aa(lp113
I0
aI3
aI3
aI3
aa(lp114
I0
aI3
aI3
aI3
aa(lp115
I0
aI0
aI0
aI0
aaa(lp116
(lp117
I0
aI2
aI2
aI0
aa(lp118
I0
aI2
aI2
aI0
aa(lp119
I0
aI0
aI0
aI0
aa(lp120
I0
aI0
aI0
aI0
aaa(lp121
(lp122
I0
aI0
aI0
aI0
aa(lp123
I0
aI0
aI2
aI2
aa(lp124
I0
aI0
aI2
aI2
aa(lp125
I0
aI0
aI0
aI0
aaa(lp126
(lp127
I0
aI0
aI0
aI0
aa(lp128
I2
aI2
aI0
aI0
aa(lp129
I2
aI2
aI0
aI0
aa(lp130
I0
aI0
aI0
aI0
aaa(lp131
(lp132
I0
aI0
aI0
aI0
aa(lp133
I0
aI2
aI2
aI0
aa(lp134
I0
aI2
aI2
aI0
aa(lp135
I0
aI0
aI0
aI0
aaa(lp136
(lp137
I0
aI0
aI0
aI0
aa(lp138
I0
aI0
aI0
aI0
aa(lp139
I2
aI2
aI0
aI0
aa(lp140
I2
aI2
aI0
aI0
aaa(lp141
(lp142
I0
aI0
aI0
aI0
aa(lp143
I3
aI3
aI3
aI0
aa(lp144
I3
aI3
aI3
aI0
aa(lp145
I3
aI3
aI3
aI0
aaa(lp146
(lp147
I1
aI0
aI0
aI0
aa(lp148
I0
aI0
aI0
aI0
aa(lp149
I0
aI0
aI0
aI0
aa(lp150
I0
aI0
aI0
aI0
aaa.