(lp0
(lp1
(lp2
I01
aI00
aI00
aI01
aI01
aI01
aI00
aI01
aI01
aI01
aI00
aI00
aI01
aI00
aI00
aI00
aI00
aI00
aI01
aI00
aI00
aI00
aI01
aI01
aI00
aI00
aI00
aI01
aI00
aI00
aI00
aI00
aI00
aI00
aI00
aI00
aI00
aI00
aI00
aI00
aa(lp3
(lp4
I01
aI00
aI00
aI01
aI01
aI01
aI00
aI01
aI01
aI01
aI00
aI00
aI01
aI00
aI00
aI00
aI00
aI00
aI01
aI00
aI00
aI00
aI01
aI01
aI00
aI00
aI00
aI01
aI00
aI00
aI00
aI00
aI00
aI00
aI00
aI00
aI00
aI00
aI00
aI00
aa(istate
Node
p5
(dp6
S'_hash_'
p7
S'0001000110001000001000110001000000000000'
p8
sS'depth'
p9
I4
sS'state'
p10
(lp11
I00
aI00
aI00
aI01
aI00
aI00
aI00
aI01
aI01
aI00
aI00
aI00
aI01
aI00
aI00
aI00
aI00
aI00
aI01
aI00
aI00
aI00
aI01
aI01
aI00
aI00
aI00
aI01
aI00
aI00
aI00
aI00
aI00
aI00
aI00
aI00
aI00
aI00
aI00
aI00
asS'parent'
p12
(istate
Node
p13
(dp14
g7
S'0001000111001000001000110001000000000000'
p15
sg9
I3
sg10
(lp16
I00
aI00
aI00
aI01
aI00
aI00
aI00
aI01
aI01
aI01
aI00
aI00
aI01
aI00
aI00
aI00
aI00
aI00
aI01
aI00
aI00
aI00
aI01
aI01
aI00
aI00
aI00
aI01
aI00
aI00
aI00
aI00
aI00
aI00
aI00
aI00
aI00
aI00
aI00
aI00
asg12
(istate
Node
p17
(dp18
g7
S'0001010111001000001000110001000000000000'
p19
sg9
I2
sg10
(lp20
I00
aI00
aI00
aI01
aI00
aI01
aI00
aI01
aI01
aI01
aI00
aI00
aI01
aI00
aI00
aI00
aI00
aI00
aI01
aI00
aI00
aI00
aI01
aI01
aI00
aI00
aI00
aI01
aI00
aI00
aI00
aI00
aI00
aI00
aI00
aI00
aI00
aI00
aI00
aI00
asg12
(istate
Node
p21
(dp22
g7
S'0001110111001000001000110001000000000000'
p23
sg9
I1
sg10
(lp24
I00
aI00
aI00
aI01
aI01
aI01
aI00
aI01
aI01
aI01
aI00
aI00
aI01
aI00
aI00
aI00
aI00
aI00
aI01
aI00
aI00
aI00
aI01
aI01
aI00
aI00
aI00
aI01
aI00
aI00
aI00
aI00
aI00
aI00
aI00
aI00
aI00
aI00
aI00
aI00
asg12
(istate
Node
p25
(dp26
g7
S'1001110111001000001000110001000000000000'
p27
sg9
I0
sg10
(lp28
I01
aI00
aI00
aI01
aI01
aI01
aI00
aI01
aI01
aI01
aI00
aI00
aI01
aI00
aI00
aI00
aI00
aI00
aI01
aI00
aI00
aI00
aI01
aI01
aI00
aI00
aI00
aI01
aI00
aI00
aI00
aI00
aI00
aI00
aI00
aI00
aI00
aI00
aI00
aI00
asg12
NsS'action'
p29
NsS'pos'
p30
I-1
sbsg29
I01
sg30
I0
sbsg29
I01
sg30
I4
sbsg29
I01
sg30
I5
sbsg29
I01
sg30
I9
sba(lp31
I0
aI4
aI5
aI9
aaI12
aI67
aI4096
aS'N/A'
p32
aaa(lp33
(lp34
I01
aI00
aI00
aI00
aI01
aI01
aI00
aI00
aI00
aI01
aI00
aI00
aI00
aI00
aI00
aI00
aI00
aI00
aI00
aI00
aI00
aI01
aI00
aI00
aI00
aI01
aI01
aI00
aI01
aI00
aI01
aI00
aI01
aI01
aI00
aI00
aI00
aI01
aI00
aI00
aa(lp35
g34
a(istate
Node
p36
(dp37
g7
S'0000000000000000000001000110101011000100'
p38
sg12
(istate
Node
p39
(dp40
g7
S'0000000001000000000001000110101011000100'
p41
sg12
(istate
Node
p42
(dp43
g7
S'0000010001000000000001000110101011000100'
p44
sg12
(istate
Node
p45
(dp46
g7
S'0000110001000000000001000110101011000100'
p47
sg12
(istate
Node
p48
(dp49
g7
S'1000110001000000000001000110101011000100'
p50
sg12
Nsg10
(lp51
I01
aI00
aI00
aI00
aI01
aI01
aI00
aI00
aI00
aI01
aI00
aI00
aI00
aI00
aI00
aI00
aI00
aI00
aI00
aI00
aI00
aI01
aI00
aI00
aI00
aI01
aI01
aI00
aI01
aI00
aI01
aI00
aI01
aI01
aI00
aI00
aI00
aI01
aI00
aI00
asg30
I-1
sg9
I0
sg29
Nsbsg10
(lp52
I00
aI00
aI00
aI00
aI01
aI01
aI00
aI00
aI00
aI01
aI00
aI00
aI00
aI00
aI00
aI00
aI00
aI00
aI00
aI00
aI00
aI01
aI00
aI00
aI00
aI01
aI01
aI00
aI01
aI00
aI01
aI00
aI01
aI01
aI00
aI00
aI00
aI01
aI00
aI00
asg30
I0
sg9
I1
sg29
I01
sbsg10
(lp53
I00
aI00
aI00
aI00
aI00
aI01
aI00
aI00
aI00
aI01
aI00
aI00
aI00
aI00
aI00
aI00
aI00
aI00
aI00
aI00
aI00
aI01
aI00
aI00
aI00
aI01
aI01
aI00
aI01
aI00
aI01
aI00
aI01
aI01
aI00
aI00
aI00
aI01
aI00
aI00
asg30
I4
sg9
I2
sg29
I01
sbsg10
(lp54
I00
aI00
aI00
aI00
aI00
aI00
aI00
aI00
aI00
aI01
aI00
aI00
aI00
aI00
aI00
aI00
aI00
aI00
aI00
aI00
aI00
aI01
aI00
aI00
aI00
aI01
aI01
aI00
aI01
aI00
aI01
aI00
aI01
aI01
aI00
aI00
aI00
aI01
aI00
aI00
asg30
I5
sg9
I3
sg29
I01
sbsg10
(lp55
I00
aI00
aI00
aI00
aI00
aI00
aI00
aI00
aI00
aI00
aI00
aI00
aI00
aI00
aI00
aI00
aI00
aI00
aI00
aI00
aI00
aI01
aI00
aI00
aI00
aI01
aI01
aI00
aI01
aI00
aI01
aI00
aI01
aI01
aI00
aI00
aI00
aI01
aI00
aI00
asg30
I9
sg9
I4
sg29
I01
sba(lp56
I0
aI4
aI5
aI9
aaI4
aI39
aI93
aF0.2568480968475342
aaa(lp57
(lp58
I00
aI00
aI00
aI00
aI00
aI00
aI00
aI00
aI00
aI00
aI00
aI01
aI00
aI00
aI00
aI01
aI01
aI00
aI00
aI00
aI01
aI01
aI00
aI00
aI00
aI01
aI01
aI01
aI00
aI00
aI01
aI01
aI01
aI00
aI00
aI00
aI01
aI00
aI00
aI00
aa(lp59
g58
a(istate
Node
p60
(dp61
g7
S'0000000000000000000001000111001110001000'
p62
sg12
(istate
Node
p63
(dp64
g7
S'0000000000000000000011000111001110001000'
p65
sg12
(istate
Node
p66
(dp67
g7
S'0000000000000000100011000111001110001000'
p68
sg12
(istate
Node
p69
(dp70
g7
S'0000000000000001100011000111001110001000'
p71
sg12
(istate
Node
p72
(dp73
g7
S'0000000000010001100011000111001110001000'
p74
sg12
Nsg10
(lp75
I00
aI00
aI00
aI00
aI00
aI00
aI00
aI00
aI00
aI00
aI00
aI01
aI00
aI00
aI00
aI01
aI01
aI00
aI00
aI00
aI01
aI01
aI00
aI00
aI00
aI01
aI01
aI01
aI00
aI00
aI01
aI01
aI01
aI00
aI00
aI00
aI01
aI00
aI00
aI00
asg30
I-1
sg9
I0
sg29
Nsbsg10
(lp76
I00
aI00
aI00
aI00
aI00
aI00
aI00
aI00
aI00
aI00
aI00
aI00
aI00
aI00
aI00
aI01
aI01
aI00
aI00
aI00
aI01
aI01
aI00
aI00
aI00
aI01
aI01
aI01
aI00
aI00
aI01
aI01
aI01
aI00
aI00
aI00
aI01
aI00
aI00
aI00
asg30
I11
sg9
I1
sg29
I01
sbsg10
(lp77
I00
aI00
aI00
aI00
aI00
aI00
aI00
aI00
aI00
aI00
aI00
aI00
aI00
aI00
aI00
aI00
aI01
aI00
aI00
aI00
aI01
aI01
aI00
aI00
aI00
aI01
aI01
aI01
aI00
aI00
aI01
aI01
aI01
aI00
aI00
aI00
aI01
aI00
aI00
aI00
asg30
I15
sg9
I2
sg29
I01
sbsg10
(lp78
I00
aI00
aI00
aI00
aI00
aI00
aI00
aI00
aI00
aI00
aI00
aI00
aI00
aI00
aI00
aI00
aI00
aI00
aI00
aI00
aI01
aI01
aI00
aI00
aI00
aI01
aI01
aI01
aI00
aI00
aI01
aI01
aI01
aI00
aI00
aI00
aI01
aI00
aI00
aI00
asg30
I16
sg9
I3
sg29
I01
sbsg10
(lp79
I00
aI00
aI00
aI00
aI00
aI00
aI00
aI00
aI00
aI00
aI00
aI00
aI00
aI00
aI00
aI00
aI00
aI00
aI00
aI00
aI00
aI01
aI00
aI00
aI00
aI01
aI01
aI01
aI00
aI00
aI01
aI01
aI01
aI00
aI00
aI00
aI01
aI00
aI00
aI00
asg30
I20
sg9
I4
sg29
I01
sba(lp80
I11
aI15
aI16
aI20
aaI4
aI39
aI93
aF0.2487490177154541
aaa(lp81
(lp82
I00
aI01
aI00
aI00
aI00
aI01
aI01
aI00
aI00
aI00
aI01
aI00
aI01
aI00
aI00
aI00
aI01
aI01
aI00
aI00
aI00
aI01
aI00
aI00
aI00
aI00
aI00
aI01
aI00
aI00
aI00
aI01
aI01
aI00
aI00
aI00
aI01
aI00
aI00
aI00
aa(lp83
g82
a(istate
Node
p84
(dp85
g7
S'0000000000001000110001000001000110001000'
p86
sg12
(istate
Node
p87
(dp88
g7
S'0000000000101000110001000001000110001000'
p89
sg12
(istate
Node
p90
(dp91
g7
S'0000001000101000110001000001000110001000'
p92
sg12
(istate
Node
p93
(dp94
g7
S'0000011000101000110001000001000110001000'
p95
sg12
(istate
Node
p96
(dp97
g7
S'0100011000101000110001000001000110001000'
p98
sg12
Nsg10
(lp99
I00
aI01
aI00
aI00
aI00
aI01
aI01
aI00
aI00
aI00
aI01
aI00
aI01
aI00
aI00
aI00
aI01
aI01
aI00
aI00
aI00
aI01
aI00
aI00
aI00
aI00
aI00
aI01
aI00
aI00
aI00
aI01
aI01
aI00
aI00
aI00
aI01
aI00
aI00
aI00
asg30
I-1
sg9
I0
sg29
Nsbsg10
(lp100
I00
aI00
aI00
aI00
aI00
aI01
aI01
aI00
aI00
aI00
aI01
aI00
aI01
aI00
aI00
aI00
aI01
aI01
aI00
aI00
aI00
aI01
aI00
aI00
aI00
aI00
aI00
aI01
aI00
aI00
aI00
aI01
aI01
aI00
aI00
aI00
aI01
aI00
aI00
aI00
asg30
I1
sg9
I1
sg29
I01
sbsg10
(lp101
I00
aI00
aI00
aI00
aI00
aI00
aI01
aI00
aI00
aI00
aI01
aI00
aI01
aI00
aI00
aI00
aI01
aI01
aI00
aI00
aI00
aI01
aI00
aI00
aI00
aI00
aI00
aI01
aI00
aI00
aI00
aI01
aI01
aI00
aI00
aI00
aI01
aI00
aI00
aI00
asg30
I5
sg9
I2
sg29
I01
sbsg10
(lp102
I00
aI00
aI00
aI00
aI00
aI00
aI00
aI00
aI00
aI00
aI01
aI00
aI01
aI00
aI00
aI00
aI01
aI01
aI00
aI00
aI00
aI01
aI00
aI00
aI00
aI00
aI00
aI01
aI00
aI00
aI00
aI01
aI01
aI00
aI00
aI00
aI01
aI00
aI00
aI00
asg30
I6
sg9
I3
sg29
I01
sbsg10
(lp103
I00
aI00
aI00
aI00
aI00
aI00
aI00
aI00
aI00
aI00
aI00
aI00
aI01
aI00
aI00
aI00
aI01
aI01
aI00
aI00
aI00
aI01
aI00
aI00
aI00
aI00
aI00
aI01
aI00
aI00
aI00
aI01
aI01
aI00
aI00
aI00
aI01
aI00
aI00
aI00
asg30
I10
sg9
I4
sg29
I01
sba(lp104
I1
aI5
aI6
aI10
aaI4
aI39
aI93
aF0.2871119976043701
aaa(lp105
(lp106
I00
aI00
aI00
aI01
aI00
aI00
aI00
aI01
aI01
aI00
aI00
aI00
aI01
aI00
aI00
aI00
aI00
aI00
aI00
aI00
aI00
aI00
aI00
aI00
aI00
aI00
aI00
aI00
aI01
aI01
aI00
aI00
aI01
aI01
aI01
aI00
aI00
aI01
aI01
aI00
aa(lp107
g106
a(istate
Node
p108
(dp109
g7
S'0001000110001000000000000000010001100010'
p110
sg12
(istate
Node
p111
(dp112
g7
S'0001000110001000000000000000010001100110'
p113
sg12
(istate
Node
p114
(dp115
g7
S'0001000110001000000000000000010011100110'
p116
sg12
(istate
Node
p117
(dp118
g7
S'0001000110001000000000000000110011100110'
p119
sg12
Nsg10
(lp120
I00
aI00
aI00
aI01
aI00
aI00
aI00
aI01
aI01
aI00
aI00
aI00
aI01
aI00
aI00
aI00
aI00
aI00
aI00
aI00
aI00
aI00
aI00
aI00
aI00
aI00
aI00
aI00
aI01
aI01
aI00
aI00
aI01
aI01
aI01
aI00
aI00
aI01
aI01
aI00
asg30
I-1
sg9
I0
sg29
Nsbsg10
(lp121
I00
aI00
aI00
aI01
aI00
aI00
aI00
aI01
aI01
aI00
aI00
aI00
aI01
aI00
aI00
aI00
aI00
aI00
aI00
aI00
aI00
aI00
aI00
aI00
aI00
aI00
aI00
aI00
aI00
aI01
aI00
aI00
aI01
aI01
aI01
aI00
aI00
aI01
aI01
aI00
asg30
I28
sg9
I1
sg29
I01
sbsg10
(lp122
I00
aI00
aI00
aI01
aI00
aI00
aI00
aI01
aI01
aI00
aI00
aI00
aI01
aI00
aI00
aI00
aI00
aI00
aI00
aI00
aI00
aI00
aI00
aI00
aI00
aI00
aI00
aI00
aI00
aI01
aI00
aI00
aI00
aI01
aI01
aI00
aI00
aI01
aI01
aI00
asg30
I32
sg9
I2
sg29
I01
sbsg10
(lp123
I00
aI00
aI00
aI01
aI00
aI00
aI00
aI01
aI01
aI00
aI00
aI00
aI01
aI00
aI00
aI00
aI00
aI00
aI00
aI00
aI00
aI00
aI00
aI00
aI00
aI00
aI00
aI00
aI00
aI01
aI00
aI00
aI00
aI01
aI01
aI00
aI00
aI00
aI01
aI00
asg30
I37
sg9
I3
sg29
I01
sba(lp124
I28
aI32
aI37
aaI3
aI28
aI13
aF0.15419793128967285
aaa(lp125
(lp126
I00
aI00
aI00
aI00
aI00
aI00
aI00
aI00
aI00
aI00
aI01
aI00
aI01
aI00
aI01
aI01
aI01
aI01
aI00
aI01
aI00
aI01
aI00
aI00
aI00
aI00
aI00
aI00
aI01
aI00
aI00
aI00
aI01
aI01
aI00
aI00
aI00
aI01
aI00
aI00
aa(lp127
(lp128
I00
aI00
aI00
aI00
aI00
aI00
aI00
aI00
aI00
aI00
aI01
aI00
aI01
aI00
aI01
aI01
aI01
aI01
aI00
aI01
aI00
aI01
aI00
aI00
aI00
aI00
aI00
aI00
aI01
aI00
aI00
aI00
aI01
aI01
aI00
aI00
aI00
aI01
aI00
aI00
aa(istate
Node
p129
(dp130
g7
S'0000000000001000110001000000100011000100'
p131
sg9
I4
sg10
(lp132
I00
aI00
aI00
aI00
aI00
aI00
aI00
aI00
aI00
aI00
aI00
aI00
aI01
aI00
aI00
aI00
aI01
aI01
aI00
aI00
aI00
aI01
aI00
aI00
aI00
aI00
aI00
aI00
aI01
aI00
aI00
aI00
aI01
aI01
aI00
aI00
aI00
aI01
aI00
aI00
asg12
(istate
Node
p133
(dp134
g7
S'0000000000001000110101000000100011000100'
p135
sg9
I3
sg10
(lp136
I00
aI00
aI00
aI00
aI00
aI00
aI00
aI00
aI00
aI00
aI00
aI00
aI01
aI00
aI00
aI00
aI01
aI01
aI00
aI01
aI00
aI01
aI00
aI00
aI00
aI00
aI00
aI00
aI01
aI00
aI00
aI00
aI01
aI01
aI00
aI00
aI00
aI01
aI00
aI00
asg12
(istate
Node
p137
(dp138
g7
S'0000000000001001110101000000100011000100'
p139
sg9
I2
sg10
(lp140
I00
aI00
aI00
aI00
aI00
aI00
aI00
aI00
aI00
aI00
aI00
aI00
aI01
aI00
aI00
aI01
aI01
aI01
aI00
aI01
aI00
aI01
aI00
aI00
aI00
aI00
aI00
aI00
aI01
aI00
aI00
aI00
aI01
aI01
aI00
aI00
aI00
aI01
aI00
aI00
asg12
(istate
Node
p141
(dp142
g7
S'0000000000001011110101000000100011000100'
p143
sg9
I1
sg10
(lp144
I00
aI00
aI00
aI00
aI00
aI00
aI00
aI00
aI00
aI00
aI00
aI00
aI01
aI00
aI01
aI01
aI01
aI01
aI00
aI01
aI00
aI01
aI00
aI00
aI00
aI00
aI00
aI00
aI01
aI00
aI00
aI00
aI01
aI01
aI00
aI00
aI00
aI01
aI00
aI00
asg12
(istate
Node
p145
(dp146
g7
S'0000000000101011110101000000100011000100'
p147
sg9
I0
sg10
(lp148
I00
aI00
aI00
aI00
aI00
aI00
aI00
aI00
aI00
aI00
aI01
aI00
aI01
aI00
aI01
aI01
aI01
aI01
aI00
aI01
aI00
aI01
aI00
aI00
aI00
aI00
aI00
aI00
aI01
aI00
aI00
aI00
aI01
aI01
aI00
aI00
aI00
aI01
aI00
aI00
asg12
Nsg29
Nsg30
I-1
sbsg29
I01
sg30
I10
sbsg29
I01
sg30
I14
sbsg29
I01
sg30
I15
sbsg29
I01
sg30
I19
sba(lp149
I10
aI14
aI15
aI19
aaI12
aI67
aI4096
ag32
aaa(lp150
(lp151
I00
aI00
aI01
aI00
aI00
aI00
aI01
aI01
aI00
aI00
aI00
aI01
aI00
aI00
aI00
aI00
aI00
aI00
aI00
aI00
aI00
aI00
aI00
aI00
aI00
aI00
aI00
aI00
aI01
aI00
aI01
aI00
aI01
aI01
aI01
aI01
aI00
aI01
aI00
aI01
aa(lp152
g151
a(istate
Node
p153
(dp154
g7
S'0000000000000000000000000000101011110101'
p155
sg12
(istate
Node
p156
(dp157
g7
S'0000000000010000000000000000101011110101'
p158
sg12
(istate
Node
p159
(dp160
g7
S'0000000100010000000000000000101011110101'
p161
sg12
(istate
Node
p162
(dp163
g7
S'0000001100010000000000000000101011110101'
p164
sg12
(istate
Node
p165
(dp166
g7
S'0010001100010000000000000000101011110101'
p167
sg12
Nsg10
(lp168
I00
aI00
aI01
aI00
aI00
aI00
aI01
aI01
aI00
aI00
aI00
aI01
aI00
aI00
aI00
aI00
aI00
aI00
aI00
aI00
aI00
aI00
aI00
aI00
aI00
aI00
aI00
aI00
aI01
aI00
aI01
aI00
aI01
aI01
aI01
aI01
aI00
aI01
aI00
aI01
asg30
I-1
sg9
I0
sg29
Nsbsg10
(lp169
I00
aI00
aI00
aI00
aI00
aI00
aI01
aI01
aI00
aI00
aI00
aI01
aI00
aI00
aI00
aI00
aI00
aI00
aI00
aI00
aI00
aI00
aI00
aI00
aI00
aI00
aI00
aI00
aI01
aI00
aI01
aI00
aI01
aI01
aI01
aI01
aI00
aI01
aI00
aI01
asg30
I2
sg9
I1
sg29
I01
sbsg10
(lp170
I00
aI00
aI00
aI00
aI00
aI00
aI00
aI01
aI00
aI00
aI00
aI01
aI00
aI00
aI00
aI00
aI00
aI00
aI00
aI00
aI00
aI00
aI00
aI00
aI00
aI00
aI00
aI00
aI01
aI00
aI01
aI00
aI01
aI01
aI01
aI01
aI00
aI01
aI00
aI01
asg30
I6
sg9
I2
sg29
I01
sbsg10
(lp171
I00
aI00
aI00
aI00
aI00
aI00
aI00
aI00
aI00
aI00
aI00
aI01
aI00
aI00
aI00
aI00
aI00
aI00
aI00
aI00
aI00
aI00
aI00
aI00
aI00
aI00
aI00
aI00
aI01
aI00
aI01
aI00
aI01
aI01
aI01
aI01
aI00
aI01
aI00
aI01
asg30
I7
sg9
I3
sg29
I01
sbsg10
(lp172
I00
aI00
aI00
aI00
aI00
aI00
aI00
aI00
aI00
aI00
aI00
aI00
aI00
aI00
aI00
aI00
aI00
aI00
aI00
aI00
aI00
aI00
aI00
aI00
aI00
aI00
aI00
aI00
aI01
aI00
aI01
aI00
aI01
aI01
aI01
aI01
aI00
aI01
aI00
aI01
asg30
I11
sg9
I4
sg29
I01
sba(lp173
I2
aI6
aI7
aI11
aaI4
aI39
aI93
aF0.24781489372253418
aaa(lp174
(lp175
I01
aI00
aI00
aI00
aI01
aI01
aI00
aI00
aI00
aI01
aI00
aI00
aI00
aI00
aI00
aI00
aI00
aI00
aI01
aI01
aI00
aI00
aI01
aI01
aI01
aI00
aI00
aI01
aI01
aI00
aI00
aI00
aI00
aI00
aI00
aI00
aI00
aI00
aI00
aI00
aa(lp176
g175
a(istate
Node
p177
(dp178
g7
S'1000110001000000000100011000100000000000'
p179
sg12
(istate
Node
p180
(dp181
g7
S'1000110001000000000100011001100000000000'
p182
sg12
(istate
Node
p183
(dp184
g7
S'1000110001000000000100111001100000000000'
p185
sg12
(istate
Node
p186
(dp187
g7
S'1000110001000000001100111001100000000000'
p188
sg12
Nsg10
(lp189
I01
aI00
aI00
aI00
aI01
aI01
aI00
aI00
aI00
aI01
aI00
aI00
aI00
aI00
aI00
aI00
aI00
aI00
aI01
aI01
aI00
aI00
aI01
aI01
aI01
aI00
aI00
aI01
aI01
aI00
aI00
aI00
aI00
aI00
aI00
aI00
aI00
aI00
aI00
aI00
asg30
I-1
sg9
I0
sg29
Nsbsg10
(lp190
I01
aI00
aI00
aI00
aI01
aI01
aI00
aI00
aI00
aI01
aI00
aI00
aI00
aI00
aI00
aI00
aI00
aI00
aI00
aI01
aI00
aI00
aI01
aI01
aI01
aI00
aI00
aI01
aI01
aI00
aI00
aI00
aI00
aI00
aI00
aI00
aI00
aI00
aI00
aI00
asg30
I18
sg9
I1
sg29
I01
sbsg10
(lp191
I01
aI00
aI00
aI00
aI01
aI01
aI00
aI00
aI00
aI01
aI00
aI00
aI00
aI00
aI00
aI00
aI00
aI00
aI00
aI01
aI00
aI00
aI00
aI01
aI01
aI00
aI00
aI01
aI01
aI00
aI00
aI00
aI00
aI00
aI00
aI00
aI00
aI00
aI00
aI00
asg30
I22
sg9
I2
sg29
I01
sbsg10
(lp192
I01
aI00
aI00
aI00
aI01
aI01
aI00
aI00
aI00
aI01
aI00
aI00
aI00
aI00
aI00
aI00
aI00
aI00
aI00
aI01
aI00
aI00
aI00
aI01
aI01
aI00
aI00
aI00
aI01
aI00
aI00
aI00
aI00
aI00
aI00
aI00
aI00
aI00
aI00
aI00
asg30
I27
sg9
I3
sg29
I01
sba(lp193
I18
aI22
aI27
aaI3
aI28
aI13
aF0.20160317420959473
aaa(lp194
(lp195
I00
aI00
aI00
aI00
aI00
aI00
aI00
aI00
aI00
aI00
aI00
aI01
aI00
aI00
aI00
aI01
aI01
aI00
aI00
aI00
aI01
aI00
aI00
aI00
aI00
aI00
aI00
aI01
aI00
aI00
aI01
aI01
aI01
aI00
aI01
aI01
aI01
aI00
aI00
aI01
aa(lp196
g195
a(istate
Node
p197
(dp198
g7
S'0000000000000000000000000001001110111001'
p199
sg12
(istate
Node
p200
(dp201
g7
S'0000000000000000000010000001001110111001'
p202
sg12
(istate
Node
p203
(dp204
g7
S'0000000000000000100010000001001110111001'
p205
sg12
(istate
Node
p206
(dp207
g7
S'0000000000000001100010000001001110111001'
p208
sg12
(istate
Node
p209
(dp210
g7
S'0000000000010001100010000001001110111001'
p211
sg12
Nsg10
(lp212
I00
aI00
aI00
aI00
aI00
aI00
aI00
aI00
aI00
aI00
aI00
aI01
aI00
aI00
aI00
aI01
aI01
aI00
aI00
aI00
aI01
aI00
aI00
aI00
aI00
aI00
aI00
aI01
aI00
aI00
aI01
aI01
aI01
aI00
aI01
aI01
aI01
aI00
aI00
aI01
asg30
I-1
sg9
I0
sg29
Nsbsg10
(lp213
I00
aI00
aI00
aI00
aI00
aI00
aI00
aI00
aI00
aI00
aI00
aI00
aI00
aI00
aI00
aI01
aI01
aI00
aI00
aI00
aI01
aI00
aI00
aI00
aI00
aI00
aI00
aI01
aI00
aI00
aI01
aI01
aI01
aI00
aI01
aI01
aI01
aI00
aI00
aI01
asg30
I11
sg9
I1
sg29
I01
sbsg10
(lp214
I00
aI00
aI00
aI00
aI00
aI00
aI00
aI00
aI00
aI00
aI00
aI00
aI00
aI00
aI00
aI00
aI01
aI00
aI00
aI00
aI01
aI00
aI00
aI00
aI00
aI00
aI00
aI01
aI00
aI00
aI01
aI01
aI01
aI00
aI01
aI01
aI01
aI00
aI00
aI01
asg30
I15
sg9
I2
sg29
I01
sbsg10
(lp215
I00
aI00
aI00
aI00
aI00
aI00
aI00
aI00
aI00
aI00
aI00
aI00
aI00
aI00
aI00
aI00
aI00
aI00
aI00
aI00
aI01
aI00
aI00
aI00
aI00
aI00
aI00
aI01
aI00
aI00
aI01
aI01
aI01
aI00
aI01
aI01
aI01
aI00
aI00
aI01
asg30
I16
sg9
I3
sg29
I01
sbsg10
(lp216
I00
aI00
aI00
aI00
aI00
aI00
aI00
aI00
aI00
aI00
aI00
aI00
aI00
aI00
aI00
aI00
aI00
aI00
aI00
aI00
aI00
aI00
aI00
aI00
aI00
aI00
aI00
aI01
aI00
aI00
aI01
aI01
aI01
aI00
aI01
aI01
aI01
aI00
aI00
aI01
asg30
I20
sg9
I4
sg29
I01
sba(lp217
I11
aI15
aI16
aI20
aaI4
aI39
aI93
aF0.23490405082702637
aaa(lp218
(lp219
I00
aI00
aI00
aI00
aI00
aI00
aI00
aI00
aI00
aI00
aI00
aI00
aI01
aI00
aI00
aI00
aI01
aI01
aI00
aI00
aI00
aI01
aI00
aI00
aI00
aI01
aI01
aI00
aI01
aI00
aI01
aI00
aI01
aI01
aI00
aI00
aI00
aI01
aI00
aI00
aa(lp220
g219
a(istate
Node
p221
(dp222
g7
S'0000000000000000000001000110101011000100'
p223
sg12
(istate
Node
p224
(dp225
g7
S'0000000000000000010001000110101011000100'
p226
sg12
(istate
Node
p227
(dp228
g7
S'0000000000000000110001000110101011000100'
p229
sg12
(istate
Node
p230
(dp231
g7
S'0000000000001000110001000110101011000100'
p232
sg12
Nsg10
(lp233
I00
aI00
aI00
aI00
aI00
aI00
aI00
aI00
aI00
aI00
aI00
aI00
aI01
aI00
aI00
aI00
aI01
aI01
aI00
aI00
aI00
aI01
aI00
aI00
aI00
aI01
aI01
aI00
aI01
aI00
aI01
aI00
aI01
aI01
aI00
aI00
aI00
aI01
aI00
aI00
asg30
I-1
sg9
I0
sg29
Nsbsg10
(lp234
I00
aI00
aI00
aI00
aI00
aI00
aI00
aI00
aI00
aI00
aI00
aI00
aI00
aI00
aI00
aI00
aI01
aI01
aI00
aI00
aI00
aI01
aI00
aI00
aI00
aI01
aI01
aI00
aI01
aI00
aI01
aI00
aI01
aI01
aI00
aI00
aI00
aI01
aI00
aI00
asg30
I12
sg9
I1
sg29
I01
sbsg10
(lp235
I00
aI00
aI00
aI00
aI00
aI00
aI00
aI00
aI00
aI00
aI00
aI00
aI00
aI00
aI00
aI00
aI00
aI01
aI00
aI00
aI00
aI01
aI00
aI00
aI00
aI01
aI01
aI00
aI01
aI00
aI01
aI00
aI01
aI01
aI00
aI00
aI00
aI01
aI00
aI00
asg30
I16
sg9
I2
sg29
I01
sbsg10
(lp236
I00
aI00
aI00
aI00
aI00
aI00
aI00
aI00
aI00
aI00
aI00
aI00
aI00
aI00
aI00
aI00
aI00
aI00
aI00
aI00
aI00
aI01
aI00
aI00
aI00
aI01
aI01
aI00
aI01
aI00
aI01
aI00
aI01
aI01
aI00
aI00
aI00
aI01
aI00
aI00
asg30
I17
sg9
I3
sg29
I01
sba(lp237
I12
aI16
aI17
aaI3
aI28
aI13
aF0.0702219009399414
aaa.