(lp0
(lp1
(lp2
I00
aI00
aI00
aI01
aI00
aI00
aI00
aI01
aI01
aI00
aI00
aI00
aI01
aI00
aI00
aI00
aI01
aI01
aI00
aI00
aI00
aI01
aI00
aI00
aI00
aI00
aI00
aI00
aI00
aI01
aI00
aI00
aI00
aI01
aI01
aI00
aI00
aI00
aI01
aI00
aa(lp3
g2
a(istate
Node
p4
(dp5
S'_hash_'
p6
S'0000000000000000000000000000010001100010'
p7
sS'parent'
p8
(istate
Node
p9
(dp10
g6
S'0000000000000000000001000000010001100010'
p11
sg8
(istate
Node
p12
(dp13
g6
S'0000000000000000010001000000010001100010'
p14
sg8
(istate
Node
p15
(dp16
g6
S'0000000000000000110001000000010001100010'
p17
sg8
(istate
Node
p18
(dp19
g6
S'0000000000001000110001000000010001100010'
p20
sg8
(istate
Node
p21
(dp22
g6
S'0000000010001000110001000000010001100010'
p23
sg8
(istate
Node
p24
(dp25
g6
S'0000000110001000110001000000010001100010'
p26
sg8
(istate
Node
p27
(dp28
g6
S'0001000110001000110001000000010001100010'
p29
sg8
NsS'state'
p30
(lp31
I00
aI00
aI00
aI01
aI00
aI00
aI00
aI01
aI01
aI00
aI00
aI00
aI01
aI00
aI00
aI00
aI01
aI01
aI00
aI00
aI00
aI01
aI00
aI00
aI00
aI00
aI00
aI00
aI00
aI01
aI00
aI00
aI00
aI01
aI01
aI00
aI00
aI00
aI01
aI00
asS'pos'
p32
I-1
sS'depth'
p33
I0
sS'action'
p34
Nsbsg30
(lp35
I00
aI00
aI00
aI00
aI00
aI00
aI00
aI01
aI01
aI00
aI00
aI00
aI01
aI00
aI00
aI00
aI01
aI01
aI00
aI00
aI00
aI01
aI00
aI00
aI00
aI00
aI00
aI00
aI00
aI01
aI00
aI00
aI00
aI01
aI01
aI00
aI00
aI00
aI01
aI00
asg32
I3
sg33
I1
sg34
I01
sbsg30
(lp36
I00
aI00
aI00
aI00
aI00
aI00
aI00
aI00
aI01
aI00
aI00
aI00
aI01
aI00
aI00
aI00
aI01
aI01
aI00
aI00
aI00
aI01
aI00
aI00
aI00
aI00
aI00
aI00
aI00
aI01
aI00
aI00
aI00
aI01
aI01
aI00
aI00
aI00
aI01
aI00
asg32
I7
sg33
I2
sg34
I01
sbsg30
(lp37
I00
aI00
aI00
aI00
aI00
aI00
aI00
aI00
aI00
aI00
aI00
aI00
aI01
aI00
aI00
aI00
aI01
aI01
aI00
aI00
aI00
aI01
aI00
aI00
aI00
aI00
aI00
aI00
aI00
aI01
aI00
aI00
aI00
aI01
aI01
aI00
aI00
aI00
aI01
aI00
asg32
I8
sg33
I3
sg34
I01
sbsg30
(lp38
I00
aI00
aI00
aI00
aI00
aI00
aI00
aI00
aI00
aI00
aI00
aI00
aI00
aI00
aI00
aI00
aI01
aI01
aI00
aI00
aI00
aI01
aI00
aI00
aI00
aI00
aI00
aI00
aI00
aI01
aI00
aI00
aI00
aI01
aI01
aI00
aI00
aI00
aI01
aI00
asg32
I12
sg33
I4
sg34
I01
sbsg30
(lp39
I00
aI00
aI00
aI00
aI00
aI00
aI00
aI00
aI00
aI00
aI00
aI00
aI00
aI00
aI00
aI00
aI00
aI01
aI00
aI00
aI00
aI01
aI00
aI00
aI00
aI00
aI00
aI00
aI00
aI01
aI00
aI00
aI00
aI01
aI01
aI00
aI00
aI00
aI01
aI00
asg32
I16
sg33
I5
sg34
I01
sbsg30
(lp40
I00
aI00
aI00
aI00
aI00
aI00
aI00
aI00
aI00
aI00
aI00
aI00
aI00
aI00
aI00
aI00
aI00
aI00
aI00
aI00
aI00
aI01
aI00
aI00
aI00
aI00
aI00
aI00
aI00
aI01
aI00
aI00
aI00
aI01
aI01
aI00
aI00
aI00
aI01
aI00
asg32
I17
sg33
I6
sg34
I01
sbsg30
(lp41
I00
aI00
aI00
aI00
aI00
aI00
aI00
aI00
aI00
aI00
aI00
aI00
aI00
aI00
aI00
aI00
aI00
aI00
aI00
aI00
aI00
aI00
aI00
aI00
aI00
aI00
aI00
aI00
aI00
aI01
aI00
aI00
aI00
aI01
aI01
aI00
aI00
aI00
aI01
aI00
asg32
I21
sg33
I7
sg34
I01
sba(lp42
I3
aI7
aI8
aI12
aI16
aI17
aI21
aaI7
aI50
aI7
aF0.035221099853515625
aaa(lp43
(lp44
I00
aI01
aI00
aI00
aI00
aI01
aI01
aI00
aI00
aI01
aI01
aI00
aI00
aI01
aI01
aI00
aI00
aI00
aI01
aI00
aI01
aI00
aI00
aI00
aI01
aI01
aI00
aI00
aI00
aI01
aI00
aI00
aI00
aI00
aI00
aI00
aI00
aI00
aI00
aI00
aa(lp45
g44
a(istate
Node
p46
(dp47
g6
S'0000000000000000000010001100010000000000'
p48
sg8
(istate
Node
p49
(dp50
g6
S'0000000000000000001010001100010000000000'
p51
sg8
(istate
Node
p52
(dp53
g6
S'0000000000000010001010001100010000000000'
p54
sg8
(istate
Node
p55
(dp56
g6
S'0000000000000110001010001100010000000000'
p57
sg8
(istate
Node
p58
(dp59
g6
S'0000000000100110001010001100010000000000'
p60
sg8
(istate
Node
p61
(dp62
g6
S'0000000001100110001010001100010000000000'
p63
sg8
(istate
Node
p64
(dp65
g6
S'0000001001100110001010001100010000000000'
p66
sg8
(istate
Node
p67
(dp68
g6
S'0000011001100110001010001100010000000000'
p69
sg8
(istate
Node
p70
(dp71
g6
S'0100011001100110001010001100010000000000'
p72
sg8
Nsg30
(lp73
I00
aI01
aI00
aI00
aI00
aI01
aI01
aI00
aI00
aI01
aI01
aI00
aI00
aI01
aI01
aI00
aI00
aI00
aI01
aI00
aI01
aI00
aI00
aI00
aI01
aI01
aI00
aI00
aI00
aI01
aI00
aI00
aI00
aI00
aI00
aI00
aI00
aI00
aI00
aI00
asg32
I-1
sg33
I0
sg34
Nsbsg30
(lp74
I00
aI00
aI00
aI00
aI00
aI01
aI01
aI00
aI00
aI01
aI01
aI00
aI00
aI01
aI01
aI00
aI00
aI00
aI01
aI00
aI01
aI00
aI00
aI00
aI01
aI01
aI00
aI00
aI00
aI01
aI00
aI00
aI00
aI00
aI00
aI00
aI00
aI00
aI00
aI00
asg32
I1
sg33
I1
sg34
I01
sbsg30
(lp75
I00
aI00
aI00
aI00
aI00
aI00
aI01
aI00
aI00
aI01
aI01
aI00
aI00
aI01
aI01
aI00
aI00
aI00
aI01
aI00
aI01
aI00
aI00
aI00
aI01
aI01
aI00
aI00
aI00
aI01
aI00
aI00
aI00
aI00
aI00
aI00
aI00
aI00
aI00
aI00
asg32
I5
sg33
I2
sg34
I01
sbsg30
(lp76
I00
aI00
aI00
aI00
aI00
aI00
aI00
aI00
aI00
aI01
aI01
aI00
aI00
aI01
aI01
aI00
aI00
aI00
aI01
aI00
aI01
aI00
aI00
aI00
aI01
aI01
aI00
aI00
aI00
aI01
aI00
aI00
aI00
aI00
aI00
aI00
aI00
aI00
aI00
aI00
asg32
I6
sg33
I3
sg34
I01
sbsg30
(lp77
I00
aI00
aI00
aI00
aI00
aI00
aI00
aI00
aI00
aI00
aI01
aI00
aI00
aI01
aI01
aI00
aI00
aI00
aI01
aI00
aI01
aI00
aI00
aI00
aI01
aI01
aI00
aI00
aI00
aI01
aI00
aI00
aI00
aI00
aI00
aI00
aI00
aI00
aI00
aI00
asg32
I9
sg33
I4
sg34
I01
sbsg30
(lp78
I00
aI00
aI00
aI00
aI00
aI00
aI00
aI00
aI00
aI00
aI00
aI00
aI00
aI01
aI01
aI00
aI00
aI00
aI01
aI00
aI01
aI00
aI00
aI00
aI01
aI01
aI00
aI00
aI00
aI01
aI00
aI00
aI00
aI00
aI00
aI00
aI00
aI00
aI00
aI00
asg32
I10
sg33
I5
sg34
I01
sbsg30
(lp79
I00
aI00
aI00
aI00
aI00
aI00
aI00
aI00
aI00
aI00
aI00
aI00
aI00
aI00
aI01
aI00
aI00
aI00
aI01
aI00
aI01
aI00
aI00
aI00
aI01
aI01
aI00
aI00
aI00
aI01
aI00
aI00
aI00
aI00
aI00
aI00
aI00
aI00
aI00
aI00
asg32
I13
sg33
I6
sg34
I01
sbsg30
(lp80
I00
aI00
aI00
aI00
aI00
aI00
aI00
aI00
aI00
aI00
aI00
aI00
aI00
aI00
aI00
aI00
aI00
aI00
aI01
aI00
aI01
aI00
aI00
aI00
aI01
aI01
aI00
aI00
aI00
aI01
aI00
aI00
aI00
aI00
aI00
aI00
aI00
aI00
aI00
aI00
asg32
I14
sg33
I7
sg34
I01
sbsg30
(lp81
I00
aI00
aI00
aI00
aI00
aI00
aI00
aI00
aI00
aI00
aI00
aI00
aI00
aI00
aI00
aI00
aI00
aI00
aI00
aI00
aI01
aI00
aI00
aI00
aI01
aI01
aI00
aI00
aI00
aI01
aI00
aI00
aI00
aI00
aI00
aI00
aI00
aI00
aI00
aI00
asg32
I18
sg33
I8
sg34
I01
sba(lp82
I1
aI5
aI6
aI9
aI10
aI13
aI14
aI18
aaI8
aI61
aI8
aF0.04985404014587402
aaa(lp83
(lp84
I00
aI00
aI00
aI00
aI00
aI00
aI00
aI00
aI00
aI00
aI01
aI00
aI00
aI00
aI01
aI01
aI00
aI00
aI00
aI01
aI00
aI01
aI00
aI00
aI00
aI01
aI01
aI00
aI00
aI01
aI01
aI00
aI00
aI01
aI01
aI00
aI00
aI00
aI01
aI00
aa(lp85
g84
a(istate
Node
p86
(dp87
g6
S'0000000000000000000000000000010001100010'
p88
sg8
(istate
Node
p89
(dp90
g6
S'0000000000000000000000000000011001100010'
p91
sg8
(istate
Node
p92
(dp93
g6
S'0000000000000000000000000010011001100010'
p94
sg8
(istate
Node
p95
(dp96
g6
S'0000000000000000000000000110011001100010'
p97
sg8
(istate
Node
p98
(dp99
g6
S'0000000000000000000001000110011001100010'
p100
sg8
(istate
Node
p101
(dp102
g6
S'0000000000000000000101000110011001100010'
p103
sg8
(istate
Node
p104
(dp105
g6
S'0000000000000001000101000110011001100010'
p106
sg8
(istate
Node
p107
(dp108
g6
S'0000000000000011000101000110011001100010'
p109
sg8
(istate
Node
p110
(dp111
g6
S'0000000000100011000101000110011001100010'
p112
sg8
Nsg30
(lp113
I00
aI00
aI00
aI00
aI00
aI00
aI00
aI00
aI00
aI00
aI01
aI00
aI00
aI00
aI01
aI01
aI00
aI00
aI00
aI01
aI00
aI01
aI00
aI00
aI00
aI01
aI01
aI00
aI00
aI01
aI01
aI00
aI00
aI01
aI01
aI00
aI00
aI00
aI01
aI00
asg32
I-1
sg33
I0
sg34
Nsbsg30
(lp114
I00
aI00
aI00
aI00
aI00
aI00
aI00
aI00
aI00
aI00
aI00
aI00
aI00
aI00
aI01
aI01
aI00
aI00
aI00
aI01
aI00
aI01
aI00
aI00
aI00
aI01
aI01
aI00
aI00
aI01
aI01
aI00
aI00
aI01
aI01
aI00
aI00
aI00
aI01
aI00
asg32
I10
sg33
I1
sg34
I01
sbsg30
(lp115
I00
aI00
aI00
aI00
aI00
aI00
aI00
aI00
aI00
aI00
aI00
aI00
aI00
aI00
aI00
aI01
aI00
aI00
aI00
aI01
aI00
aI01
aI00
aI00
aI00
aI01
aI01
aI00
aI00
aI01
aI01
aI00
aI00
aI01
aI01
aI00
aI00
aI00
aI01
aI00
asg32
I14
sg33
I2
sg34
I01
sbsg30
(lp116
I00
aI00
aI00
aI00
aI00
aI00
aI00
aI00
aI00
aI00
aI00
aI00
aI00
aI00
aI00
aI00
aI00
aI00
aI00
aI01
aI00
aI01
aI00
aI00
aI00
aI01
aI01
aI00
aI00
aI01
aI01
aI00
aI00
aI01
aI01
aI00
aI00
aI00
aI01
aI00
asg32
I15
sg33
I3
sg34
I01
sbsg30
(lp117
I00
aI00
aI00
aI00
aI00
aI00
aI00
aI00
aI00
aI00
aI00
aI00
aI00
aI00
aI00
aI00
aI00
aI00
aI00
aI00
aI00
aI01
aI00
aI00
aI00
aI01
aI01
aI00
aI00
aI01
aI01
aI00
aI00
aI01
aI01
aI00
aI00
aI00
aI01
aI00
asg32
I19
sg33
I4
sg34
I01
sbsg30
(lp118
I00
aI00
aI00
aI00
aI00
aI00
aI00
aI00
aI00
aI00
aI00
aI00
aI00
aI00
aI00
aI00
aI00
aI00
aI00
aI00
aI00
aI00
aI00
aI00
aI00
aI01
aI01
aI00
aI00
aI01
aI01
aI00
aI00
aI01
aI01
aI00
aI00
aI00
aI01
aI00
asg32
I21
sg33
I5
sg34
I01
sbsg30
(lp119
I00
aI00
aI00
aI00
aI00
aI00
aI00
aI00
aI00
aI00
aI00
aI00
aI00
aI00
aI00
aI00
aI00
aI00
aI00
aI00
aI00
aI00
aI00
aI00
aI00
aI00
aI01
aI00
aI00
aI01
aI01
aI00
aI00
aI01
aI01
aI00
aI00
aI00
aI01
aI00
asg32
I25
sg33
I6
sg34
I01
sbsg30
(lp120
I00
aI00
aI00
aI00
aI00
aI00
aI00
aI00
aI00
aI00
aI00
aI00
aI00
aI00
aI00
aI00
aI00
aI00
aI00
aI00
aI00
aI00
aI00
aI00
aI00
aI00
aI00
aI00
aI00
aI01
aI01
aI00
aI00
aI01
aI01
aI00
aI00
aI00
aI01
aI00
asg32
I26
sg33
I7
sg34
I01
sbsg30
(lp121
I00
aI00
aI00
aI00
aI00
aI00
aI00
aI00
aI00
aI00
aI00
aI00
aI00
aI00
aI00
aI00
aI00
aI00
aI00
aI00
aI00
aI00
aI00
aI00
aI00
aI00
aI00
aI00
aI00
aI01
aI00
aI00
aI00
aI01
aI01
aI00
aI00
aI00
aI01
aI00
asg32
I30
sg33
I8
sg34
I01
sba(lp122
I10
aI14
aI15
aI19
aI21
aI25
aI26
aI30
aaI12
aI67
aI24
aF0.04767894744873047
aaa(lp123
(lp124
I01
aI01
aI00
aI00
aI01
aI01
aI01
aI00
aI00
aI01
aI01
aI00
aI00
aI00
aI00
aI00
aI00
aI00
aI00
aI00
aI00
aI00
aI00
aI00
aI00
aI00
aI00
aI00
aI00
aI01
aI00
aI00
aI00
aI01
aI01
aI00
aI00
aI00
aI01
aI00
aa(lp125
g124
a(istate
Node
p126
(dp127
g6
S'0000000000000000000000000000010001100010'
p128
sg8
(istate
Node
p129
(dp130
g6
S'0000000000100000000000000000010001100010'
p131
sg8
(istate
Node
p132
(dp133
g6
S'0000000001100000000000000000010001100010'
p134
sg8
(istate
Node
p135
(dp136
g6
S'0000001001100000000000000000010001100010'
p137
sg8
(istate
Node
p138
(dp139
g6
S'0000011001100000000000000000010001100010'
p140
sg8
(istate
Node
p141
(dp142
g6
S'0000111001100000000000000000010001100010'
p143
sg8
(istate
Node
p144
(dp145
g6
S'0100111001100000000000000000010001100010'
p146
sg8
(istate
Node
p147
(dp148
g6
S'1100111001100000000000000000010001100010'
p149
sg8
Nsg30
(lp150
I01
aI01
aI00
aI00
aI01
aI01
aI01
aI00
aI00
aI01
aI01
aI00
aI00
aI00
aI00
aI00
aI00
aI00
aI00
aI00
aI00
aI00
aI00
aI00
aI00
aI00
aI00
aI00
aI00
aI01
aI00
aI00
aI00
aI01
aI01
aI00
aI00
aI00
aI01
aI00
asg32
I-1
sg33
I0
sg34
Nsbsg30
(lp151
I00
aI01
aI00
aI00
aI01
aI01
aI01
aI00
aI00
aI01
aI01
aI00
aI00
aI00
aI00
aI00
aI00
aI00
aI00
aI00
aI00
aI00
aI00
aI00
aI00
aI00
aI00
aI00
aI00
aI01
aI00
aI00
aI00
aI01
aI01
aI00
aI00
aI00
aI01
aI00
asg32
I0
sg33
I1
sg34
I01
sbsg30
(lp152
I00
aI00
aI00
aI00
aI01
aI01
aI01
aI00
aI00
aI01
aI01
aI00
aI00
aI00
aI00
aI00
aI00
aI00
aI00
aI00
aI00
aI00
aI00
aI00
aI00
aI00
aI00
aI00
aI00
aI01
aI00
aI00
aI00
aI01
aI01
aI00
aI00
aI00
aI01
aI00
asg32
I1
sg33
I2
sg34
I01
sbsg30
(lp153
I00
aI00
aI00
aI00
aI00
aI01
aI01
aI00
aI00
aI01
aI01
aI00
aI00
aI00
aI00
aI00
aI00
aI00
aI00
aI00
aI00
aI00
aI00
aI00
aI00
aI00
aI00
aI00
aI00
aI01
aI00
aI00
aI00
aI01
aI01
aI00
aI00
aI00
aI01
aI00
asg32
I4
sg33
I3
sg34
I01
sbsg30
(lp154
I00
aI00
aI00
aI00
aI00
aI00
aI01
aI00
aI00
aI01
aI01
aI00
aI00
aI00
aI00
aI00
aI00
aI00
aI00
aI00
aI00
aI00
aI00
aI00
aI00
aI00
aI00
aI00
aI00
aI01
aI00
aI00
aI00
aI01
aI01
aI00
aI00
aI00
aI01
aI00
asg32
I5
sg33
I4
sg34
I01
sbsg30
(lp155
I00
aI00
aI00
aI00
aI00
aI00
aI00
aI00
aI00
aI01
aI01
aI00
aI00
aI00
aI00
aI00
aI00
aI00
aI00
aI00
aI00
aI00
aI00
aI00
aI00
aI00
aI00
aI00
aI00
aI01
aI00
aI00
aI00
aI01
aI01
aI00
aI00
aI00
aI01
aI00
asg32
I6
sg33
I5
sg34
I01
sbsg30
(lp156
I00
aI00
aI00
aI00
aI00
aI00
aI00
aI00
aI00
aI00
aI01
aI00
aI00
aI00
aI00
aI00
aI00
aI00
aI00
aI00
aI00
aI00
aI00
aI00
aI00
aI00
aI00
aI00
aI00
aI01
aI00
aI00
aI00
aI01
aI01
aI00
aI00
aI00
aI01
aI00
asg32
I9
sg33
I6
sg34
I01
sbsg30
(lp157
I00
aI00
aI00
aI00
aI00
aI00
aI00
aI00
aI00
aI00
aI00
aI00
aI00
aI00
aI00
aI00
aI00
aI00
aI00
aI00
aI00
aI00
aI00
aI00
aI00
aI00
aI00
aI00
aI00
aI01
aI00
aI00
aI00
aI01
aI01
aI00
aI00
aI00
aI01
aI00
asg32
I10
sg33
I7
sg34
I01
sba(lp158
I0
aI1
aI4
aI5
aI6
aI9
aI10
aaI7
aI50
aI7
aF0.04722094535827637
aaa(lp159
(lp160
I00
aI00
aI01
aI00
aI00
aI00
aI01
aI01
aI00
aI00
aI00
aI01
aI00
aI00
aI00
aI01
aI01
aI00
aI00
aI00
aI01
aI00
aI00
aI00
aI00
aI00
aI00
aI00
aI00
aI00
aI01
aI00
aI00
aI00
aI01
aI01
aI00
aI00
aI00
aI01
aa(lp161
g160
a(istate
Node
p162
(dp163
g6
S'0000000000000000000000000000001000110001'
p164
sg8
(istate
Node
p165
(dp166
g6
S'0000000000000000000010000000001000110001'
p167
sg8
(istate
Node
p168
(dp169
g6
S'0000000000000000100010000000001000110001'
p170
sg8
(istate
Node
p171
(dp172
g6
S'0000000000000001100010000000001000110001'
p173
sg8
(istate
Node
p174
(dp175
g6
S'0000000000010001100010000000001000110001'
p176
sg8
(istate
Node
p177
(dp178
g6
S'0000000100010001100010000000001000110001'
p179
sg8
(istate
Node
p180
(dp181
g6
S'0000001100010001100010000000001000110001'
p182
sg8
(istate
Node
p183
(dp184
g6
S'0010001100010001100010000000001000110001'
p185
sg8
Nsg30
(lp186
I00
aI00
aI01
aI00
aI00
aI00
aI01
aI01
aI00
aI00
aI00
aI01
aI00
aI00
aI00
aI01
aI01
aI00
aI00
aI00
aI01
aI00
aI00
aI00
aI00
aI00
aI00
aI00
aI00
aI00
aI01
aI00
aI00
aI00
aI01
aI01
aI00
aI00
aI00
aI01
asg32
I-1
sg33
I0
sg34
Nsbsg30
(lp187
I00
aI00
aI00
aI00
aI00
aI00
aI01
aI01
aI00
aI00
aI00
aI01
aI00
aI00
aI00
aI01
aI01
aI00
aI00
aI00
aI01
aI00
aI00
aI00
aI00
aI00
aI00
aI00
aI00
aI00
aI01
aI00
aI00
aI00
aI01
aI01
aI00
aI00
aI00
aI01
asg32
I2
sg33
I1
sg34
I01
sbsg30
(lp188
I00
aI00
aI00
aI00
aI00
aI00
aI00
aI01
aI00
aI00
aI00
aI01
aI00
aI00
aI00
aI01
aI01
aI00
aI00
aI00
aI01
aI00
aI00
aI00
aI00
aI00
aI00
aI00
aI00
aI00
aI01
aI00
aI00
aI00
aI01
aI01
aI00
aI00
aI00
aI01
asg32
I6
sg33
I2
sg34
I01
sbsg30
(lp189
I00
aI00
aI00
aI00
aI00
aI00
aI00
aI00
aI00
aI00
aI00
aI01
aI00
aI00
aI00
aI01
aI01
aI00
aI00
aI00
aI01
aI00
aI00
aI00
aI00
aI00
aI00
aI00
aI00
aI00
aI01
aI00
aI00
aI00
aI01
aI01
aI00
aI00
aI00
aI01
asg32
I7
sg33
I3
sg34
I01
sbsg30
(lp190
I00
aI00
aI00
aI00
aI00
aI00
aI00
aI00
aI00
aI00
aI00
aI00
aI00
aI00
aI00
aI01
aI01
aI00
aI00
aI00
aI01
aI00
aI00
aI00
aI00
aI00
aI00
aI00
aI00
aI00
aI01
aI00
aI00
aI00
aI01
aI01
aI00
aI00
aI00
aI01
asg32
I11
sg33
I4
sg34
I01
sbsg30
(lp191
I00
aI00
aI00
aI00
aI00
aI00
aI00
aI00
aI00
aI00
aI00
aI00
aI00
aI00
aI00
aI00
aI01
aI00
aI00
aI00
aI01
aI00
aI00
aI00
aI00
aI00
aI00
aI00
aI00
aI00
aI01
aI00
aI00
aI00
aI01
aI01
aI00
aI00
aI00
aI01
asg32
I15
sg33
I5
sg34
I01
sbsg30
(lp192
I00
aI00
aI00
aI00
aI00
aI00
aI00
aI00
aI00
aI00
aI00
aI00
aI00
aI00
aI00
aI00
aI00
aI00
aI00
aI00
aI01
aI00
aI00
aI00
aI00
aI00
aI00
aI00
aI00
aI00
aI01
aI00
aI00
aI00
aI01
aI01
aI00
aI00
aI00
aI01
asg32
I16
sg33
I6
sg34
I01
sbsg30
(lp193
I00
aI00
aI00
aI00
aI00
aI00
aI00
aI00
aI00
aI00
aI00
aI00
aI00
aI00
aI00
aI00
aI00
aI00
aI00
aI00
aI00
aI00
aI00
aI00
aI00
aI00
aI00
aI00
aI00
aI00
aI01
aI00
aI00
aI00
aI01
aI01
aI00
aI00
aI00
aI01
asg32
I20
sg33
I7
sg34
I01
sba(lp194
I2
aI6
aI7
aI11
aI15
aI16
aI20
aaI7
aI50
aI7
aF0.037760019302368164
aaa(lp195
(lp196
I00
aI00
aI00
aI01
aI00
aI00
aI00
aI01
aI01
aI00
aI00
aI01
aI01
aI00
aI00
aI01
aI01
aI00
aI00
aI00
aI01
aI00
aI00
aI00
aI00
aI00
aI00
aI00
aI00
aI00
aI01
aI00
aI00
aI00
aI01
aI01
aI00
aI00
aI00
aI01
aa(lp197
g196
a(istate
Node
p198
(dp199
g6
S'0000000000000000000000000000001000110001'
p200
sg8
(istate
Node
p201
(dp202
g6
S'0000000000000000000010000000001000110001'
p203
sg8
(istate
Node
p204
(dp205
g6
S'0000000000000000100010000000001000110001'
p206
sg8
(istate
Node
p207
(dp208
g6
S'0000000000000001100010000000001000110001'
p209
sg8
(istate
Node
p210
(dp211
g6
S'0000000000001001100010000000001000110001'
p212
sg8
(istate
Node
p213
(dp214
g6
S'0000000000011001100010000000001000110001'
p215
sg8
(istate
Node
p216
(dp217
g6
S'0000000010011001100010000000001000110001'
p218
sg8
(istate
Node
p219
(dp220
g6
S'0000000110011001100010000000001000110001'
p221
sg8
(istate
Node
p222
(dp223
g6
S'0001000110011001100010000000001000110001'
p224
sg8
Nsg30
(lp225
I00
aI00
aI00
aI01
aI00
aI00
aI00
aI01
aI01
aI00
aI00
aI01
aI01
aI00
aI00
aI01
aI01
aI00
aI00
aI00
aI01
aI00
aI00
aI00
aI00
aI00
aI00
aI00
aI00
aI00
aI01
aI00
aI00
aI00
aI01
aI01
aI00
aI00
aI00
aI01
asg32
I-1
sg33
I0
sg34
Nsbsg30
(lp226
I00
aI00
aI00
aI00
aI00
aI00
aI00
aI01
aI01
aI00
aI00
aI01
aI01
aI00
aI00
aI01
aI01
aI00
aI00
aI00
aI01
aI00
aI00
aI00
aI00
aI00
aI00
aI00
aI00
aI00
aI01
aI00
aI00
aI00
aI01
aI01
aI00
aI00
aI00
aI01
asg32
I3
sg33
I1
sg34
I01
sbsg30
(lp227
I00
aI00
aI00
aI00
aI00
aI00
aI00
aI00
aI01
aI00
aI00
aI01
aI01
aI00
aI00
aI01
aI01
aI00
aI00
aI00
aI01
aI00
aI00
aI00
aI00
aI00
aI00
aI00
aI00
aI00
aI01
aI00
aI00
aI00
aI01
aI01
aI00
aI00
aI00
aI01
asg32
I7
sg33
I2
sg34
I01
sbsg30
(lp228
I00
aI00
aI00
aI00
aI00
aI00
aI00
aI00
aI00
aI00
aI00
aI01
aI01
aI00
aI00
aI01
aI01
aI00
aI00
aI00
aI01
aI00
aI00
aI00
aI00
aI00
aI00
aI00
aI00
aI00
aI01
aI00
aI00
aI00
aI01
aI01
aI00
aI00
aI00
aI01
asg32
I8
sg33
I3
sg34
I01
sbsg30
(lp229
I00
aI00
aI00
aI00
aI00
aI00
aI00
aI00
aI00
aI00
aI00
aI00
aI01
aI00
aI00
aI01
aI01
aI00
aI00
aI00
aI01
aI00
aI00
aI00
aI00
aI00
aI00
aI00
aI00
aI00
aI01
aI00
aI00
aI00
aI01
aI01
aI00
aI00
aI00
aI01
asg32
I11
sg33
I4
sg34
I01
sbsg30
(lp230
I00
aI00
aI00
aI00
aI00
aI00
aI00
aI00
aI00
aI00
aI00
aI00
aI00
aI00
aI00
aI01
aI01
aI00
aI00
aI00
aI01
aI00
aI00
aI00
aI00
aI00
aI00
aI00
aI00
aI00
aI01
aI00
aI00
aI00
aI01
aI01
aI00
aI00
aI00
aI01
asg32
I12
sg33
I5
sg34
I01
sbsg30
(lp231
I00
aI00
aI00
aI00
aI00
aI00
aI00
aI00
aI00
aI00
aI00
aI00
aI00
aI00
aI00
aI00
aI01
aI00
aI00
aI00
aI01
aI00
aI00
aI00
aI00
aI00
aI00
aI00
aI00
aI00
aI01
aI00
aI00
aI00
aI01
aI01
aI00
aI00
aI00
aI01
asg32
I15
sg33
I6
sg34
I01
sbsg30
(lp232
I00
aI00
aI00
aI00
aI00
aI00
aI00
aI00
aI00
aI00
aI00
aI00
aI00
aI00
aI00
aI00
aI00
aI00
aI00
aI00
aI01
aI00
aI00
aI00
aI00
aI00
aI00
aI00
aI00
aI00
aI01
aI00
aI00
aI00
aI01
aI01
aI00
aI00
aI00
aI01
asg32
I16
sg33
I7
sg34
I01
sbsg30
(lp233
I00
aI00
aI00
aI00
aI00
aI00
aI00
aI00
aI00
aI00
aI00
aI00
aI00
aI00
aI00
aI00
aI00
aI00
aI00
aI00
aI00
aI00
aI00
aI00
aI00
aI00
aI00
aI00
aI00
aI00
aI01
aI00
aI00
aI00
aI01
aI01
aI00
aI00
aI00
aI01
asg32
I20
sg33
I8
sg34
I01
sba(lp234
I3
aI7
aI8
aI11
aI12
aI15
aI16
aI20
aaI8
aI61
aI8
aF0.04468512535095215
aaa(lp235
(lp236
I00
aI01
aI01
aI00
aI00
aI01
aI01
aI01
aI00
aI00
aI01
aI01
aI00
aI00
aI00
aI00
aI00
aI00
aI01
aI00
aI00
aI00
aI01
aI01
aI00
aI00
aI00
aI01
aI00
aI00
aI00
aI00
aI00
aI00
aI00
aI00
aI00
aI00
aI00
aI00
aa(lp237
g236
a(istate
Node
p238
(dp239
g6
S'0000000000000000001000110001000000000000'
p240
sg8
(istate
Node
p241
(dp242
g6
S'0000000000010000001000110001000000000000'
p243
sg8
(istate
Node
p244
(dp245
g6
S'0000000000110000001000110001000000000000'
p246
sg8
(istate
Node
p247
(dp248
g6
S'0000000100110000001000110001000000000000'
p249
sg8
(istate
Node
p250
(dp251
g6
S'0000001100110000001000110001000000000000'
p252
sg8
(istate
Node
p253
(dp254
g6
S'0000011100110000001000110001000000000000'
p255
sg8
(istate
Node
p256
(dp257
g6
S'0010011100110000001000110001000000000000'
p258
sg8
(istate
Node
p259
(dp260
g6
S'0110011100110000001000110001000000000000'
p261
sg8
Nsg30
(lp262
I00
aI01
aI01
aI00
aI00
aI01
aI01
aI01
aI00
aI00
aI01
aI01
aI00
aI00
aI00
aI00
aI00
aI00
aI01
aI00
aI00
aI00
aI01
aI01
aI00
aI00
aI00
aI01
aI00
aI00
aI00
aI00
aI00
aI00
aI00
aI00
aI00
aI00
aI00
aI00
asg32
I-1
sg33
I0
sg34
Nsbsg30
(lp263
I00
aI00
aI01
aI00
aI00
aI01
aI01
aI01
aI00
aI00
aI01
aI01
aI00
aI00
aI00
aI00
aI00
aI00
aI01
aI00
aI00
aI00
aI01
aI01
aI00
aI00
aI00
aI01
aI00
aI00
aI00
aI00
aI00
aI00
aI00
aI00
aI00
aI00
aI00
aI00
asg32
I1
sg33
I1
sg34
I01
sbsg30
(lp264
I00
aI00
aI00
aI00
aI00
aI01
aI01
aI01
aI00
aI00
aI01
aI01
aI00
aI00
aI00
aI00
aI00
aI00
aI01
aI00
aI00
aI00
aI01
aI01
aI00
aI00
aI00
aI01
aI00
aI00
aI00
aI00
aI00
aI00
aI00
aI00
aI00
aI00
aI00
aI00
asg32
I2
sg33
I2
sg34
I01
sbsg30
(lp265
I00
aI00
aI00
aI00
aI00
aI00
aI01
aI01
aI00
aI00
aI01
aI01
aI00
aI00
aI00
aI00
aI00
aI00
aI01
aI00
aI00
aI00
aI01
aI01
aI00
aI00
aI00
aI01
aI00
aI00
aI00
aI00
aI00
aI00
aI00
aI00
aI00
aI00
aI00
aI00
asg32
I5
sg33
I3
sg34
I01
sbsg30
(lp266
I00
aI00
aI00
aI00
aI00
aI00
aI00
aI01
aI00
aI00
aI01
aI01
aI00
aI00
aI00
aI00
aI00
aI00
aI01
aI00
aI00
aI00
aI01
aI01
aI00
aI00
aI00
aI01
aI00
aI00
aI00
aI00
aI00
aI00
aI00
aI00
aI00
aI00
aI00
aI00
asg32
I6
sg33
I4
sg34
I01
sbsg30
(lp267
I00
aI00
aI00
aI00
aI00
aI00
aI00
aI00
aI00
aI00
aI01
aI01
aI00
aI00
aI00
aI00
aI00
aI00
aI01
aI00
aI00
aI00
aI01
aI01
aI00
aI00
aI00
aI01
aI00
aI00
aI00
aI00
aI00
aI00
aI00
aI00
aI00
aI00
aI00
aI00
asg32
I7
sg33
I5
sg34
I01
sbsg30
(lp268
I00
aI00
aI00
aI00
aI00
aI00
aI00
aI00
aI00
aI00
aI00
aI01
aI00
aI00
aI00
aI00
aI00
aI00
aI01
aI00
aI00
aI00
aI01
aI01
aI00
aI00
aI00
aI01
aI00
aI00
aI00
aI00
aI00
aI00
aI00
aI00
aI00
aI00
aI00
aI00
asg32
I10
sg33
I6
sg34
I01
sbsg30
(lp269
I00
aI00
aI00
aI00
aI00
aI00
aI00
aI00
aI00
aI00
aI00
aI00
aI00
aI00
aI00
aI00
aI00
aI00
aI01
aI00
aI00
aI00
aI01
aI01
aI00
aI00
aI00
aI01
aI00
aI00
aI00
aI00
aI00
aI00
aI00
aI00
aI00
aI00
aI00
aI00
asg32
I11
sg33
I7
sg34
I01
sba(lp270
I1
aI2
aI5
aI6
aI7
aI10
aI11
aaI7
aI50
aI7
aF0.04429292678833008
aaa(lp271
(lp272
I00
aI01
aI00
aI00
aI00
aI01
aI01
aI00
aI00
aI00
aI01
aI00
aI00
aI00
aI00
aI00
aI00
aI00
aI00
aI00
aI00
aI00
aI00
aI00
aI00
aI00
aI00
aI00
aI00
aI01
aI01
aI00
aI00
aI01
aI01
aI01
aI00
aI00
aI01
aI01
aa(lp273
g272
a(istate
Node
p274
(dp275
g6
S'0000000000000000000000000000001000110001'
p276
sg8
(istate
Node
p277
(dp278
g6
S'0000000000000000000000000000001000110011'
p279
sg8
(istate
Node
p280
(dp281
g6
S'0000000000000000000000000000001001110011'
p282
sg8
(istate
Node
p283
(dp284
g6
S'0000000000000000000000000000011001110011'
p285
sg8
(istate
Node
p286
(dp287
g6
S'0000000000100000000000000000011001110011'
p288
sg8
(istate
Node
p289
(dp290
g6
S'0000001000100000000000000000011001110011'
p291
sg8
(istate
Node
p292
(dp293
g6
S'0000011000100000000000000000011001110011'
p294
sg8
(istate
Node
p295
(dp296
g6
S'0100011000100000000000000000011001110011'
p297
sg8
Nsg30
(lp298
I00
aI01
aI00
aI00
aI00
aI01
aI01
aI00
aI00
aI00
aI01
aI00
aI00
aI00
aI00
aI00
aI00
aI00
aI00
aI00
aI00
aI00
aI00
aI00
aI00
aI00
aI00
aI00
aI00
aI01
aI01
aI00
aI00
aI01
aI01
aI01
aI00
aI00
aI01
aI01
asg32
I-1
sg33
I0
sg34
Nsbsg30
(lp299
I00
aI00
aI00
aI00
aI00
aI01
aI01
aI00
aI00
aI00
aI01
aI00
aI00
aI00
aI00
aI00
aI00
aI00
aI00
aI00
aI00
aI00
aI00
aI00
aI00
aI00
aI00
aI00
aI00
aI01
aI01
aI00
aI00
aI01
aI01
aI01
aI00
aI00
aI01
aI01
asg32
I1
sg33
I1
sg34
I01
sbsg30
(lp300
I00
aI00
aI00
aI00
aI00
aI00
aI01
aI00
aI00
aI00
aI01
aI00
aI00
aI00
aI00
aI00
aI00
aI00
aI00
aI00
aI00
aI00
aI00
aI00
aI00
aI00
aI00
aI00
aI00
aI01
aI01
aI00
aI00
aI01
aI01
aI01
aI00
aI00
aI01
aI01
asg32
I5
sg33
I2
sg34
I01
sbsg30
(lp301
I00
aI00
aI00
aI00
aI00
aI00
aI00
aI00
aI00
aI00
aI01
aI00
aI00
aI00
aI00
aI00
aI00
aI00
aI00
aI00
aI00
aI00
aI00
aI00
aI00
aI00
aI00
aI00
aI00
aI01
aI01
aI00
aI00
aI01
aI01
aI01
aI00
aI00
aI01
aI01
asg32
I6
sg33
I3
sg34
I01
sbsg30
(lp302
I00
aI00
aI00
aI00
aI00
aI00
aI00
aI00
aI00
aI00
aI00
aI00
aI00
aI00
aI00
aI00
aI00
aI00
aI00
aI00
aI00
aI00
aI00
aI00
aI00
aI00
aI00
aI00
aI00
aI01
aI01
aI00
aI00
aI01
aI01
aI01
aI00
aI00
aI01
aI01
asg32
I10
sg33
I4
sg34
I01
sbsg30
(lp303
I00
aI00
aI00
aI00
aI00
aI00
aI00
aI00
aI00
aI00
aI00
aI00
aI00
aI00
aI00
aI00
aI00
aI00
aI00
aI00
aI00
aI00
aI00
aI00
aI00
aI00
aI00
aI00
aI00
aI00
aI01
aI00
aI00
aI01
aI01
aI01
aI00
aI00
aI01
aI01
asg32
I29
sg33
I5
sg34
I01
sbsg30
(lp304
I00
aI00
aI00
aI00
aI00
aI00
aI00
aI00
aI00
aI00
aI00
aI00
aI00
aI00
aI00
aI00
aI00
aI00
aI00
aI00
aI00
aI00
aI00
aI00
aI00
aI00
aI00
aI00
aI00
aI00
aI01
aI00
aI00
aI00
aI01
aI01
aI00
aI00
aI01
aI01
asg32
I33
sg33
I6
sg34
I01
sbsg30
(lp305
I00
aI00
aI00
aI00
aI00
aI00
aI00
aI00
aI00
aI00
aI00
aI00
aI00
aI00
aI00
aI00
aI00
aI00
aI00
aI00
aI00
aI00
aI00
aI00
aI00
aI00
aI00
aI00
aI00
aI00
aI01
aI00
aI00
aI00
aI01
aI01
aI00
aI00
aI00
aI01
asg32
I38
sg33
I7
sg34
I01
sba(lp306
I1
aI5
aI6
aI10
aI29
aI33
aI38
aaI11
aI56
aI51
aF0.06135702133178711
aaa(lp307
(lp308
I00
aI00
aI00
aI00
aI00
aI00
aI00
aI00
aI00
aI00
aI00
aI00
aI01
aI00
aI00
aI00
aI01
aI01
aI00
aI00
aI00
aI01
aI00
aI00
aI00
aI01
aI01
aI00
aI00
aI01
aI01
aI00
aI00
aI01
aI01
aI00
aI00
aI00
aI01
aI00
aa(lp309
g308
a(istate
Node
p310
(dp311
g6
S'0000000000000000000000000000010001100010'
p312
sg8
(istate
Node
p313
(dp314
g6
S'0000000000000000000000000000011001100010'
p315
sg8
(istate
Node
p316
(dp317
g6
S'0000000000000000000000000010011001100010'
p318
sg8
(istate
Node
p319
(dp320
g6
S'0000000000000000000000000110011001100010'
p321
sg8
(istate
Node
p322
(dp323
g6
S'0000000000000000000001000110011001100010'
p324
sg8
(istate
Node
p325
(dp326
g6
S'0000000000000000010001000110011001100010'
p327
sg8
(istate
Node
p328
(dp329
g6
S'0000000000000000110001000110011001100010'
p330
sg8
(istate
Node
p331
(dp332
g6
S'0000000000001000110001000110011001100010'
p333
sg8
Nsg30
(lp334
I00
aI00
aI00
aI00
aI00
aI00
aI00
aI00
aI00
aI00
aI00
aI00
aI01
aI00
aI00
aI00
aI01
aI01
aI00
aI00
aI00
aI01
aI00
aI00
aI00
aI01
aI01
aI00
aI00
aI01
aI01
aI00
aI00
aI01
aI01
aI00
aI00
aI00
aI01
aI00
asg32
I-1
sg33
I0
sg34
Nsbsg30
(lp335
I00
aI00
aI00
aI00
aI00
aI00
aI00
aI00
aI00
aI00
aI00
aI00
aI00
aI00
aI00
aI00
aI01
aI01
aI00
aI00
aI00
aI01
aI00
aI00
aI00
aI01
aI01
aI00
aI00
aI01
aI01
aI00
aI00
aI01
aI01
aI00
aI00
aI00
aI01
aI00
asg32
I12
sg33
I1
sg34
I01
sbsg30
(lp336
I00
aI00
aI00
aI00
aI00
aI00
aI00
aI00
aI00
aI00
aI00
aI00
aI00
aI00
aI00
aI00
aI00
aI01
aI00
aI00
aI00
aI01
aI00
aI00
aI00
aI01
aI01
aI00
aI00
aI01
aI01
aI00
aI00
aI01
aI01
aI00
aI00
aI00
aI01
aI00
asg32
I16
sg33
I2
sg34
I01
sbsg30
(lp337
I00
aI00
aI00
aI00
aI00
aI00
aI00
aI00
aI00
aI00
aI00
aI00
aI00
aI00
aI00
aI00
aI00
aI00
aI00
aI00
aI00
aI01
aI00
aI00
aI00
aI01
aI01
aI00
aI00
aI01
aI01
aI00
aI00
aI01
aI01
aI00
aI00
aI00
aI01
aI00
asg32
I17
sg33
I3
sg34
I01
sbsg30
(lp338
I00
aI00
aI00
aI00
aI00
aI00
aI00
aI00
aI00
aI00
aI00
aI00
aI00
aI00
aI00
aI00
aI00
aI00
aI00
aI00
aI00
aI00
aI00
aI00
aI00
aI01
aI01
aI00
aI00
aI01
aI01
aI00
aI00
aI01
aI01
aI00
aI00
aI00
aI01
aI00
asg32
I21
sg33
I4
sg34
I01
sbsg30
(lp339
I00
aI00
aI00
aI00
aI00
aI00
aI00
aI00
aI00
aI00
aI00
aI00
aI00
aI00
aI00
aI00
aI00
aI00
aI00
aI00
aI00
aI00
aI00
aI00
aI00
aI00
aI01
aI00
aI00
aI01
aI01
aI00
aI00
aI01
aI01
aI00
aI00
aI00
aI01
aI00
asg32
I25
sg33
I5
sg34
I01
sbsg30
(lp340
I00
aI00
aI00
aI00
aI00
aI00
aI00
aI00
aI00
aI00
aI00
aI00
aI00
aI00
aI00
aI00
aI00
aI00
aI00
aI00
aI00
aI00
aI00
aI00
aI00
aI00
aI00
aI00
aI00
aI01
aI01
aI00
aI00
aI01
aI01
aI00
aI00
aI00
aI01
aI00
asg32
I26
sg33
I6
sg34
I01
sbsg30
(lp341
I00
aI00
aI00
aI00
aI00
aI00
aI00
aI00
aI00
aI00
aI00
aI00
aI00
aI00
aI00
aI00
aI00
aI00
aI00
aI00
aI00
aI00
aI00
aI00
aI00
aI00
aI00
aI00
aI00
aI01
aI00
aI00
aI00
aI01
aI01
aI00
aI00
aI00
aI01
aI00
asg32
I30
sg33
I7
sg34
I01
sba(lp342
I12
aI16
aI17
aI21
aI25
aI26
aI30
aaI11
aI56
aI23
aF0.04522895812988281
aaa(lp343
(lp344
I01
aI00
aI00
aI00
aI01
aI01
aI00
aI00
aI00
aI01
aI00
aI00
aI00
aI01
aI01
aI00
aI00
aI00
aI01
aI00
aI00
aI00
aI00
aI00
aI00
aI00
aI00
aI00
aI01
aI00
aI00
aI00
aI01
aI01
aI00
aI00
aI00
aI01
aI00
aI00
aa(lp345
g344
a(istate
Node
p346
(dp347
g6
S'0000000000000000000000000000100011000100'
p348
sg8
(istate
Node
p349
(dp350
g6
S'0000000000000000001000000000100011000100'
p351
sg8
(istate
Node
p352
(dp353
g6
S'0000000000000010001000000000100011000100'
p354
sg8
(istate
Node
p355
(dp356
g6
S'0000000000000110001000000000100011000100'
p357
sg8
(istate
Node
p358
(dp359
g6
S'0000000001000110001000000000100011000100'
p360
sg8
(istate
Node
p361
(dp362
g6
S'0000010001000110001000000000100011000100'
p363
sg8
(istate
Node
p364
(dp365
g6
S'0000110001000110001000000000100011000100'
p366
sg8
(istate
Node
p367
(dp368
g6
S'1000110001000110001000000000100011000100'
p369
sg8
Nsg30
(lp370
I01
aI00
aI00
aI00
aI01
aI01
aI00
aI00
aI00
aI01
aI00
aI00
aI00
aI01
aI01
aI00
aI00
aI00
aI01
aI00
aI00
aI00
aI00
aI00
aI00
aI00
aI00
aI00
aI01
aI00
aI00
aI00
aI01
aI01
aI00
aI00
aI00
aI01
aI00
aI00
asg32
I-1
sg33
I0
sg34
Nsbsg30
(lp371
I00
aI00
aI00
aI00
aI01
aI01
aI00
aI00
aI00
aI01
aI00
aI00
aI00
aI01
aI01
aI00
aI00
aI00
aI01
aI00
aI00
aI00
aI00
aI00
aI00
aI00
aI00
aI00
aI01
aI00
aI00
aI00
aI01
aI01
aI00
aI00
aI00
aI01
aI00
aI00
asg32
I0
sg33
I1
sg34
I01
sbsg30
(lp372
I00
aI00
aI00
aI00
aI00
aI01
aI00
aI00
aI00
aI01
aI00
aI00
aI00
aI01
aI01
aI00
aI00
aI00
aI01
aI00
aI00
aI00
aI00
aI00
aI00
aI00
aI00
aI00
aI01
aI00
aI00
aI00
aI01
aI01
aI00
aI00
aI00
aI01
aI00
aI00
asg32
I4
sg33
I2
sg34
I01
sbsg30
(lp373
I00
aI00
aI00
aI00
aI00
aI00
aI00
aI00
aI00
aI01
aI00
aI00
aI00
aI01
aI01
aI00
aI00
aI00
aI01
aI00
aI00
aI00
aI00
aI00
aI00
aI00
aI00
aI00
aI01
aI00
aI00
aI00
aI01
aI01
aI00
aI00
aI00
aI01
aI00
aI00
asg32
I5
sg33
I3
sg34
I01
sbsg30
(lp374
I00
aI00
aI00
aI00
aI00
aI00
aI00
aI00
aI00
aI00
aI00
aI00
aI00
aI01
aI01
aI00
aI00
aI00
aI01
aI00
aI00
aI00
aI00
aI00
aI00
aI00
aI00
aI00
aI01
aI00
aI00
aI00
aI01
aI01
aI00
aI00
aI00
aI01
aI00
aI00
asg32
I9
sg33
I4
sg34
I01
sbsg30
(lp375
I00
aI00
aI00
aI00
aI00
aI00
aI00
aI00
aI00
aI00
aI00
aI00
aI00
aI00
aI01
aI00
aI00
aI00
aI01
aI00
aI00
aI00
aI00
aI00
aI00
aI00
aI00
aI00
aI01
aI00
aI00
aI00
aI01
aI01
aI00
aI00
aI00
aI01
aI00
aI00
asg32
I13
sg33
I5
sg34
I01
sbsg30
(lp376
I00
aI00
aI00
aI00
aI00
aI00
aI00
aI00
aI00
aI00
aI00
aI00
aI00
aI00
aI00
aI00
aI00
aI00
aI01
aI00
aI00
aI00
aI00
aI00
aI00
aI00
aI00
aI00
aI01
aI00
aI00
aI00
aI01
aI01
aI00
aI00
aI00
aI01
aI00
aI00
asg32
I14
sg33
I6
sg34
I01
sbsg30
(lp377
I00
aI00
aI00
aI00
aI00
aI00
aI00
aI00
aI00
aI00
aI00
aI00
aI00
aI00
aI00
aI00
aI00
aI00
aI00
aI00
aI00
aI00
aI00
aI00
aI00
aI00
aI00
aI00
aI01
aI00
aI00
aI00
aI01
aI01
aI00
aI00
aI00
aI01
aI00
aI00
asg32
I18
sg33
I7
sg34
I01
sba(lp378
I0
aI4
aI5
aI9
aI13
aI14
aI18
aaI7
aI50
aI7
aF0.044593095779418945
aaa.