(lp0
(lp1
(lp2
I01
aI00
aI00
aI01
aI01
aI01
aI00
aI01
aI01
aI01
aI00
aI00
aI01
aI00
aI00
aI00
aI00
aI00
aI01
aI00
aI00
aI00
aI01
aI01
aI00
aI00
aI00
aI01
aI00
aI00
aI00
aI00
aI00
aI00
aI00
aI00
aI00
aI00
aI00
aI00
aa(lp3
g2
a(istate
Node
p4
(dp5
S'_hash_'
p6
S'0001000110001000001000110001000000000000'
p7
sS'parent'
p8
(istate
Node
p9
(dp10
g6
S'0001000111001000001000110001000000000000'
p11
sg8
(istate
Node
p12
(dp13
g6
S'0001010111001000001000110001000000000000'
p14
sg8
(istate
Node
p15
(dp16
g6
S'0001110111001000001000110001000000000000'
p17
sg8
(istate
Node
p18
(dp19
g6
S'1001110111001000001000110001000000000000'
p20
sg8
NsS'state'
p21
(lp22
I01
aI00
aI00
aI01
aI01
aI01
aI00
aI01
aI01
aI01
aI00
aI00
aI01
aI00
aI00
aI00
aI00
aI00
aI01
aI00
aI00
aI00
aI01
aI01
aI00
aI00
aI00
aI01
aI00
aI00
aI00
aI00
aI00
aI00
aI00
aI00
aI00
aI00
aI00
aI00
asS'pos'
p23
I-1
sS'depth'
p24
I0
sS'action'
p25
Nsbsg21
(lp26
I00
aI00
aI00
aI01
aI01
aI01
aI00
aI01
aI01
aI01
aI00
aI00
aI01
aI00
aI00
aI00
aI00
aI00
aI01
aI00
aI00
aI00
aI01
aI01
aI00
aI00
aI00
aI01
aI00
aI00
aI00
aI00
aI00
aI00
aI00
aI00
aI00
aI00
aI00
aI00
asg23
I0
sg24
I1
sg25
I01
sbsg21
(lp27
I00
aI00
aI00
aI01
aI00
aI01
aI00
aI01
aI01
aI01
aI00
aI00
aI01
aI00
aI00
aI00
aI00
aI00
aI01
aI00
aI00
aI00
aI01
aI01
aI00
aI00
aI00
aI01
aI00
aI00
aI00
aI00
aI00
aI00
aI00
aI00
aI00
aI00
aI00
aI00
asg23
I4
sg24
I2
sg25
I01
sbsg21
(lp28
I00
aI00
aI00
aI01
aI00
aI00
aI00
aI01
aI01
aI01
aI00
aI00
aI01
aI00
aI00
aI00
aI00
aI00
aI01
aI00
aI00
aI00
aI01
aI01
aI00
aI00
aI00
aI01
aI00
aI00
aI00
aI00
aI00
aI00
aI00
aI00
aI00
aI00
aI00
aI00
asg23
I5
sg24
I3
sg25
I01
sbsg21
(lp29
I00
aI00
aI00
aI01
aI00
aI00
aI00
aI01
aI01
aI00
aI00
aI00
aI01
aI00
aI00
aI00
aI00
aI00
aI01
aI00
aI00
aI00
aI01
aI01
aI00
aI00
aI00
aI01
aI00
aI00
aI00
aI00
aI00
aI00
aI00
aI00
aI00
aI00
aI00
aI00
asg23
I9
sg24
I4
sg25
I01
sba(lp30
I0
aI4
aI5
aI9
aaI12
aI67
aI1220
aF2.2393980026245117
aaa(lp31
(lp32
I01
aI00
aI00
aI00
aI01
aI01
aI00
aI00
aI00
aI01
aI00
aI00
aI00
aI00
aI00
aI00
aI00
aI00
aI00
aI00
aI00
aI01
aI00
aI00
aI00
aI01
aI01
aI00
aI01
aI00
aI01
aI00
aI01
aI01
aI00
aI00
aI00
aI01
aI00
aI00
aa(lp33
g32
a(istate
Node
p34
(dp35
g6
S'0000000000000000000001000110101011000100'
p36
sg8
(istate
Node
p37
(dp38
g6
S'0000000001000000000001000110101011000100'
p39
sg8
(istate
Node
p40
(dp41
g6
S'0000010001000000000001000110101011000100'
p42
sg8
(istate
Node
p43
(dp44
g6
S'0000110001000000000001000110101011000100'
p45
sg8
(istate
Node
p46
(dp47
g6
S'1000110001000000000001000110101011000100'
p48
sg8
Nsg21
(lp49
I01
aI00
aI00
aI00
aI01
aI01
aI00
aI00
aI00
aI01
aI00
aI00
aI00
aI00
aI00
aI00
aI00
aI00
aI00
aI00
aI00
aI01
aI00
aI00
aI00
aI01
aI01
aI00
aI01
aI00
aI01
aI00
aI01
aI01
aI00
aI00
aI00
aI01
aI00
aI00
asg23
I-1
sg24
I0
sg25
Nsbsg21
(lp50
I00
aI00
aI00
aI00
aI01
aI01
aI00
aI00
aI00
aI01
aI00
aI00
aI00
aI00
aI00
aI00
aI00
aI00
aI00
aI00
aI00
aI01
aI00
aI00
aI00
aI01
aI01
aI00
aI01
aI00
aI01
aI00
aI01
aI01
aI00
aI00
aI00
aI01
aI00
aI00
asg23
I0
sg24
I1
sg25
I01
sbsg21
(lp51
I00
aI00
aI00
aI00
aI00
aI01
aI00
aI00
aI00
aI01
aI00
aI00
aI00
aI00
aI00
aI00
aI00
aI00
aI00
aI00
aI00
aI01
aI00
aI00
aI00
aI01
aI01
aI00
aI01
aI00
aI01
aI00
aI01
aI01
aI00
aI00
aI00
aI01
aI00
aI00
asg23
I4
sg24
I2
sg25
I01
sbsg21
(lp52
I00
aI00
aI00
aI00
aI00
aI00
aI00
aI00
aI00
aI01
aI00
aI00
aI00
aI00
aI00
aI00
aI00
aI00
aI00
aI00
aI00
aI01
aI00
aI00
aI00
aI01
aI01
aI00
aI01
aI00
aI01
aI00
aI01
aI01
aI00
aI00
aI00
aI01
aI00
aI00
asg23
I5
sg24
I3
sg25
I01
sbsg21
(lp53
I00
aI00
aI00
aI00
aI00
aI00
aI00
aI00
aI00
aI00
aI00
aI00
aI00
aI00
aI00
aI00
aI00
aI00
aI00
aI00
aI00
aI01
aI00
aI00
aI00
aI01
aI01
aI00
aI01
aI00
aI01
aI00
aI01
aI01
aI00
aI00
aI00
aI01
aI00
aI00
asg23
I9
sg24
I4
sg25
I01
sba(lp54
I0
aI4
aI5
aI9
aaI4
aI39
aI4
aF0.02735304832458496
aaa(lp55
(lp56
I00
aI00
aI00
aI00
aI00
aI00
aI00
aI00
aI00
aI00
aI00
aI01
aI00
aI00
aI00
aI01
aI01
aI00
aI00
aI00
aI01
aI01
aI00
aI00
aI00
aI01
aI01
aI01
aI00
aI00
aI01
aI01
aI01
aI00
aI00
aI00
aI01
aI00
aI00
aI00
aa(lp57
g56
a(istate
Node
p58
(dp59
g6
S'0000000000000000000001000111001110001000'
p60
sg8
(istate
Node
p61
(dp62
g6
S'0000000000000000000011000111001110001000'
p63
sg8
(istate
Node
p64
(dp65
g6
S'0000000000000000100011000111001110001000'
p66
sg8
(istate
Node
p67
(dp68
g6
S'0000000000000001100011000111001110001000'
p69
sg8
(istate
Node
p70
(dp71
g6
S'0000000000010001100011000111001110001000'
p72
sg8
Nsg21
(lp73
I00
aI00
aI00
aI00
aI00
aI00
aI00
aI00
aI00
aI00
aI00
aI01
aI00
aI00
aI00
aI01
aI01
aI00
aI00
aI00
aI01
aI01
aI00
aI00
aI00
aI01
aI01
aI01
aI00
aI00
aI01
aI01
aI01
aI00
aI00
aI00
aI01
aI00
aI00
aI00
asg23
I-1
sg24
I0
sg25
Nsbsg21
(lp74
I00
aI00
aI00
aI00
aI00
aI00
aI00
aI00
aI00
aI00
aI00
aI00
aI00
aI00
aI00
aI01
aI01
aI00
aI00
aI00
aI01
aI01
aI00
aI00
aI00
aI01
aI01
aI01
aI00
aI00
aI01
aI01
aI01
aI00
aI00
aI00
aI01
aI00
aI00
aI00
asg23
I11
sg24
I1
sg25
I01
sbsg21
(lp75
I00
aI00
aI00
aI00
aI00
aI00
aI00
aI00
aI00
aI00
aI00
aI00
aI00
aI00
aI00
aI00
aI01
aI00
aI00
aI00
aI01
aI01
aI00
aI00
aI00
aI01
aI01
aI01
aI00
aI00
aI01
aI01
aI01
aI00
aI00
aI00
aI01
aI00
aI00
aI00
asg23
I15
sg24
I2
sg25
I01
sbsg21
(lp76
I00
aI00
aI00
aI00
aI00
aI00
aI00
aI00
aI00
aI00
aI00
aI00
aI00
aI00
aI00
aI00
aI00
aI00
aI00
aI00
aI01
aI01
aI00
aI00
aI00
aI01
aI01
aI01
aI00
aI00
aI01
aI01
aI01
aI00
aI00
aI00
aI01
aI00
aI00
aI00
asg23
I16
sg24
I3
sg25
I01
sbsg21
(lp77
I00
aI00
aI00
aI00
aI00
aI00
aI00
aI00
aI00
aI00
aI00
aI00
aI00
aI00
aI00
aI00
aI00
aI00
aI00
aI00
aI00
aI01
aI00
aI00
aI00
aI01
aI01
aI01
aI00
aI00
aI01
aI01
aI01
aI00
aI00
aI00
aI01
aI00
aI00
aI00
asg23
I20
sg24
I4
sg25
I01
sba(lp78
I11
aI15
aI16
aI20
aaI4
aI39
aI4
aF0.023648977279663086
aaa(lp79
(lp80
I00
aI01
aI00
aI00
aI00
aI01
aI01
aI00
aI00
aI00
aI01
aI00
aI01
aI00
aI00
aI00
aI01
aI01
aI00
aI00
aI00
aI01
aI00
aI00
aI00
aI00
aI00
aI01
aI00
aI00
aI00
aI01
aI01
aI00
aI00
aI00
aI01
aI00
aI00
aI00
aa(lp81
g80
a(istate
Node
p82
(dp83
g6
S'0000000000001000110001000001000110001000'
p84
sg8
(istate
Node
p85
(dp86
g6
S'0000000000101000110001000001000110001000'
p87
sg8
(istate
Node
p88
(dp89
g6
S'0000001000101000110001000001000110001000'
p90
sg8
(istate
Node
p91
(dp92
g6
S'0000011000101000110001000001000110001000'
p93
sg8
(istate
Node
p94
(dp95
g6
S'0100011000101000110001000001000110001000'
p96
sg8
Nsg21
(lp97
I00
aI01
aI00
aI00
aI00
aI01
aI01
aI00
aI00
aI00
aI01
aI00
aI01
aI00
aI00
aI00
aI01
aI01
aI00
aI00
aI00
aI01
aI00
aI00
aI00
aI00
aI00
aI01
aI00
aI00
aI00
aI01
aI01
aI00
aI00
aI00
aI01
aI00
aI00
aI00
asg23
I-1
sg24
I0
sg25
Nsbsg21
(lp98
I00
aI00
aI00
aI00
aI00
aI01
aI01
aI00
aI00
aI00
aI01
aI00
aI01
aI00
aI00
aI00
aI01
aI01
aI00
aI00
aI00
aI01
aI00
aI00
aI00
aI00
aI00
aI01
aI00
aI00
aI00
aI01
aI01
aI00
aI00
aI00
aI01
aI00
aI00
aI00
asg23
I1
sg24
I1
sg25
I01
sbsg21
(lp99
I00
aI00
aI00
aI00
aI00
aI00
aI01
aI00
aI00
aI00
aI01
aI00
aI01
aI00
aI00
aI00
aI01
aI01
aI00
aI00
aI00
aI01
aI00
aI00
aI00
aI00
aI00
aI01
aI00
aI00
aI00
aI01
aI01
aI00
aI00
aI00
aI01
aI00
aI00
aI00
asg23
I5
sg24
I2
sg25
I01
sbsg21
(lp100
I00
aI00
aI00
aI00
aI00
aI00
aI00
aI00
aI00
aI00
aI01
aI00
aI01
aI00
aI00
aI00
aI01
aI01
aI00
aI00
aI00
aI01
aI00
aI00
aI00
aI00
aI00
aI01
aI00
aI00
aI00
aI01
aI01
aI00
aI00
aI00
aI01
aI00
aI00
aI00
asg23
I6
sg24
I3
sg25
I01
sbsg21
(lp101
I00
aI00
aI00
aI00
aI00
aI00
aI00
aI00
aI00
aI00
aI00
aI00
aI01
aI00
aI00
aI00
aI01
aI01
aI00
aI00
aI00
aI01
aI00
aI00
aI00
aI00
aI00
aI01
aI00
aI00
aI00
aI01
aI01
aI00
aI00
aI00
aI01
aI00
aI00
aI00
asg23
I10
sg24
I4
sg25
I01
sba(lp102
I1
aI5
aI6
aI10
aaI4
aI39
aI4
aF0.025326013565063477
aaa(lp103
(lp104
I00
aI00
aI00
aI01
aI00
aI00
aI00
aI01
aI01
aI00
aI00
aI00
aI01
aI00
aI00
aI00
aI00
aI00
aI00
aI00
aI00
aI00
aI00
aI00
aI00
aI00
aI00
aI00
aI01
aI01
aI00
aI00
aI01
aI01
aI01
aI00
aI00
aI01
aI01
aI00
aa(lp105
g104
a(istate
Node
p106
(dp107
g6
S'0000000000000000000000000000110011100110'
p108
sg8
(istate
Node
p109
(dp110
g6
S'0000000000001000000000000000110011100110'
p111
sg8
(istate
Node
p112
(dp113
g6
S'0000000010001000000000000000110011100110'
p114
sg8
(istate
Node
p115
(dp116
g6
S'0000000110001000000000000000110011100110'
p117
sg8
(istate
Node
p118
(dp119
g6
S'0001000110001000000000000000110011100110'
p120
sg8
Nsg21
(lp121
I00
aI00
aI00
aI01
aI00
aI00
aI00
aI01
aI01
aI00
aI00
aI00
aI01
aI00
aI00
aI00
aI00
aI00
aI00
aI00
aI00
aI00
aI00
aI00
aI00
aI00
aI00
aI00
aI01
aI01
aI00
aI00
aI01
aI01
aI01
aI00
aI00
aI01
aI01
aI00
asg23
I-1
sg24
I0
sg25
Nsbsg21
(lp122
I00
aI00
aI00
aI00
aI00
aI00
aI00
aI01
aI01
aI00
aI00
aI00
aI01
aI00
aI00
aI00
aI00
aI00
aI00
aI00
aI00
aI00
aI00
aI00
aI00
aI00
aI00
aI00
aI01
aI01
aI00
aI00
aI01
aI01
aI01
aI00
aI00
aI01
aI01
aI00
asg23
I3
sg24
I1
sg25
I01
sbsg21
(lp123
I00
aI00
aI00
aI00
aI00
aI00
aI00
aI00
aI01
aI00
aI00
aI00
aI01
aI00
aI00
aI00
aI00
aI00
aI00
aI00
aI00
aI00
aI00
aI00
aI00
aI00
aI00
aI00
aI01
aI01
aI00
aI00
aI01
aI01
aI01
aI00
aI00
aI01
aI01
aI00
asg23
I7
sg24
I2
sg25
I01
sbsg21
(lp124
I00
aI00
aI00
aI00
aI00
aI00
aI00
aI00
aI00
aI00
aI00
aI00
aI01
aI00
aI00
aI00
aI00
aI00
aI00
aI00
aI00
aI00
aI00
aI00
aI00
aI00
aI00
aI00
aI01
aI01
aI00
aI00
aI01
aI01
aI01
aI00
aI00
aI01
aI01
aI00
asg23
I8
sg24
I3
sg25
I01
sbsg21
(lp125
I00
aI00
aI00
aI00
aI00
aI00
aI00
aI00
aI00
aI00
aI00
aI00
aI00
aI00
aI00
aI00
aI00
aI00
aI00
aI00
aI00
aI00
aI00
aI00
aI00
aI00
aI00
aI00
aI01
aI01
aI00
aI00
aI01
aI01
aI01
aI00
aI00
aI01
aI01
aI00
asg23
I12
sg24
I4
sg25
I01
sba(lp126
I3
aI7
aI8
aI12
aaI4
aI35
aI4
aF0.024541139602661133
aaa(lp127
(lp128
I00
aI00
aI00
aI00
aI00
aI00
aI00
aI00
aI00
aI00
aI01
aI00
aI01
aI00
aI01
aI01
aI01
aI01
aI00
aI01
aI00
aI01
aI00
aI00
aI00
aI00
aI00
aI00
aI01
aI00
aI00
aI00
aI01
aI01
aI00
aI00
aI00
aI01
aI00
aI00
aa(lp129
g128
a(istate
Node
p130
(dp131
g6
S'0000000000001000110001000000100011000100'
p132
sg8
(istate
Node
p133
(dp134
g6
S'0000000000001000110101000000100011000100'
p135
sg8
(istate
Node
p136
(dp137
g6
S'0000000000001001110101000000100011000100'
p138
sg8
(istate
Node
p139
(dp140
g6
S'0000000000001011110101000000100011000100'
p141
sg8
(istate
Node
p142
(dp143
g6
S'0000000000101011110101000000100011000100'
p144
sg8
Nsg21
(lp145
I00
aI00
aI00
aI00
aI00
aI00
aI00
aI00
aI00
aI00
aI01
aI00
aI01
aI00
aI01
aI01
aI01
aI01
aI00
aI01
aI00
aI01
aI00
aI00
aI00
aI00
aI00
aI00
aI01
aI00
aI00
aI00
aI01
aI01
aI00
aI00
aI00
aI01
aI00
aI00
asg23
I-1
sg24
I0
sg25
Nsbsg21
(lp146
I00
aI00
aI00
aI00
aI00
aI00
aI00
aI00
aI00
aI00
aI00
aI00
aI01
aI00
aI01
aI01
aI01
aI01
aI00
aI01
aI00
aI01
aI00
aI00
aI00
aI00
aI00
aI00
aI01
aI00
aI00
aI00
aI01
aI01
aI00
aI00
aI00
aI01
aI00
aI00
asg23
I10
sg24
I1
sg25
I01
sbsg21
(lp147
I00
aI00
aI00
aI00
aI00
aI00
aI00
aI00
aI00
aI00
aI00
aI00
aI01
aI00
aI00
aI01
aI01
aI01
aI00
aI01
aI00
aI01
aI00
aI00
aI00
aI00
aI00
aI00
aI01
aI00
aI00
aI00
aI01
aI01
aI00
aI00
aI00
aI01
aI00
aI00
asg23
I14
sg24
I2
sg25
I01
sbsg21
(lp148
I00
aI00
aI00
aI00
aI00
aI00
aI00
aI00
aI00
aI00
aI00
aI00
aI01
aI00
aI00
aI00
aI01
aI01
aI00
aI01
aI00
aI01
aI00
aI00
aI00
aI00
aI00
aI00
aI01
aI00
aI00
aI00
aI01
aI01
aI00
aI00
aI00
aI01
aI00
aI00
asg23
I15
sg24
I3
sg25
I01
sbsg21
(lp149
I00
aI00
aI00
aI00
aI00
aI00
aI00
aI00
aI00
aI00
aI00
aI00
aI01
aI00
aI00
aI00
aI01
aI01
aI00
aI00
aI00
aI01
aI00
aI00
aI00
aI00
aI00
aI00
aI01
aI00
aI00
aI00
aI01
aI01
aI00
aI00
aI00
aI01
aI00
aI00
asg23
I19
sg24
I4
sg25
I01
sba(lp150
I10
aI14
aI15
aI19
aaI12
aI67
aI1220
aF1.1112329959869385
aaa(lp151
(lp152
I00
aI00
aI01
aI00
aI00
aI00
aI01
aI01
aI00
aI00
aI00
aI01
aI00
aI00
aI00
aI00
aI00
aI00
aI00
aI00
aI00
aI00
aI00
aI00
aI00
aI00
aI00
aI00
aI01
aI00
aI01
aI00
aI01
aI01
aI01
aI01
aI00
aI01
aI00
aI01
aa(lp153
g152
a(istate
Node
p154
(dp155
g6
S'0000000000000000000000000000101011110101'
p156
sg8
(istate
Node
p157
(dp158
g6
S'0000000000010000000000000000101011110101'
p159
sg8
(istate
Node
p160
(dp161
g6
S'0000000100010000000000000000101011110101'
p162
sg8
(istate
Node
p163
(dp164
g6
S'0000001100010000000000000000101011110101'
p165
sg8
(istate
Node
p166
(dp167
g6
S'0010001100010000000000000000101011110101'
p168
sg8
Nsg21
(lp169
I00
aI00
aI01
aI00
aI00
aI00
aI01
aI01
aI00
aI00
aI00
aI01
aI00
aI00
aI00
aI00
aI00
aI00
aI00
aI00
aI00
aI00
aI00
aI00
aI00
aI00
aI00
aI00
aI01
aI00
aI01
aI00
aI01
aI01
aI01
aI01
aI00
aI01
aI00
aI01
asg23
I-1
sg24
I0
sg25
Nsbsg21
(lp170
I00
aI00
aI00
aI00
aI00
aI00
aI01
aI01
aI00
aI00
aI00
aI01
aI00
aI00
aI00
aI00
aI00
aI00
aI00
aI00
aI00
aI00
aI00
aI00
aI00
aI00
aI00
aI00
aI01
aI00
aI01
aI00
aI01
aI01
aI01
aI01
aI00
aI01
aI00
aI01
asg23
I2
sg24
I1
sg25
I01
sbsg21
(lp171
I00
aI00
aI00
aI00
aI00
aI00
aI00
aI01
aI00
aI00
aI00
aI01
aI00
aI00
aI00
aI00
aI00
aI00
aI00
aI00
aI00
aI00
aI00
aI00
aI00
aI00
aI00
aI00
aI01
aI00
aI01
aI00
aI01
aI01
aI01
aI01
aI00
aI01
aI00
aI01
asg23
I6
sg24
I2
sg25
I01
sbsg21
(lp172
I00
aI00
aI00
aI00
aI00
aI00
aI00
aI00
aI00
aI00
aI00
aI01
aI00
aI00
aI00
aI00
aI00
aI00
aI00
aI00
aI00
aI00
aI00
aI00
aI00
aI00
aI00
aI00
aI01
aI00
aI01
aI00
aI01
aI01
aI01
aI01
aI00
aI01
aI00
aI01
asg23
I7
sg24
I3
sg25
I01
sbsg21
(lp173
I00
aI00
aI00
aI00
aI00
aI00
aI00
aI00
aI00
aI00
aI00
aI00
aI00
aI00
aI00
aI00
aI00
aI00
aI00
aI00
aI00
aI00
aI00
aI00
aI00
aI00
aI00
aI00
aI01
aI00
aI01
aI00
aI01
aI01
aI01
aI01
aI00
aI01
aI00
aI01
asg23
I11
sg24
I4
sg25
I01
sba(lp174
I2
aI6
aI7
aI11
aaI4
aI39
aI4
aF0.030538082122802734
aaa(lp175
(lp176
I01
aI00
aI00
aI00
aI01
aI01
aI00
aI00
aI00
aI01
aI00
aI00
aI00
aI00
aI00
aI00
aI00
aI00
aI01
aI01
aI00
aI00
aI01
aI01
aI01
aI00
aI00
aI01
aI01
aI00
aI00
aI00
aI00
aI00
aI00
aI00
aI00
aI00
aI00
aI00
aa(lp177
g176
a(istate
Node
p178
(dp179
g6
S'0000000000000000001100111001100000000000'
p180
sg8
(istate
Node
p181
(dp182
g6
S'0000000001000000001100111001100000000000'
p183
sg8
(istate
Node
p184
(dp185
g6
S'0000010001000000001100111001100000000000'
p186
sg8
(istate
Node
p187
(dp188
g6
S'0000110001000000001100111001100000000000'
p189
sg8
(istate
Node
p190
(dp191
g6
S'1000110001000000001100111001100000000000'
p192
sg8
Nsg21
(lp193
I01
aI00
aI00
aI00
aI01
aI01
aI00
aI00
aI00
aI01
aI00
aI00
aI00
aI00
aI00
aI00
aI00
aI00
aI01
aI01
aI00
aI00
aI01
aI01
aI01
aI00
aI00
aI01
aI01
aI00
aI00
aI00
aI00
aI00
aI00
aI00
aI00
aI00
aI00
aI00
asg23
I-1
sg24
I0
sg25
Nsbsg21
(lp194
I00
aI00
aI00
aI00
aI01
aI01
aI00
aI00
aI00
aI01
aI00
aI00
aI00
aI00
aI00
aI00
aI00
aI00
aI01
aI01
aI00
aI00
aI01
aI01
aI01
aI00
aI00
aI01
aI01
aI00
aI00
aI00
aI00
aI00
aI00
aI00
aI00
aI00
aI00
aI00
asg23
I0
sg24
I1
sg25
I01
sbsg21
(lp195
I00
aI00
aI00
aI00
aI00
aI01
aI00
aI00
aI00
aI01
aI00
aI00
aI00
aI00
aI00
aI00
aI00
aI00
aI01
aI01
aI00
aI00
aI01
aI01
aI01
aI00
aI00
aI01
aI01
aI00
aI00
aI00
aI00
aI00
aI00
aI00
aI00
aI00
aI00
aI00
asg23
I4
sg24
I2
sg25
I01
sbsg21
(lp196
I00
aI00
aI00
aI00
aI00
aI00
aI00
aI00
aI00
aI01
aI00
aI00
aI00
aI00
aI00
aI00
aI00
aI00
aI01
aI01
aI00
aI00
aI01
aI01
aI01
aI00
aI00
aI01
aI01
aI00
aI00
aI00
aI00
aI00
aI00
aI00
aI00
aI00
aI00
aI00
asg23
I5
sg24
I3
sg25
I01
sbsg21
(lp197
I00
aI00
aI00
aI00
aI00
aI00
aI00
aI00
aI00
aI00
aI00
aI00
aI00
aI00
aI00
aI00
aI00
aI00
aI01
aI01
aI00
aI00
aI01
aI01
aI01
aI00
aI00
aI01
aI01
aI00
aI00
aI00
aI00
aI00
aI00
aI00
aI00
aI00
aI00
aI00
asg23
I9
sg24
I4
sg25
I01
sba(lp198
I0
aI4
aI5
aI9
aaI4
aI35
aI4
aF0.029321908950805664
aaa(lp199
(lp200
I00
aI00
aI00
aI00
aI00
aI00
aI00
aI00
aI00
aI00
aI00
aI01
aI00
aI00
aI00
aI01
aI01
aI00
aI00
aI00
aI01
aI00
aI00
aI00
aI00
aI00
aI00
aI01
aI00
aI00
aI01
aI01
aI01
aI00
aI01
aI01
aI01
aI00
aI00
aI01
aa(lp201
g200
a(istate
Node
p202
(dp203
g6
S'0000000000000000000000000001001110111001'
p204
sg8
(istate
Node
p205
(dp206
g6
S'0000000000000000000010000001001110111001'
p207
sg8
(istate
Node
p208
(dp209
g6
S'0000000000000000100010000001001110111001'
p210
sg8
(istate
Node
p211
(dp212
g6
S'0000000000000001100010000001001110111001'
p213
sg8
(istate
Node
p214
(dp215
g6
S'0000000000010001100010000001001110111001'
p216
sg8
Nsg21
(lp217
I00
aI00
aI00
aI00
aI00
aI00
aI00
aI00
aI00
aI00
aI00
aI01
aI00
aI00
aI00
aI01
aI01
aI00
aI00
aI00
aI01
aI00
aI00
aI00
aI00
aI00
aI00
aI01
aI00
aI00
aI01
aI01
aI01
aI00
aI01
aI01
aI01
aI00
aI00
aI01
asg23
I-1
sg24
I0
sg25
Nsbsg21
(lp218
I00
aI00
aI00
aI00
aI00
aI00
aI00
aI00
aI00
aI00
aI00
aI00
aI00
aI00
aI00
aI01
aI01
aI00
aI00
aI00
aI01
aI00
aI00
aI00
aI00
aI00
aI00
aI01
aI00
aI00
aI01
aI01
aI01
aI00
aI01
aI01
aI01
aI00
aI00
aI01
asg23
I11
sg24
I1
sg25
I01
sbsg21
(lp219
I00
aI00
aI00
aI00
aI00
aI00
aI00
aI00
aI00
aI00
aI00
aI00
aI00
aI00
aI00
aI00
aI01
aI00
aI00
aI00
aI01
aI00
aI00
aI00
aI00
aI00
aI00
aI01
aI00
aI00
aI01
aI01
aI01
aI00
aI01
aI01
aI01
aI00
aI00
aI01
asg23
I15
sg24
I2
sg25
I01
sbsg21
(lp220
I00
aI00
aI00
aI00
aI00
aI00
aI00
aI00
aI00
aI00
aI00
aI00
aI00
aI00
aI00
aI00
aI00
aI00
aI00
aI00
aI01
aI00
aI00
aI00
aI00
aI00
aI00
aI01
aI00
aI00
aI01
aI01
aI01
aI00
aI01
aI01
aI01
aI00
aI00
aI01
asg23
I16
sg24
I3
sg25
I01
sbsg21
(lp221
I00
aI00
aI00
aI00
aI00
aI00
aI00
aI00
aI00
aI00
aI00
aI00
aI00
aI00
aI00
aI00
aI00
aI00
aI00
aI00
aI00
aI00
aI00
aI00
aI00
aI00
aI00
aI01
aI00
aI00
aI01
aI01
aI01
aI00
aI01
aI01
aI01
aI00
aI00
aI01
asg23
I20
sg24
I4
sg25
I01
sba(lp222
I11
aI15
aI16
aI20
aaI4
aI39
aI4
aF0.026380062103271484
aaa(lp223
(lp224
I00
aI00
aI00
aI00
aI00
aI00
aI00
aI00
aI00
aI00
aI00
aI00
aI01
aI00
aI00
aI00
aI01
aI01
aI00
aI00
aI00
aI01
aI00
aI00
aI00
aI01
aI01
aI00
aI01
aI00
aI01
aI00
aI01
aI01
aI00
aI00
aI00
aI01
aI00
aI00
aa(lp225
g224
a(istate
Node
p226
(dp227
g6
S'0000000000000000000001000110101011000100'
p228
sg8
(istate
Node
p229
(dp230
g6
S'0000000000000000010001000110101011000100'
p231
sg8
(istate
Node
p232
(dp233
g6
S'0000000000000000110001000110101011000100'
p234
sg8
(istate
Node
p235
(dp236
g6
S'0000000000001000110001000110101011000100'
p237
sg8
Nsg21
(lp238
I00
aI00
aI00
aI00
aI00
aI00
aI00
aI00
aI00
aI00
aI00
aI00
aI01
aI00
aI00
aI00
aI01
aI01
aI00
aI00
aI00
aI01
aI00
aI00
aI00
aI01
aI01
aI00
aI01
aI00
aI01
aI00
aI01
aI01
aI00
aI00
aI00
aI01
aI00
aI00
asg23
I-1
sg24
I0
sg25
Nsbsg21
(lp239
I00
aI00
aI00
aI00
aI00
aI00
aI00
aI00
aI00
aI00
aI00
aI00
aI00
aI00
aI00
aI00
aI01
aI01
aI00
aI00
aI00
aI01
aI00
aI00
aI00
aI01
aI01
aI00
aI01
aI00
aI01
aI00
aI01
aI01
aI00
aI00
aI00
aI01
aI00
aI00
asg23
I12
sg24
I1
sg25
I01
sbsg21
(lp240
I00
aI00
aI00
aI00
aI00
aI00
aI00
aI00
aI00
aI00
aI00
aI00
aI00
aI00
aI00
aI00
aI00
aI01
aI00
aI00
aI00
aI01
aI00
aI00
aI00
aI01
aI01
aI00
aI01
aI00
aI01
aI00
aI01
aI01
aI00
aI00
aI00
aI01
aI00
aI00
asg23
I16
sg24
I2
sg25
I01
sbsg21
(lp241
I00
aI00
aI00
aI00
aI00
aI00
aI00
aI00
aI00
aI00
aI00
aI00
aI00
aI00
aI00
aI00
aI00
aI00
aI00
aI00
aI00
aI01
aI00
aI00
aI00
aI01
aI01
aI00
aI01
aI00
aI01
aI00
aI01
aI01
aI00
aI00
aI00
aI01
aI00
aI00
asg23
I17
sg24
I3
sg25
I01
sba(lp242
I12
aI16
aI17
aaI3
aI28
aI3
aF0.021359920501708984
aaa.