(lp0
(lp1
(lp2
I1
aI0
aI0
aI0
aa(lp3
I0
aI0
aI0
aI0
aa(lp4
I0
aI2
aI2
aI0
aa(lp5
I0
aI2
aI2
aI1
aaa(lp6
(lp7
I3
aI3
aI3
aI0
aa(lp8
I3
aI3
aI3
aI0
aa(lp9
I3
aI3
aI3
aI0
aa(lp10
I1
aI1
aI0
aI0
aaa(lp11
(lp12
I0
aI0
aI0
aI1
aa(lp13
I0
aI0
aI0
aI0
aa(lp14
I0
aI0
aI0
aI0
aa(lp15
I0
aI1
aI0
aI1
aaa(lp16
(lp17
I0
aI0
aI0
aI1
aa(lp18
I0
aI0
aI1
aI0
aa(lp19
I0
aI2
aI2
aI0
aa(lp20
I0
aI2
aI2
aI0
aaa(lp21
(lp22
I0
aI0
aI0
aI0
aa(lp23
I0
aI0
aI0
aI0
aa(lp24
I0
aI1
aI0
aI0
aa(lp25
I0
aI0
aI1
aI1
aaa(lp26
(lp27
I0
aI0
aI1
aI1
aa(lp28
I0
aI0
aI0
aI0
aa(lp29
I1
aI0
aI0
aI0
aa(lp30
I0
aI0
aI0
aI0
aaa(lp31
(lp32
I0
aI0
aI0
aI0
aa(lp33
I0
aI0
aI0
aI0
aa(lp34
I0
aI2
aI2
aI1
aa(lp35
I0
aI2
aI2
aI1
aaa(lp36
(lp37
I1
aI0
aI0
aI0
aa(lp38
I0
aI2
aI2
aI0
aa(lp39
I1
aI2
aI2
aI0
aa(lp40
I0
aI0
aI0
aI0
aaa(lp41
(lp42
I0
aI0
aI0
aI0
aa(lp43
I0
aI0
aI2
aI2
aa(lp44
I2
aI2
aI2
aI2
aa(lp45
I2
aI2
aI1
aI0
aaa(lp46
(lp47
I0
aI0
aI0
aI0
aa(lp48
I0
aI0
aI0
aI0
aa(lp49
I0
aI0
aI0
aI0
aa(lp50
I0
aI1
aI1
aI1
aaa(lp51
(lp52
I3
aI3
aI3
aI0
aa(lp53
I3
aI3
aI3
aI0
aa(lp54
I3
aI3
aI3
aI0
aa(lp55
I0
aI0
aI1
aI1
aaa(lp56
(lp57
I0
aI0
aI0
aI1
aa(lp58
I0
aI0
aI0
aI0
aa(lp59
I2
aI2
aI1
aI0
aa(lp60
I2
aI2
aI0
aI0
aaa(lp61
(lp62
I0
aI0
aI0
aI1
aa(lp63
I0
aI0
aI2
aI2
aa(lp64
I2
aI2
aI2
aI2
aa(lp65
I2
aI2
aI0
aI0
aaa(lp66
(lp67
I0
aI0
aI0
aI0
aa(lp68
I0
aI0
aI1
aI0
aa(lp69
I0
aI0
aI1
aI1
aa(lp70
I0
aI0
aI0
aI0
aaa(lp71
(lp72
I0
aI0
aI1
aI0
aa(lp73
I0
aI0
aI2
aI2
aa(lp74
I0
aI0
aI2
aI2
aa(lp75
I0
aI0
aI1
aI0
aaa(lp76
(lp77
I0
aI2
aI2
aI0
aa(lp78
I0
aI2
aI2
aI0
aa(lp79
I0
aI0
aI0
aI1
aa(lp80
I0
aI1
aI0
aI0
aaa(lp81
(lp82
I2
aI2
aI0
aI1
aa(lp83
I2
aI2
aI0
aI0
aa(lp84
I0
aI0
aI2
aI2
aa(lp85
I0
aI0
aI2
aI2
aaa(lp86
(lp87
I0
aI1
aI0
aI0
aa(lp88
I2
aI2
aI0
aI0
aa(lp89
I2
aI2
aI2
aI2
aa(lp90
I0
aI0
aI2
aI2
aaa(lp91
(lp92
I1
aI0
aI0
aI0
aa(lp93
I0
aI0
aI2
aI2
aa(lp94
I0
aI1
aI2
aI2
aa(lp95
I0
aI0
aI0
aI0
aaa(lp96
(lp97
I0
aI0
aI0
aI0
aa(lp98
I0
aI0
aI1
aI0
aa(lp99
I0
aI0
aI1
aI0
aa(lp100
I0
aI0
aI0
aI1
aaa(lp101
(lp102
I1
aI0
aI0
aI0
aa(lp103
I0
aI0
aI0
aI1
aa(lp104
I1
aI0
aI0
aI0
aa(lp105
I0
aI0
aI0
aI0
aaa(lp106
(lp107
I0
aI0
aI0
aI0
aa(lp108
I0
aI0
aI0
aI0
aa(lp109
I0
aI1
aI1
aI0
aa(lp110
I0
aI0
aI0
aI1
aaa(lp111
(lp112
I0
aI1
aI0
aI1
aa(lp113
I0
aI0
aI0
aI0
aa(lp114
I0
aI0
aI0
aI0
aa(lp115
I0
aI0
aI0
aI1
aaa(lp116
(lp117
I0
aI0
aI0
aI1
aa(lp118
I0
aI0
aI2
aI2
aa(lp119
I1
aI0
aI2
aI2
aa(lp120
I0
aI0
aI0
aI0
aaa(lp121
(lp122
I0
aI0
aI0
aI1
aa(lp123
I0
aI0
aI0
aI1
aa(lp124
I1
aI0
aI0
aI0
aa(lp125
I0
aI0
aI0
aI0
aaa(lp126
(lp127
I0
aI0
aI0
aI0
aa(lp128
I1
aI3
aI3
aI3
aa(lp129
I0
aI3
aI3
aI3
aa(lp130
I1
aI3
aI3
aI3
aaa(lp131
(lp132
I0
aI0
aI1
aI1
aa(lp133
I0
aI0
aI0
aI0
aa(lp134
I0
aI0
aI0
aI0
aa(lp135
I1
aI0
aI0
aI0
aaa(lp136
(lp137
I0
aI0
aI0
aI0
aa(lp138
I1
aI0
aI0
aI0
aa(lp139
I1
aI0
aI0
aI0
aa(lp140
I0
aI0
aI1
aI0
aaa(lp141
(lp142
I0
aI0
aI0
aI0
aa(lp143
I0
aI1
aI2
aI2
aa(lp144
I0
aI0
aI2
aI2
aa(lp145
I1
aI0
aI0
aI0
aaa(lp146
(lp147
I0
aI0
aI0
aI0
aa(lp148
I0
aI0
aI0
aI0
aa(lp149
I0
aI0
aI0
aI1
aa(lp150
I0
aI0
aI1
aI1
aaa(lp151
(lp152
I0
aI0
aI0
aI1
aa(lp153
I1
aI0
aI0
aI0
aa(lp154
I0
aI0
aI0
aI0
aa(lp155
I0
aI0
aI0
aI1
aaa(lp156
(lp157
I3
aI3
aI3
aI1
aa(lp158
I3
aI3
aI3
aI1
aa(lp159
I3
aI3
aI3
aI0
aa(lp160
I0
aI0
aI0
aI0
aaa(lp161
(lp162
I0
aI0
aI0
aI1
aa(lp163
I0
aI0
aI0
aI0
aa(lp164
I1
aI0
aI0
aI0
aa(lp165
I0
aI0
aI1
aI0
aaa(lp166
(lp167
I0
aI0
aI2
aI2
aa(lp168
I0
aI0
aI2
aI2
aa(lp169
I1
aI0
aI0
aI0
aa(lp170
I0
aI1
aI0
aI0
aaa(lp171
(lp172
I0
aI0
aI0
aI0
aa(lp173
I0
aI0
aI1
aI0
aa(lp174
I0
aI0
aI0
aI1
aa(lp175
I0
aI0
aI1
aI0
aaa(lp176
(lp177
I0
aI1
aI0
aI0
aa(lp178
I0
aI0
aI0
aI0
aa(lp179
I0
aI0
aI1
aI0
aa(lp180
I0
aI1
aI0
aI0
aaa(lp181
(lp182
I2
aI2
aI0
aI0
aa(lp183
I2
aI2
aI1
aI0
aa(lp184
I1
aI0
aI0
aI0
aa(lp185
I0
aI0
aI0
aI0
aaa(lp186
(lp187
I0
aI0
aI1
aI0
aa(lp188
I0
aI0
aI0
aI0
aa(lp189
I0
aI0
aI0
aI1
aa(lp190
I0
aI1
aI0
aI0
aaa(lp191
(lp192
I0
aI0
aI0
aI1
aa(lp193
I1
aI0
aI1
aI0
aa(lp194
I0
aI0
aI0
aI0
aa(lp195
I0
aI0
aI0
aI0
aaa(lp196
(lp197
I0
aI0
aI0
aI0
aa(lp198
I3
aI3
aI3
aI1
aa(lp199
I3
aI3
aI3
aI1
aa(lp200
I3
aI3
aI3
aI0
aaa(lp201
(lp202
I0
aI2
aI2
aI0
aa(lp203
I0
aI2
aI2
aI0
aa(lp204
I1
aI2
aI2
aI0
aa(lp205
I0
aI2
aI2
aI0
aaa(lp206
(lp207
I0
aI0
aI1
aI0
aa(lp208
I1
aI0
aI1
aI0
aa(lp209
I0
aI0
aI0
aI0
aa(lp210
I0
aI0
aI0
aI0
aaa(lp211
(lp212
I0
aI0
aI0
aI1
aa(lp213
I0
aI0
aI0
aI0
aa(lp214
I1
aI0
aI0
aI1
aa(lp215
I0
aI0
aI0
aI0
aaa(lp216
(lp217
I0
aI0
aI0
aI1
aa(lp218
I0
aI0
aI0
aI0
aa(lp219
I0
aI0
aI0
aI0
aa(lp220
I0
aI0
aI1
aI1
aaa(lp221
(lp222
I2
aI2
aI0
aI0
aa(lp223
I2
aI2
aI0
aI1
aa(lp224
I0
aI0
aI0
aI0
aa(lp225
I0
aI0
aI1
aI0
aaa(lp226
(lp227
I0
aI1
aI1
aI0
aa(lp228
I0
aI0
aI0
aI0
aa(lp229
I0
aI1
aI0
aI0
aa(lp230
I0
aI0
aI0
aI0
aaa(lp231
(lp232
I0
aI1
aI0
aI0
aa(lp233
I0
aI0
aI0
aI0
aa(lp234
I0
aI0
aI0
aI0
aa(lp235
I0
aI1
aI0
aI1
aaa(lp236
(lp237
I0
aI0
aI0
aI0
aa(lp238
I0
aI0
aI0
aI1
aa(lp239
I2
aI2
aI0
aI0
aa(lp240
I2
aI2
aI0
aI1
aaa(lp241
(lp242
I0
aI0
aI0
aI0
aa(lp243
I0
aI2
aI2
aI0
aa(lp244
I0
aI2
aI2
aI0
aa(lp245
I0
aI1
aI1
aI0
aaa(lp246
(lp247
I0
aI0
aI0
aI0
aa(lp248
I0
aI0
aI0
aI0
aa(lp249
I0
aI2
aI2
aI0
aa(lp250
I1
aI2
aI2
aI1
aaa(lp251
(lp252
I0
aI0
aI0
aI0
aa(lp253
I1
aI0
aI0
aI0
aa(lp254
I0
aI1
aI0
aI0
aa(lp255
I0
aI0
aI1
aI0
aaa(lp256
(lp257
I0
aI0
aI0
aI1
aa(lp258
I2
aI2
aI0
aI0
aa(lp259
I2
aI2
aI1
aI0
aa(lp260
I0
aI0
aI0
aI0
aaa(lp261
(lp262
I0
aI1
aI0
aI0
aa(lp263
I0
aI0
aI1
aI0
aa(lp264
I0
aI0
aI1
aI0
aa(lp265
I0
aI0
aI0
aI0
aaa(lp266
(lp267
I0
aI0
aI0
aI0
aa(lp268
I0
aI1
aI0
aI0
aa(lp269
I1
aI0
aI0
aI0
aa(lp270
I0
aI1
aI0
aI0
aaa(lp271
(lp272
I0
aI0
aI0
aI0
aa(lp273
I1
aI0
aI0
aI0
aa(lp274
I0
aI0
aI1
aI0
aa(lp275
I0
aI0
aI0
aI1
aaa(lp276
(lp277
I0
aI0
aI0
aI1
aa(lp278
I0
aI0
aI0
aI0
aa(lp279
I0
aI2
aI2
aI1
aa(lp280
I0
aI2
aI2
aI0
aaa(lp281
(lp282
I0
aI2
aI2
aI0
aa(lp283
I0
aI2
aI2
aI1
aa(lp284
I0
aI0
aI0
aI0
aa(lp285
I0
aI0
aI1
aI0
aaa(lp286
(lp287
I0
aI0
aI0
aI1
aa(lp288
I0
aI0
aI0
aI0
aa(lp289
I0
aI0
aI0
aI0
aa(lp290
I1
aI0
aI1
aI0
aaa(lp291
(lp292
I0
aI0
aI0
aI0
aa(lp293
I0
aI2
aI2
aI0
aa(lp294
I0
aI2
aI2
aI1
aa(lp295
I1
aI0
aI0
aI0
aaa(lp296
(lp297
I2
aI2
aI0
aI0
aa(lp298
I2
aI2
aI1
aI0
aa(lp299
I0
aI0
aI0
aI1
aa(lp300
I0
aI0
aI0
aI0
aaa(lp301
(lp302
I0
aI1
aI0
aI0
aa(lp303
I1
aI2
aI2
aI0
aa(lp304
I0
aI2
aI2
aI0
aa(lp305
I0
aI0
aI0
aI0
aaa(lp306
(lp307
I0
aI0
aI0
aI1
aa(lp308
I1
aI0
aI0
aI0
aa(lp309
I2
aI2
aI0
aI0
aa(lp310
I2
aI2
aI0
aI0
aaa(lp311
(lp312
I0
aI0
aI2
aI2
aa(lp313
I0
aI0
aI2
aI2
aa(lp314
I0
aI1
aI0
aI1
aa(lp315
I0
aI0
aI0
aI0
aaa(lp316
(lp317
I0
aI0
aI2
aI2
aa(lp318
I0
aI1
aI2
aI2
aa(lp319
I0
aI0
aI0
aI0
aa(lp320
I0
aI0
aI1
aI0
aaa(lp321
(lp322
I2
aI2
aI2
aI2
aa(lp323
I2
aI2
aI2
aI2
aa(lp324
I0
aI1
aI0
aI0
aa(lp325
I0
aI0
aI0
aI0
aaa(lp326
(lp327
I0
aI0
aI0
aI0
aa(lp328
I0
aI0
aI0
aI1
aa(lp329
I0
aI0
aI0
aI0
aa(lp330
I1
aI0
aI1
aI0
aaa(lp331
(lp332
I0
aI0
aI1
aI1
aa(lp333
I0
aI0
aI0
aI0
aa(lp334
I0
aI0
aI0
aI0
aa(lp335
I0
aI0
aI0
aI1
aaa(lp336
(lp337
I0
aI0
aI0
aI0
aa(lp338
I1
aI0
aI0
aI0
aa(lp339
I0
aI0
aI0
aI0
aa(lp340
I1
aI1
aI0
aI0
aaa(lp341
(lp342
I0
aI0
aI0
aI0
aa(lp343
I0
aI0
aI0
aI0
aa(lp344
I1
aI2
aI2
aI0
aa(lp345
I0
aI2
aI2
aI1
aaa(lp346
(lp347
I1
aI0
aI1
aI0
aa(lp348
I3
aI3
aI3
aI0
aa(lp349
I3
aI3
aI3
aI0
aa(lp350
I3
aI3
aI3
aI0
aaa(lp351
(lp352
I0
aI0
aI2
aI2
aa(lp353
I0
aI0
aI2
aI2
aa(lp354
I0
aI2
aI2
aI1
aa(lp355
I0
aI2
aI2
aI0
aaa(lp356
(lp357
I0
aI0
aI0
aI1
aa(lp358
I0
aI1
aI0
aI0
aa(lp359
I0
aI0
aI0
aI0
aa(lp360
I1
aI0
aI0
aI0
aaa(lp361
(lp362
I0
aI0
aI0
aI0
aa(lp363
I1
aI0
aI2
aI2
aa(lp364
I0
aI0
aI2
aI2
aa(lp365
I1
aI0
aI0
aI0
aaa(lp366
(lp367
I0
aI2
aI2
aI1
aa(lp368
I0
aI2
aI2
aI0
aa(lp369
I0
aI0
aI2
aI2
aa(lp370
I0
aI0
aI2
aI2
aaa(lp371
(lp372
I0
aI0
aI2
aI2
aa(lp373
I0
aI0
aI2
aI2
aa(lp374
I0
aI0
aI1
aI1
aa(lp375
I0
aI0
aI0
aI0
aaa(lp376
(lp377
I0
aI0
aI0
aI0
aa(lp378
I0
aI1
aI0
aI0
aa(lp379
I2
aI2
aI1
aI0
aa(lp380
I2
aI2
aI0
aI0
aaa(lp381
(lp382
I0
aI2
aI2
aI0
aa(lp383
I1
aI2
aI2
aI0
aa(lp384
I0
aI0
aI0
aI0
aa(lp385
I0
aI1
aI0
aI0
aaa(lp386
(lp387
I3
aI3
aI3
aI0
aa(lp388
I3
aI3
aI3
aI0
aa(lp389
I3
aI3
aI3
aI0
aa(lp390
I1
aI0
aI0
aI1
aaa(lp391
(lp392
I1
aI0
aI0
aI1
aa(lp393
I0
aI0
aI1
aI0
aa(lp394
I0
aI0
aI0
aI0
aa(lp395
I0
aI0
aI0
aI0
aaa(lp396
(lp397
I0
aI0
aI0
aI0
aa(lp398
I0
aI0
aI1
aI0
aa(lp399
I0
aI0
aI1
aI0
aa(lp400
I0
aI1
aI0
aI0
aaa(lp401
(lp402
I0
aI0
aI0
aI0
aa(lp403
I0
aI0
aI0
aI0
aa(lp404
I0
aI1
aI0
aI0
aa(lp405
I0
aI1
aI0
aI1
aaa(lp406
(lp407
I0
aI0
aI0
aI0
aa(lp408
I1
aI2
aI2
aI1
aa(lp409
I0
aI2
aI2
aI0
aa(lp410
I0
aI0
aI0
aI0
aaa(lp411
(lp412
I0
aI2
aI2
aI0
aa(lp413
I0
aI2
aI2
aI1
aa(lp414
I0
aI0
aI2
aI2
aa(lp415
I0
aI0
aI2
aI2
aaa(lp416
(lp417
I0
aI0
aI0
aI0
aa(lp418
I0
aI0
aI1
aI0
aa(lp419
I0
aI0
aI0
aI0
aa(lp420
I1
aI0
aI0
aI1
aaa(lp421
(lp422
I0
aI0
aI0
aI1
aa(lp423
I0
aI0
aI0
aI1
aa(lp424
I0
aI0
aI2
aI2
aa(lp425
I0
aI0
aI2
aI2
aaa(lp426
(lp427
I0
aI0
aI0
aI0
aa(lp428
I0
aI1
aI0
aI0
aa(lp429
I1
aI0
aI0
aI0
aa(lp430
I0
aI0
aI1
aI0
aaa(lp431
(lp432
I0
aI0
aI1
aI0
aa(lp433
I0
aI0
aI2
aI2
aa(lp434
I2
aI2
aI2
aI2
aa(lp435
I2
aI2
aI0
aI0
aaa(lp436
(lp437
I0
aI0
aI0
aI0
aa(lp438
I0
aI2
aI2
aI1
aa(lp439
I0
aI2
aI2
aI0
aa(lp440
I0
aI0
aI1
aI0
aaa(lp441
(lp442
I0
aI0
aI0
aI0
aa(lp443
I0
aI0
aI0
aI1
aa(lp444
I0
aI0
aI0
aI1
aa(lp445
I0
aI0
aI0
aI1
aaa(lp446
(lp447
I0
aI0
aI0
aI0
aa(lp448
I1
aI0
aI0
aI0
aa(lp449
I0
aI0
aI0
aI1
aa(lp450
I0
aI1
aI0
aI0
aaa(lp451
(lp452
I1
aI0
aI2
aI2
aa(lp453
I0
aI0
aI2
aI2
aa(lp454
I0
aI0
aI0
aI0
aa(lp455
I0
aI0
aI1
aI0
aaa(lp456
(lp457
I1
aI0
aI1
aI0
aa(lp458
I0
aI0
aI0
aI1
aa(lp459
I0
aI0
aI0
aI0
aa(lp460
I0
aI0
aI0
aI0
aaa(lp461
(lp462
I0
aI0
aI0
aI1
aa(lp463
I0
aI0
aI0
aI0
aa(lp464
I0
aI0
aI0
aI1
aa(lp465
I0
aI1
aI0
aI0
aaa(lp466
(lp467
I0
aI0
aI0
aI1
aa(lp468
I0
aI0
aI0
aI0
aa(lp469
I1
aI0
aI0
aI0
aa(lp470
I0
aI0
aI0
aI1
aaa(lp471
(lp472
I1
aI0
aI2
aI2
aa(lp473
I0
aI1
aI2
aI2
aa(lp474
I0
aI0
aI0
aI0
aa(lp475
I0
aI0
aI0
aI0
aaa(lp476
(lp477
I0
aI0
aI0
aI1
aa(lp478
I0
aI0
aI1
aI1
aa(lp479
I0
aI0
aI0
aI0
aa(lp480
I0
aI0
aI0
aI0
aaa(lp481
(lp482
I1
aI0
aI0
aI0
aa(lp483
I0
aI3
aI3
aI3
aa(lp484
I0
aI3
aI3
aI3
aa(lp485
I1
aI3
aI3
aI3
aaa(lp486
(lp487
I0
aI0
aI0
aI0
aa(lp488
I0
aI0
aI1
aI0
aa(lp489
I1
aI2
aI2
aI0
aa(lp490
I0
aI2
aI2
aI0
aaa(lp491
(lp492
I2
aI2
aI0
aI0
aa(lp493
I2
aI2
aI2
aI2
aa(lp494
I0
aI0
aI2
aI2
aa(lp495
I0
aI0
aI0
aI1
aaa(lp496
(lp497
I2
aI2
aI0
aI0
aa(lp498
I2
aI2
aI0
aI0
aa(lp499
I0
aI0
aI0
aI0
aa(lp500
I1
aI1
aI0
aI0
aaa(lp501
(lp502
I2
aI2
aI0
aI0
aa(lp503
I2
aI2
aI1
aI0
aa(lp504
I0
aI0
aI0
aI0
aa(lp505
I1
aI0
aI0
aI0
aaa(lp506
(lp507
I0
aI2
aI2
aI0
aa(lp508
I0
aI2
aI2
aI0
aa(lp509
I0
aI1
aI0
aI0
aa(lp510
I1
aI0
aI0
aI0
aaa(lp511
(lp512
I0
aI0
aI0
aI1
aa(lp513
I0
aI0
aI2
aI2
aa(lp514
I0
aI0
aI2
aI2
aa(lp515
I0
aI1
aI0
aI0
aaa(lp516
(lp517
I0
aI0
aI1
aI1
aa(lp518
I0
aI0
aI0
aI0
aa(lp519
I0
aI0
aI2
aI2
aa(lp520
I0
aI0
aI2
aI2
aaa(lp521
(lp522
I0
aI2
aI2
aI1
aa(lp523
I0
aI2
aI2
aI1
aa(lp524
I0
aI0
aI0
aI0
aa(lp525
I0
aI0
aI0
aI0
aaa(lp526
(lp527
I0
aI0
aI0
aI0
aa(lp528
I1
aI0
aI1
aI0
aa(lp529
I0
aI0
aI2
aI2
aa(lp530
I0
aI0
aI2
aI2
aaa(lp531
(lp532
I0
aI2
aI2
aI0
aa(lp533
I1
aI2
aI2
aI0
aa(lp534
I0
aI0
aI0
aI0
aa(lp535
I0
aI0
aI1
aI0
aaa(lp536
(lp537
I0
aI0
aI0
aI0
aa(lp538
I1
aI0
aI0
aI0
aa(lp539
I2
aI2
aI1
aI0
aa(lp540
I2
aI2
aI0
aI0
aaa(lp541
(lp542
I0
aI0
aI0
aI0
aa(lp543
I0
aI0
aI1
aI0
aa(lp544
I0
aI0
aI0
aI0
aa(lp545
I1
aI1
aI0
aI0
aaa(lp546
(lp547
I1
aI0
aI0
aI0
aa(lp548
I0
aI0
aI0
aI0
aa(lp549
I0
aI2
aI2
aI0
aa(lp550
I1
aI2
aI2
aI0
aaa(lp551
(lp552
I0
aI3
aI3
aI3
aa(lp553
I1
aI3
aI3
aI3
aa(lp554
I0
aI3
aI3
aI3
aa(lp555
I0
aI0
aI0
aI1
aaa(lp556
(lp557
I2
aI2
aI0
aI0
aa(lp558
I2
aI2
aI0
aI0
aa(lp559
I0
aI0
aI0
aI1
aa(lp560
I0
aI0
aI1
aI0
aaa(lp561
(lp562
I3
aI3
aI3
aI0
aa(lp563
I3
aI3
aI3
aI1
aa(lp564
I3
aI3
aI3
aI1
aa(lp565
I0
aI0
aI0
aI0
aaa(lp566
(lp567
I0
aI0
aI0
aI0
aa(lp568
I0
aI0
aI0
aI0
aa(lp569
I0
aI0
aI1
aI1
aa(lp570
I1
aI0
aI0
aI0
aaa(lp571
(lp572
I0
aI2
aI2
aI0
aa(lp573
I0
aI2
aI2
aI0
aa(lp574
I0
aI0
aI1
aI1
aa(lp575
I0
aI0
aI0
aI0
aaa(lp576
(lp577
I0
aI1
aI0
aI0
aa(lp578
I0
aI0
aI0
aI0
aa(lp579
I1
aI0
aI0
aI0
aa(lp580
I1
aI0
aI0
aI0
aaa(lp581
(lp582
I0
aI1
aI1
aI0
aa(lp583
I0
aI0
aI0
aI0
aa(lp584
I0
aI2
aI2
aI0
aa(lp585
I0
aI2
aI2
aI0
aaa(lp586
(lp587
I0
aI1
aI0
aI0
aa(lp588
I0
aI0
aI0
aI0
aa(lp589
I0
aI2
aI2
aI0
aa(lp590
I1
aI2
aI2
aI0
aaa(lp591
(lp592
I0
aI0
aI0
aI0
aa(lp593
I1
aI3
aI3
aI3
aa(lp594
I1
aI3
aI3
aI3
aa(lp595
I0
aI3
aI3
aI3
aaa(lp596
(lp597
I1
aI1
aI0
aI0
aa(lp598
I0
aI0
aI2
aI2
aa(lp599
I0
aI0
aI2
aI2
aa(lp600
I0
aI0
aI0
aI0
aaa(lp601
(lp602
I0
aI0
aI2
aI2
aa(lp603
I0
aI0
aI2
aI2
aa(lp604
I2
aI2
aI0
aI1
aa(lp605
I2
aI2
aI0
aI0
aaa(lp606
(lp607
I0
aI0
aI0
aI0
aa(lp608
I0
aI0
aI2
aI2
aa(lp609
I0
aI0
aI2
aI2
aa(lp610
I1
aI1
aI0
aI0
aaa(lp611
(lp612
I0
aI0
aI2
aI2
aa(lp613
I1
aI0
aI2
aI2
aa(lp614
I0
aI0
aI0
aI0
aa(lp615
I0
aI0
aI1
aI0
aaa(lp616
(lp617
I0
aI2
aI2
aI0
aa(lp618
I0
aI2
aI2
aI0
aa(lp619
I0
aI0
aI0
aI1
aa(lp620
I0
aI0
aI0
aI1
aaa(lp621
(lp622
I0
aI0
aI0
aI1
aa(lp623
I1
aI0
aI0
aI0
aa(lp624
I0
aI2
aI2
aI0
aa(lp625
I0
aI2
aI2
aI0
aaa(lp626
(lp627
I0
aI1
aI1
aI0
aa(lp628
I0
aI0
aI0
aI0
aa(lp629
I0
aI0
aI0
aI0
aa(lp630
I1
aI0
aI0
aI0
aaa(lp631
(lp632
I0
aI0
aI0
aI0
aa(lp633
I1
aI0
aI1
aI0
aa(lp634
I0
aI0
aI0
aI1
aa(lp635
I0
aI0
aI0
aI0
aaa(lp636
(lp637
I0
aI0
aI0
aI0
aa(lp638
I1
aI0
aI0
aI0
aa(lp639
I1
aI1
aI0
aI0
aa(lp640
I0
aI0
aI0
aI0
aaa(lp641
(lp642
I0
aI0
aI0
aI1
aa(lp643
I0
aI0
aI0
aI1
aa(lp644
I0
aI0
aI0
aI0
aa(lp645
I0
aI1
aI0
aI0
aaa(lp646
(lp647
I2
aI2
aI1
aI1
aa(lp648
I2
aI2
aI0
aI0
aa(lp649
I0
aI0
aI0
aI0
aa(lp650
I0
aI0
aI0
aI0
aaa(lp651
(lp652
I0
aI0
aI0
aI1
aa(lp653
I0
aI1
aI0
aI0
aa(lp654
I0
aI2
aI2
aI0
aa(lp655
I0
aI2
aI2
aI0
aaa(lp656
(lp657
I0
aI0
aI0
aI1
aa(lp658
I0
aI0
aI2
aI2
aa(lp659
I0
aI0
aI2
aI2
aa(lp660
I0
aI0
aI0
aI1
aaa(lp661
(lp662
I0
aI0
aI0
aI0
aa(lp663
I1
aI0
aI0
aI1
aa(lp664
I0
aI0
aI0
aI0
aa(lp665
I0
aI1
aI0
aI0
aaa(lp666
(lp667
I0
aI0
aI0
aI0
aa(lp668
I0
aI1
aI0
aI1
aa(lp669
I0
aI0
aI0
aI1
aa(lp670
I0
aI0
aI0
aI0
aaa(lp671
(lp672
I0
aI0
aI0
aI1
aa(lp673
I1
aI1
aI0
aI0
aa(lp674
I0
aI0
aI0
aI0
aa(lp675
I0
aI0
aI0
aI0
aaa(lp676
(lp677
I0
aI0
aI0
aI0
aa(lp678
I2
aI2
aI0
aI0
aa(lp679
I2
aI2
aI0
aI1
aa(lp680
I0
aI0
aI0
aI1
aaa(lp681
(lp682
I0
aI0
aI2
aI2
aa(lp683
I0
aI0
aI2
aI2
aa(lp684
I0
aI0
aI1
aI0
aa(lp685
I0
aI0
aI1
aI0
aaa(lp686
(lp687
I0
aI0
aI2
aI2
aa(lp688
I2
aI2
aI2
aI2
aa(lp689
I2
aI2
aI0
aI0
aa(lp690
I0
aI0
aI1
aI0
aaa(lp691
(lp692
I1
aI0
aI0
aI1
aa(lp693
I0
aI0
aI0
aI0
aa(lp694
I1
aI0
aI0
aI0
aa(lp695
I0
aI0
aI0
aI0
aaa(lp696
(lp697
I0
aI1
aI0
aI0
aa(lp698
I0
aI0
aI0
aI1
aa(lp699
I0
aI1
aI0
aI0
aa(lp700
I0
aI0
aI0
aI0
aaa(lp701
(lp702
I0
aI0
aI1
aI0
aa(lp703
I0
aI0
aI0
aI0
aa(lp704
I0
aI1
aI0
aI0
aa(lp705
I0
aI0
aI1
aI0
aaa(lp706
(lp707
I0
aI0
aI2
aI2
aa(lp708
I1
aI0
aI2
aI2
aa(lp709
I0
aI0
aI1
aI0
aa(lp710
I0
aI0
aI0
aI0
aaa(lp711
(lp712
I0
aI1
aI0
aI1
aa(lp713
I0
aI0
aI0
aI0
aa(lp714
I0
aI2
aI2
aI0
aa(lp715
I0
aI2
aI2
aI0
aaa(lp716
(lp717
I0
aI0
aI0
aI0
aa(lp718
I0
aI0
aI0
aI1
aa(lp719
I0
aI1
aI1
aI0
aa(lp720
I0
aI0
aI0
aI0
aaa(lp721
(lp722
I0
aI0
aI0
aI0
aa(lp723
I0
aI1
aI1
aI0
aa(lp724
I0
aI0
aI0
aI1
aa(lp725
I0
aI0
aI0
aI0
aaa(lp726
(lp727
I0
aI0
aI0
aI0
aa(lp728
I2
aI2
aI0
aI1
aa(lp729
I2
aI2
aI0
aI0
aa(lp730
I0
aI1
aI0
aI0
aaa(lp731
(lp732
I0
aI0
aI0
aI0
aa(lp733
I0
aI0
aI1
aI0
aa(lp734
I0
aI0
aI0
aI1
aa(lp735
I0
aI1
aI0
aI0
aaa(lp736
(lp737
I0
aI0
aI0
aI0
aa(lp738
I0
aI0
aI0
aI1
aa(lp739
I0
aI2
aI2
aI0
aa(lp740
I1
aI2
aI2
aI0
aaa(lp741
(lp742
I1
aI0
aI0
aI0
aa(lp743
I0
aI0
aI1
aI0
aa(lp744
I0
aI0
aI0
aI1
aa(lp745
I0
aI0
aI0
aI0
aaa(lp746
(lp747
I0
aI0
aI0
aI0
aa(lp748
I0
aI0
aI0
aI0
aa(lp749
I0
aI1
aI1
aI0
aa(lp750
I1
aI0
aI0
aI0
aaa(lp751
(lp752
I0
aI0
aI0
aI0
aa(lp753
I0
aI0
aI1
aI0
aa(lp754
I0
aI0
aI0
aI1
aa(lp755
I1
aI0
aI0
aI0
aaa(lp756
(lp757
I0
aI0
aI0
aI0
aa(lp758
I0
aI0
aI0
aI1
aa(lp759
I0
aI0
aI0
aI1
aa(lp760
I0
aI0
aI1
aI0
aaa(lp761
(lp762
I0
aI0
aI0
aI0
aa(lp763
I0
aI0
aI0
aI1
aa(lp764
I0
aI1
aI0
aI0
aa(lp765
I0
aI0
aI0
aI1
aaa(lp766
(lp767
I1
aI0
aI0
aI1
aa(lp768
I0
aI0
aI0
aI1
aa(lp769
I0
aI0
aI0
aI0
aa(lp770
I0
aI0
aI0
aI0
aaa(lp771
(lp772
I0
aI0
aI0
aI0
aa(lp773
I0
aI0
aI0
aI1
aa(lp774
I0
aI0
aI2
aI2
aa(lp775
I0
aI1
aI2
aI2
aaa(lp776
(lp777
I0
aI0
aI0
aI1
aa(lp778
I1
aI0
aI0
aI0
aa(lp779
I0
aI1
aI0
aI0
aa(lp780
I0
aI0
aI0
aI0
aaa(lp781
(lp782
I0
aI0
aI0
aI0
aa(lp783
I0
aI0
aI1
aI0
aa(lp784
I0
aI2
aI2
aI0
aa(lp785
I1
aI2
aI2
aI0
aaa(lp786
(lp787
I0
aI0
aI0
aI0
aa(lp788
I2
aI2
aI1
aI1
aa(lp789
I2
aI2
aI0
aI0
aa(lp790
I0
aI0
aI0
aI0
aaa(lp791
(lp792
I0
aI0
aI0
aI0
aa(lp793
I0
aI1
aI0
aI0
aa(lp794
I0
aI1
aI1
aI0
aa(lp795
I0
aI0
aI0
aI0
aaa(lp796
(lp797
I0
aI0
aI0
aI0
aa(lp798
I0
aI0
aI0
aI0
aa(lp799
I0
aI0
aI1
aI0
aa(lp800
I1
aI0
aI1
aI0
aaa(lp801
(lp802
I0
aI2
aI2
aI0
aa(lp803
I0
aI2
aI2
aI1
aa(lp804
I0
aI2
aI2
aI0
aa(lp805
I0
aI2
aI2
aI0
aaa(lp806
(lp807
I0
aI0
aI0
aI0
aa(lp808
I0
aI0
aI0
aI1
aa(lp809
I0
aI0
aI2
aI2
aa(lp810
I1
aI0
aI2
aI2
aaa(lp811
(lp812
I0
aI0
aI1
aI0
aa(lp813
I0
aI1
aI0
aI0
aa(lp814
I0
aI2
aI2
aI0
aa(lp815
I0
aI2
aI2
aI0
aaa(lp816
(lp817
I0
aI2
aI2
aI0
aa(lp818
I0
aI2
aI2
aI0
aa(lp819
I2
aI2
aI0
aI0
aa(lp820
I2
aI2
aI1
aI0
aaa(lp821
(lp822
I0
aI0
aI0
aI0
aa(lp823
I0
aI0
aI0
aI0
aa(lp824
I0
aI0
aI1
aI1
aa(lp825
I0
aI0
aI0
aI1
aaa(lp826
(lp827
I1
aI0
aI0
aI0
aa(lp828
I2
aI2
aI0
aI0
aa(lp829
I2
aI2
aI2
aI2
aa(lp830
I0
aI0
aI2
aI2
aaa(lp831
(lp832
I0
aI0
aI0
aI0
aa(lp833
I0
aI0
aI0
aI1
aa(lp834
I1
aI1
aI0
aI0
aa(lp835
I0
aI0
aI0
aI0
aaa(lp836
(lp837
I1
aI0
aI0
aI0
aa(lp838
I0
aI0
aI0
aI0
aa(lp839
I0
aI0
aI1
aI1
aa(lp840
I0
aI0
aI0
aI0
aaa(lp841
(lp842
I0
aI0
aI1
aI0
aa(lp843
I0
aI0
aI0
aI0
aa(lp844
I0
aI0
aI0
aI0
aa(lp845
I1
aI0
aI1
aI0
aaa(lp846
(lp847
I0
aI0
aI0
aI0
aa(lp848
I0
aI0
aI0
aI1
aa(lp849
I0
aI0
aI0
aI0
aa(lp850
I1
aI1
aI0
aI0
aaa(lp851
(lp852
I3
aI3
aI3
aI0
aa(lp853
I3
aI3
aI3
aI0
aa(lp854
I3
aI3
aI3
aI0
aa(lp855
I0
aI1
aI0
aI1
aaa(lp856
(lp857
I0
aI0
aI0
aI0
aa(lp858
I0
aI0
aI0
aI1
aa(lp859
I1
aI0
aI0
aI0
aa(lp860
I0
aI1
aI0
aI0
aaa(lp861
(lp862
I0
aI0
aI0
aI0
aa(lp863
I1
aI0
aI0
aI0
aa(lp864
I1
aI0
aI0
aI0
aa(lp865
I0
aI1
aI0
aI0
aaa(lp866
(lp867
I0
aI0
aI2
aI2
aa(lp868
I0
aI0
aI2
aI2
aa(lp869
I0
aI1
aI0
aI0
aa(lp870
I0
aI1
aI0
aI0
aaa(lp871
(lp872
I0
aI0
aI0
aI0
aa(lp873
I0
aI0
aI0
aI1
aa(lp874
I0
aI0
aI0
aI0
aa(lp875
I0
aI1
aI0
aI1
aaa(lp876
(lp877
I0
aI0
aI0
aI0
aa(lp878
I0
aI0
aI2
aI2
aa(lp879
I0
aI1
aI2
aI2
aa(lp880
I0
aI0
aI1
aI0
aaa(lp881
(lp882
I0
aI0
aI0
aI1
aa(lp883
I0
aI0
aI1
aI0
aa(lp884
I0
aI0
aI2
aI2
aa(lp885
I0
aI0
aI2
aI2
aaa(lp886
(lp887
I0
aI3
aI3
aI3
aa(lp888
I0
aI3
aI3
aI3
aa(lp889
I0
aI3
aI3
aI3
aa(lp890
I1
aI1
aI0
aI0
aaa(lp891
(lp892
I2
aI2
aI1
aI0
aa(lp893
I2
aI2
aI0
aI0
aa(lp894
I0
aI0
aI0
aI0
aa(lp895
I0
aI0
aI0
aI1
aaa(lp896
(lp897
I0
aI1
aI0
aI0
aa(lp898
I2
aI2
aI0
aI1
aa(lp899
I2
aI2
aI0
aI0
aa(lp900
I0
aI0
aI0
aI0
aaa(lp901
(lp902
I0
aI0
aI2
aI2
aa(lp903
I0
aI0
aI2
aI2
aa(lp904
I0
aI0
aI0
aI1
aa(lp905
I0
aI0
aI1
aI0
aaa(lp906
(lp907
I0
aI0
aI2
aI2
aa(lp908
I0
aI1
aI2
aI2
aa(lp909
I0
aI2
aI2
aI0
aa(lp910
I0
aI2
aI2
aI0
aaa(lp911
(lp912
I0
aI0
aI0
aI1
aa(lp913
I0
aI0
aI0
aI0
aa(lp914
I2
aI2
aI0
aI1
aa(lp915
I2
aI2
aI0
aI0
aaa(lp916
(lp917
I2
aI2
aI2
aI2
aa(lp918
I2
aI2
aI2
aI2
aa(lp919
I2
aI2
aI0
aI0
aa(lp920
I2
aI2
aI0
aI0
aaa(lp921
(lp922
I0
aI1
aI0
aI0
aa(lp923
I2
aI2
aI0
aI0
aa(lp924
I2
aI2
aI0
aI0
aa(lp925
I1
aI0
aI0
aI0
aaa(lp926
(lp927
I0
aI0
aI1
aI1
aa(lp928
I0
aI0
aI0
aI0
aa(lp929
I0
aI2
aI2
aI0
aa(lp930
I0
aI2
aI2
aI0
aaa(lp931
(lp932
I0
aI1
aI0
aI0
aa(lp933
I3
aI3
aI3
aI1
aa(lp934
I3
aI3
aI3
aI0
aa(lp935
I3
aI3
aI3
aI0
aaa(lp936
(lp937
I0
aI0
aI1
aI1
aa(lp938
I0
aI0
aI0
aI1
aa(lp939
I0
aI0
aI0
aI0
aa(lp940
I0
aI0
aI0
aI0
aaa(lp941
(lp942
I0
aI0
aI0
aI0
aa(lp943
I0
aI2
aI2
aI0
aa(lp944
I0
aI2
aI2
aI0
aa(lp945
I0
aI0
aI1
aI1
aaa(lp946
(lp947
I0
aI2
aI2
aI0
aa(lp948
I0
aI2
aI2
aI1
aa(lp949
I0
aI0
aI0
aI0
aa(lp950
I1
aI0
aI0
aI0
aaa(lp951
(lp952
I0
aI0
aI0
aI0
aa(lp953
I0
aI0
aI0
aI1
aa(lp954
I1
aI0
aI0
aI1
aa(lp955
I0
aI0
aI0
aI0
aaa(lp956
(lp957
I0
aI0
aI0
aI0
aa(lp958
I0
aI0
aI0
aI0
aa(lp959
I1
aI1
aI0
aI0
aa(lp960
I0
aI1
aI0
aI0
aaa(lp961
(lp962
I0
aI0
aI1
aI0
aa(lp963
I0
aI0
aI1
aI0
aa(lp964
I0
aI0
aI1
aI0
aa(lp965
I0
aI0
aI0
aI0
aaa(lp966
(lp967
I0
aI0
aI0
aI0
aa(lp968
I0
aI0
aI1
aI0
aa(lp969
I0
aI1
aI0
aI0
aa(lp970
I1
aI0
aI0
aI0
aaa(lp971
(lp972
I0
aI0
aI0
aI0
aa(lp973
I0
aI0
aI1
aI0
aa(lp974
I2
aI2
aI0
aI1
aa(lp975
I2
aI2
aI0
aI0
aaa(lp976
(lp977
I0
aI2
aI2
aI0
aa(lp978
I0
aI2
aI2
aI0
aa(lp979
I0
aI1
aI0
aI0
aa(lp980
I0
aI0
aI1
aI0
aaa(lp981
(lp982
I0
aI0
aI0
aI0
aa(lp983
I0
aI1
aI0
aI1
aa(lp984
I0
aI2
aI2
aI0
aa(lp985
I0
aI2
aI2
aI0
aaa(lp986
(lp987
I1
aI0
aI1
aI0
aa(lp988
I0
aI3
aI3
aI3
aa(lp989
I0
aI3
aI3
aI3
aa(lp990
I0
aI3
aI3
aI3
aaa(lp991
(lp992
I0
aI0
aI0
aI1
aa(lp993
I0
aI0
aI1
aI0
aa(lp994
I0
aI0
aI0
aI0
aa(lp995
I0
aI0
aI1
aI0
aaa(lp996
(lp997
I0
aI0
aI0
aI0
aa(lp998
I0
aI0
aI2
aI2
aa(lp999
I1
aI0
aI2
aI2
aa(lp1000
I0
aI0
aI0
aI1
aaa(lp1001
(lp1002
I0
aI2
aI2
aI0
aa(lp1003
I0
aI2
aI2
aI0
aa(lp1004
I0
aI2
aI2
aI1
aa(lp1005
I0
aI2
aI2
aI0
aaa(lp1006
(lp1007
I0
aI0
aI0
aI1
aa(lp1008
I0
aI0
aI0
aI0
aa(lp1009
I0
aI0
aI0
aI0
aa(lp1010
I1
aI1
aI0
aI0
aaa(lp1011
(lp1012
I1
aI0
aI0
aI0
aa(lp1013
I1
aI0
aI1
aI0
aa(lp1014
I0
aI0
aI0
aI0
aa(lp1015
I0
aI0
aI0
aI0
aaa(lp1016
(lp1017
I0
aI0
aI1
aI0
aa(lp1018
I3
aI3
aI3
aI0
aa(lp1019
I3
aI3
aI3
aI0
aa(lp1020
I3
aI3
aI3
aI1
aaa(lp1021
(lp1022
I0
aI0
aI0
aI0
aa(lp1023
I0
aI0
aI0
aI0
aa(lp1024
I1
aI0
aI0
aI0
aa(lp1025
I0
aI1
aI0
aI1
aaa(lp1026
(lp1027
I1
aI0
aI0
aI0
aa(lp1028
I0
aI1
aI0
aI0
aa(lp1029
I0
aI0
aI2
aI2
aa(lp1030
I0
aI0
aI2
aI2
aaa(lp1031
(lp1032
I0
aI0
aI0
aI0
aa(lp1033
I2
aI2
aI0
aI0
aa(lp1034
I2
aI2
aI0
aI0
aa(lp1035
I1
aI0
aI1
aI0
aaa(lp1036
(lp1037
I0
aI0
aI0
aI0
aa(lp1038
I0
aI0
aI0
aI0
aa(lp1039
I0
aI0
aI0
aI1
aa(lp1040
I0
aI1
aI0
aI1
aaa(lp1041
(lp1042
I2
aI2
aI0
aI0
aa(lp1043
I2
aI2
aI0
aI0
aa(lp1044
I2
aI2
aI1
aI0
aa(lp1045
I2
aI2
aI0
aI0
aaa(lp1046
(lp1047
I0
aI1
aI0
aI0
aa(lp1048
I0
aI0
aI0
aI0
aa(lp1049
I2
aI2
aI1
aI0
aa(lp1050
I2
aI2
aI0
aI0
aaa(lp1051
(lp1052
I0
aI0
aI0
aI1
aa(lp1053
I0
aI0
aI0
aI0
aa(lp1054
I2
aI2
aI0
aI0
aa(lp1055
I2
aI2
aI1
aI0
aaa(lp1056
(lp1057
I0
aI0
aI0
aI1
aa(lp1058
I0
aI0
aI0
aI1
aa(lp1059
I0
aI0
aI0
aI1
aa(lp1060
I0
aI0
aI0
aI0
aaa(lp1061
(lp1062
I0
aI0
aI0
aI0
aa(lp1063
I1
aI2
aI2
aI0
aa(lp1064
I0
aI2
aI2
aI0
aa(lp1065
I0
aI0
aI0
aI1
aaa(lp1066
(lp1067
I0
aI2
aI2
aI0
aa(lp1068
I1
aI2
aI2
aI0
aa(lp1069
I0
aI0
aI0
aI0
aa(lp1070
I1
aI0
aI0
aI0
aaa(lp1071
(lp1072
I0
aI0
aI0
aI0
aa(lp1073
I0
aI0
aI0
aI0
aa(lp1074
I1
aI0
aI0
aI0
aa(lp1075
I1
aI0
aI1
aI0
aaa(lp1076
(lp1077
I1
aI0
aI0
aI0
aa(lp1078
I0
aI0
aI0
aI1
aa(lp1079
I0
aI0
aI0
aI0
aa(lp1080
I0
aI0
aI1
aI0
aaa(lp1081
(lp1082
I3
aI3
aI3
aI0
aa(lp1083
I3
aI3
aI3
aI0
aa(lp1084
I3
aI3
aI3
aI0
aa(lp1085
I1
aI0
aI1
aI0
aaa(lp1086
(lp1087
I0
aI0
aI0
aI0
aa(lp1088
I0
aI0
aI0
aI1
aa(lp1089
I0
aI2
aI2
aI0
aa(lp1090
I0
aI2
aI2
aI1
aaa(lp1091
(lp1092
I0
aI1
aI2
aI2
aa(lp1093
I0
aI0
aI2
aI2
aa(lp1094
I0
aI2
aI2
aI0
aa(lp1095
I0
aI2
aI2
aI0
aaa(lp1096
(lp1097
I0
aI0
aI2
aI2
aa(lp1098
I0
aI0
aI2
aI2
aa(lp1099
I2
aI2
aI1
aI0
aa(lp1100
I2
aI2
aI0
aI0
aaa(lp1101
(lp1102
I2
aI2
aI0
aI1
aa(lp1103
I2
aI2
aI0
aI0
aa(lp1104
I0
aI0
aI0
aI1
aa(lp1105
I0
aI0
aI0
aI0
aaa(lp1106
(lp1107
I2
aI2
aI0
aI0
aa(lp1108
I2
aI2
aI0
aI0
aa(lp1109
I0
aI0
aI1
aI0
aa(lp1110
I0
aI0
aI1
aI0
aaa(lp1111
(lp1112
I0
aI2
aI2
aI1
aa(lp1113
I0
aI2
aI2
aI0
aa(lp1114
I0
aI0
aI1
aI0
aa(lp1115
I0
aI0
aI0
aI0
aaa(lp1116
(lp1117
I0
aI0
aI0
aI0
aa(lp1118
I0
aI0
aI0
aI1
aa(lp1119
I0
aI1
aI0
aI1
aa(lp1120
I0
aI0
aI0
aI0
aaa(lp1121
(lp1122
I2
aI2
aI0
aI0
aa(lp1123
I2
aI2
aI0
aI0
aa(lp1124
I0
aI0
aI2
aI2
aa(lp1125
I0
aI1
aI2
aI2
aaa(lp1126
(lp1127
I0
aI0
aI0
aI0
aa(lp1128
I3
aI3
aI3
aI0
aa(lp1129
I3
aI3
aI3
aI1
aa(lp1130
I3
aI3
aI3
aI1
aaa(lp1131
(lp1132
I0
aI0
aI0
aI0
aa(lp1133
I1
aI1
aI0
aI0
aa(lp1134
I0
aI0
aI0
aI0
aa(lp1135
I1
aI0
aI0
aI0
aaa(lp1136
(lp1137
I1
aI0
aI0
aI0
aa(lp1138
I1
aI3
aI3
aI3
aa(lp1139
I0
aI3
aI3
aI3
aa(lp1140
I0
aI3
aI3
aI3
aaa(lp1141
(lp1142
I0
aI0
aI1
aI0
aa(lp1143
I1
aI0
aI0
aI0
aa(lp1144
I0
aI0
aI0
aI0
aa(lp1145
I0
aI0
aI1
aI0
aaa(lp1146
(lp1147
I0
aI0
aI0
aI0
aa(lp1148
I0
aI1
aI0
aI0
aa(lp1149
I0
aI0
aI1
aI1
aa(lp1150
I0
aI0
aI0
aI0
aaa(lp1151
(lp1152
I0
aI0
aI0
aI1
aa(lp1153
I1
aI0
aI0
aI0
aa(lp1154
I1
aI0
aI0
aI0
aa(lp1155
I0
aI0
aI0
aI0
aaa(lp1156
(lp1157
I0
aI0
aI0
aI1
aa(lp1158
I1
aI0
aI0
aI0
aa(lp1159
I0
aI0
aI2
aI2
aa(lp1160
I0
aI0
aI2
aI2
aaa(lp1161
(lp1162
I1
aI1
aI0
aI0
aa(lp1163
I0
aI2
aI2
aI0
aa(lp1164
I0
aI2
aI2
aI0
aa(lp1165
I0
aI0
aI0
aI0
aaa(lp1166
(lp1167
I0
aI0
aI0
aI0
aa(lp1168
I1
aI0
aI1
aI1
aa(lp1169
I0
aI0
aI0
aI0
aa(lp1170
I0
aI0
aI0
aI0
aaa(lp1171
(lp1172
I0
aI0
aI0
aI1
aa(lp1173
I0
aI0
aI2
aI2
aa(lp1174
I0
aI1
aI2
aI2
aa(lp1175
I0
aI0
aI0
aI0
aaa(lp1176
(lp1177
I0
aI0
aI0
aI0
aa(lp1178
I0
aI0
aI0
aI0
aa(lp1179
I1
aI0
aI0
aI1
aa(lp1180
I0
aI0
aI0
aI1
aaa(lp1181
(lp1182
I0
aI0
aI0
aI0
aa(lp1183
I0
aI0
aI1
aI1
aa(lp1184
I0
aI0
aI0
aI0
aa(lp1185
I0
aI0
aI0
aI1
aaa(lp1186
(lp1187
I0
aI0
aI0
aI0
aa(lp1188
I0
aI0
aI0
aI0
aa(lp1189
I0
aI1
aI0
aI1
aa(lp1190
I1
aI0
aI0
aI0
aaa(lp1191
(lp1192
I0
aI0
aI0
aI0
aa(lp1193
I0
aI1
aI0
aI0
aa(lp1194
I0
aI1
aI0
aI0
aa(lp1195
I0
aI0
aI1
aI0
aaa(lp1196
(lp1197
I0
aI0
aI0
aI1
aa(lp1198
I0
aI0
aI0
aI0
aa(lp1199
I0
aI0
aI2
aI2
aa(lp1200
I1
aI0
aI2
aI2
aaa(lp1201
(lp1202
I0
aI0
aI1
aI0
aa(lp1203
I0
aI3
aI3
aI3
aa(lp1204
I1
aI3
aI3
aI3
aa(lp1205
I0
aI3
aI3
aI3
aaa(lp1206
(lp1207
I0
aI0
aI0
aI0
aa(lp1208
I1
aI0
aI0
aI0
aa(lp1209
I0
aI0
aI1
aI0
aa(lp1210
I0
aI0
aI1
aI0
aaa(lp1211
(lp1212
I0
aI0
aI0
aI0
aa(lp1213
I0
aI0
aI0
aI0
aa(lp1214
I0
aI0
aI1
aI0
aa(lp1215
I0
aI1
aI0
aI1
aaa(lp1216
(lp1217
I0
aI0
aI0
aI1
aa(lp1218
I0
aI0
aI0
aI0
aa(lp1219
I0
aI1
aI0
aI0
aa(lp1220
I0
aI0
aI1
aI0
aaa(lp1221
(lp1222
I0
aI1
aI0
aI1
aa(lp1223
I0
aI1
aI0
aI0
aa(lp1224
I0
aI0
aI0
aI0
aa(lp1225
I0
aI0
aI0
aI0
aaa(lp1226
(lp1227
I1
aI0
aI0
aI0
aa(lp1228
I0
aI0
aI0
aI0
aa(lp1229
I0
aI0
aI0
aI0
aa(lp1230
I1
aI0
aI0
aI1
aaa(lp1231
(lp1232
I0
aI0
aI0
aI0
aa(lp1233
I2
aI2
aI1
aI0
aa(lp1234
I2
aI2
aI0
aI0
aa(lp1235
I0
aI0
aI1
aI0
aaa(lp1236
(lp1237
I0
aI2
aI2
aI1
aa(lp1238
I0
aI2
aI2
aI0
aa(lp1239
I2
aI2
aI0
aI0
aa(lp1240
I2
aI2
aI0
aI0
aaa(lp1241
(lp1242
I0
aI0
aI1
aI0
aa(lp1243
I3
aI3
aI3
aI1
aa(lp1244
I3
aI3
aI3
aI0
aa(lp1245
I3
aI3
aI3
aI0
aaa(lp1246
(lp1247
I0
aI0
aI0
aI0
aa(lp1248
I0
aI0
aI0
aI0
aa(lp1249
I0
aI0
aI0
aI1
aa(lp1250
I0
aI1
aI1
aI0
aaa(lp1251
(lp1252
I0
aI0
aI1
aI0
aa(lp1253
I0
aI3
aI3
aI3
aa(lp1254
I0
aI3
aI3
aI3
aa(lp1255
I1
aI3
aI3
aI3
aaa(lp1256
(lp1257
I0
aI0
aI0
aI1
aa(lp1258
I0
aI0
aI0
aI0
aa(lp1259
I0
aI2
aI2
aI0
aa(lp1260
I0
aI2
aI2
aI1
aaa(lp1261
(lp1262
I0
aI0
aI0
aI0
aa(lp1263
I0
aI0
aI0
aI0
aa(lp1264
I0
aI0
aI0
aI0
aa(lp1265
I1
aI0
aI1
aI1
aaa(lp1266
(lp1267
I0
aI0
aI2
aI2
aa(lp1268
I2
aI2
aI2
aI2
aa(lp1269
I2
aI2
aI0
aI0
aa(lp1270
I0
aI0
aI0
aI1
aaa(lp1271
(lp1272
I0
aI0
aI0
aI0
aa(lp1273
I0
aI0
aI0
aI1
aa(lp1274
I0
aI0
aI0
aI0
aa(lp1275
I1
aI0
aI0
aI1
aaa(lp1276
(lp1277
I0
aI0
aI0
aI1
aa(lp1278
I0
aI0
aI0
aI1
aa(lp1279
I0
aI1
aI0
aI0
aa(lp1280
I0
aI0
aI0
aI0
aaa(lp1281
(lp1282
I0
aI2
aI2
aI0
aa(lp1283
I0
aI2
aI2
aI1
aa(lp1284
I0
aI0
aI0
aI1
aa(lp1285
I0
aI0
aI0
aI0
aaa(lp1286
(lp1287
I1
aI0
aI0
aI0
aa(lp1288
I0
aI0
aI0
aI0
aa(lp1289
I0
aI0
aI0
aI0
aa(lp1290
I0
aI0
aI1
aI1
aaa(lp1291
(lp1292
I0
aI0
aI0
aI0
aa(lp1293
I0
aI0
aI2
aI2
aa(lp1294
I0
aI1
aI2
aI2
aa(lp1295
I1
aI0
aI0
aI0
aaa(lp1296
(lp1297
I0
aI0
aI0
aI0
aa(lp1298
I0
aI0
aI1
aI1
aa(lp1299
I0
aI0
aI0
aI0
aa(lp1300
I0
aI1
aI0
aI0
aaa(lp1301
(lp1302
I0
aI0
aI0
aI0
aa(lp1303
I2
aI2
aI0
aI0
aa(lp1304
I2
aI2
aI0
aI0
aa(lp1305
I0
aI1
aI1
aI0
aaa(lp1306
(lp1307
I0
aI0
aI0
aI0
aa(lp1308
I0
aI0
aI0
aI1
aa(lp1309
I2
aI2
aI0
aI0
aa(lp1310
I2
aI2
aI1
aI0
aaa(lp1311
(lp1312
I0
aI0
aI0
aI1
aa(lp1313
I0
aI0
aI0
aI0
aa(lp1314
I0
aI0
aI1
aI0
aa(lp1315
I0
aI0
aI1
aI0
aaa(lp1316
(lp1317
I0
aI0
aI0
aI1
aa(lp1318
I0
aI0
aI1
aI0
aa(lp1319
I0
aI1
aI0
aI0
aa(lp1320
I0
aI0
aI0
aI0
aaa(lp1321
(lp1322
I0
aI0
aI0
aI0
aa(lp1323
I0
aI2
aI2
aI0
aa(lp1324
I1
aI2
aI2
aI0
aa(lp1325
I1
aI0
aI0
aI0
aaa(lp1326
(lp1327
I0
aI0
aI0
aI0
aa(lp1328
I0
aI0
aI2
aI2
aa(lp1329
I0
aI0
aI2
aI2
aa(lp1330
I0
aI1
aI1
aI0
aaa(lp1331
(lp1332
I0
aI0
aI0
aI0
aa(lp1333
I0
aI1
aI0
aI0
aa(lp1334
I0
aI0
aI1
aI0
aa(lp1335
I0
aI1
aI0
aI0
aaa(lp1336
(lp1337
I0
aI2
aI2
aI0
aa(lp1338
I0
aI2
aI2
aI0
aa(lp1339
I2
aI2
aI2
aI2
aa(lp1340
I2
aI2
aI2
aI2
aaa(lp1341
(lp1342
I0
aI1
aI0
aI0
aa(lp1343
I0
aI0
aI0
aI0
aa(lp1344
I1
aI0
aI0
aI0
aa(lp1345
I0
aI1
aI0
aI0
aaa(lp1346
(lp1347
I0
aI0
aI0
aI0
aa(lp1348
I0
aI0
aI1
aI0
aa(lp1349
I0
aI0
aI0
aI0
aa(lp1350
I0
aI0
aI1
aI1
aaa(lp1351
(lp1352
I3
aI3
aI3
aI0
aa(lp1353
I3
aI3
aI3
aI0
aa(lp1354
I3
aI3
aI3
aI1
aa(lp1355
I0
aI0
aI0
aI1
aaa(lp1356
(lp1357
I2
aI2
aI1
aI0
aa(lp1358
I2
aI2
aI0
aI0
aa(lp1359
I0
aI2
aI2
aI0
aa(lp1360
I0
aI2
aI2
aI0
aaa(lp1361
(lp1362
I0
aI0
aI0
aI0
aa(lp1363
I1
aI0
aI0
aI0
aa(lp1364
I0
aI0
aI0
aI1
aa(lp1365
I0
aI0
aI1
aI0
aaa(lp1366
(lp1367
I0
aI1
aI0
aI0
aa(lp1368
I0
aI0
aI2
aI2
aa(lp1369
I0
aI0
aI2
aI2
aa(lp1370
I0
aI0
aI1
aI0
aaa(lp1371
(lp1372
I0
aI0
aI2
aI2
aa(lp1373
I2
aI2
aI2
aI2
aa(lp1374
I2
aI2
aI0
aI0
aa(lp1375
I1
aI0
aI0
aI0
aaa(lp1376
(lp1377
I0
aI0
aI0
aI1
aa(lp1378
I3
aI3
aI3
aI0
aa(lp1379
I3
aI3
aI3
aI0
aa(lp1380
I3
aI3
aI3
aI1
aaa(lp1381
(lp1382
I0
aI0
aI0
aI0
aa(lp1383
I1
aI0
aI0
aI0
aa(lp1384
I0
aI0
aI0
aI0
aa(lp1385
I1
aI0
aI0
aI1
aaa(lp1386
(lp1387
I0
aI1
aI0
aI0
aa(lp1388
I0
aI0
aI0
aI0
aa(lp1389
I0
aI0
aI1
aI0
aa(lp1390
I1
aI0
aI0
aI0
aaa(lp1391
(lp1392
I0
aI1
aI0
aI0
aa(lp1393
I0
aI0
aI1
aI1
aa(lp1394
I0
aI0
aI0
aI0
aa(lp1395
I0
aI0
aI0
aI0
aaa(lp1396
(lp1397
I0
aI1
aI2
aI2
aa(lp1398
I0
aI0
aI2
aI2
aa(lp1399
I1
aI0
aI0
aI0
aa(lp1400
I0
aI0
aI0
aI0
aaa(lp1401
(lp1402
I0
aI2
aI2
aI0
aa(lp1403
I1
aI2
aI2
aI0
aa(lp1404
I1
aI0
aI0
aI0
aa(lp1405
I0
aI0
aI0
aI0
aaa(lp1406
(lp1407
I0
aI0
aI0
aI0
aa(lp1408
I0
aI1
aI0
aI0
aa(lp1409
I0
aI0
aI1
aI0
aa(lp1410
I0
aI0
aI0
aI1
aaa(lp1411
(lp1412
I0
aI0
aI0
aI0
aa(lp1413
I0
aI0
aI0
aI0
aa(lp1414
I1
aI0
aI0
aI0
aa(lp1415
I1
aI0
aI0
aI1
aaa(lp1416
(lp1417
I2
aI2
aI0
aI0
aa(lp1418
I2
aI2
aI0
aI0
aa(lp1419
I0
aI0
aI1
aI1
aa(lp1420
I0
aI0
aI0
aI0
aaa(lp1421
(lp1422
I0
aI0
aI2
aI2
aa(lp1423
I0
aI0
aI2
aI2
aa(lp1424
I2
aI2
aI0
aI0
aa(lp1425
I2
aI2
aI1
aI0
aaa(lp1426
(lp1427
I0
aI0
aI0
aI0
aa(lp1428
I3
aI3
aI3
aI1
aa(lp1429
I3
aI3
aI3
aI0
aa(lp1430
I3
aI3
aI3
aI1
aaa(lp1431
(lp1432
I0
aI0
aI0
aI1
aa(lp1433
I0
aI2
aI2
aI0
aa(lp1434
I0
aI2
aI2
aI0
aa(lp1435
I0
aI1
aI0
aI0
aaa(lp1436
(lp1437
I1
aI0
aI0
aI0
aa(lp1438
I0
aI2
aI2
aI0
aa(lp1439
I0
aI2
aI2
aI1
aa(lp1440
I0
aI0
aI0
aI0
aaa(lp1441
(lp1442
I0
aI0
aI1
aI0
aa(lp1443
I0
aI0
aI1
aI0
aa(lp1444
I0
aI0
aI0
aI0
aa(lp1445
I0
aI0
aI1
aI0
aaa(lp1446
(lp1447
I0
aI0
aI0
aI0
aa(lp1448
I0
aI0
aI2
aI2
aa(lp1449
I0
aI0
aI2
aI2
aa(lp1450
I1
aI0
aI1
aI0
aaa(lp1451
(lp1452
I0
aI0
aI1
aI0
aa(lp1453
I0
aI0
aI0
aI0
aa(lp1454
I0
aI2
aI2
aI1
aa(lp1455
I0
aI2
aI2
aI0
aaa(lp1456
(lp1457
I0
aI0
aI0
aI0
aa(lp1458
I0
aI0
aI1
aI0
aa(lp1459
I1
aI0
aI0
aI0
aa(lp1460
I1
aI0
aI0
aI0
aaa(lp1461
(lp1462
I0
aI0
aI0
aI1
aa(lp1463
I0
aI0
aI0
aI0
aa(lp1464
I0
aI1
aI0
aI1
aa(lp1465
I0
aI0
aI0
aI0
aaa(lp1466
(lp1467
I1
aI0
aI0
aI1
aa(lp1468
I0
aI0
aI0
aI0
aa(lp1469
I0
aI0
aI0
aI0
aa(lp1470
I0
aI0
aI0
aI1
aaa(lp1471
(lp1472
I0
aI0
aI0
aI0
aa(lp1473
I0
aI0
aI0
aI1
aa(lp1474
I0
aI0
aI1
aI0
aa(lp1475
I1
aI0
aI0
aI0
aaa(lp1476
(lp1477
I0
aI0
aI0
aI0
aa(lp1478
I1
aI0
aI0
aI0
aa(lp1479
I0
aI0
aI0
aI0
aa(lp1480
I0
aI1
aI1
aI0
aaa(lp1481
(lp1482
I0
aI0
aI0
aI0
aa(lp1483
I0
aI0
aI0
aI1
aa(lp1484
I0
aI0
aI0
aI0
aa(lp1485
I0
aI1
aI1
aI0
aaa(lp1486
(lp1487
I0
aI0
aI1
aI0
aa(lp1488
I0
aI0
aI2
aI2
aa(lp1489
I0
aI0
aI2
aI2
aa(lp1490
I1
aI0
aI0
aI0
aaa(lp1491
(lp1492
I0
aI1
aI1
aI0
aa(lp1493
I0
aI0
aI2
aI2
aa(lp1494
I0
aI0
aI2
aI2
aa(lp1495
I0
aI0
aI0
aI0
aaa(lp1496
(lp1497
I1
aI3
aI3
aI3
aa(lp1498
I0
aI3
aI3
aI3
aa(lp1499
I0
aI3
aI3
aI3
aa(lp1500
I0
aI1
aI0
aI0
aaa(lp1501
(lp1502
I0
aI0
aI0
aI0
aa(lp1503
I1
aI1
aI0
aI0
aa(lp1504
I0
aI0
aI0
aI0
aa(lp1505
I0
aI0
aI0
aI1
aaa(lp1506
(lp1507
I0
aI0
aI0
aI0
aa(lp1508
I0
aI0
aI1
aI1
aa(lp1509
I0
aI0
aI0
aI1
aa(lp1510
I0
aI0
aI0
aI0
aaa(lp1511
(lp1512
I0
aI1
aI0
aI0
aa(lp1513
I0
aI0
aI0
aI0
aa(lp1514
I1
aI0
aI1
aI0
aa(lp1515
I0
aI0
aI0
aI0
aaa(lp1516
(lp1517
I0
aI0
aI1
aI0
aa(lp1518
I1
aI0
aI0
aI1
aa(lp1519
I0
aI0
aI0
aI0
aa(lp1520
I0
aI0
aI0
aI0
aaa(lp1521
(lp1522
I0
aI0
aI0
aI0
aa(lp1523
I0
aI0
aI0
aI0
aa(lp1524
I0
aI0
aI1
aI0
aa(lp1525
I1
aI1
aI0
aI0
aaa(lp1526
(lp1527
I1
aI0
aI0
aI0
aa(lp1528
I0
aI0
aI0
aI0
aa(lp1529
I0
aI1
aI2
aI2
aa(lp1530
I0
aI0
aI2
aI2
aaa(lp1531
(lp1532
I0
aI3
aI3
aI3
aa(lp1533
I1
aI3
aI3
aI3
aa(lp1534
I1
aI3
aI3
aI3
aa(lp1535
I0
aI0
aI0
aI0
aaa(lp1536
(lp1537
I0
aI0
aI0
aI1
aa(lp1538
I0
aI2
aI2
aI0
aa(lp1539
I1
aI2
aI2
aI0
aa(lp1540
I0
aI0
aI0
aI0
aaa(lp1541
(lp1542
I0
aI0
aI0
aI1
aa(lp1543
I0
aI1
aI1
aI0
aa(lp1544
I0
aI0
aI0
aI0
aa(lp1545
I0
aI0
aI0
aI0
aaa(lp1546
(lp1547
I0
aI0
aI0
aI0
aa(lp1548
I0
aI0
aI0
aI0
aa(lp1549
I0
aI0
aI0
aI1
aa(lp1550
I1
aI0
aI1
aI0
aaa(lp1551
(lp1552
I0
aI0
aI1
aI0
aa(lp1553
I0
aI0
aI1
aI0
aa(lp1554
I0
aI0
aI0
aI1
aa(lp1555
I0
aI0
aI0
aI0
aaa(lp1556
(lp1557
I2
aI2
aI0
aI0
aa(lp1558
I2
aI2
aI0
aI0
aa(lp1559
I0
aI0
aI1
aI0
aa(lp1560
I1
aI0
aI0
aI0
aaa(lp1561
(lp1562
I3
aI3
aI3
aI0
aa(lp1563
I3
aI3
aI3
aI0
aa(lp1564
I3
aI3
aI3
aI1
aa(lp1565
I1
aI0
aI0
aI0
aaa(lp1566
(lp1567
I0
aI0
aI0
aI1
aa(lp1568
I0
aI0
aI0
aI0
aa(lp1569
I0
aI0
aI0
aI1
aa(lp1570
I0
aI0
aI0
aI1
aaa(lp1571
(lp1572
I0
aI0
aI0
aI0
aa(lp1573
I1
aI0
aI0
aI0
aa(lp1574
I0
aI0
aI0
aI0
aa(lp1575
I0
aI1
aI0
aI1
aaa(lp1576
(lp1577
I0
aI0
aI1
aI0
aa(lp1578
I0
aI0
aI0
aI1
aa(lp1579
I0
aI0
aI0
aI0
aa(lp1580
I0
aI0
aI1
aI0
aaa(lp1581
(lp1582
I0
aI3
aI3
aI3
aa(lp1583
I0
aI3
aI3
aI3
aa(lp1584
I0
aI3
aI3
aI3
aa(lp1585
I0
aI1
aI1
aI0
aaa(lp1586
(lp1587
I2
aI2
aI0
aI0
aa(lp1588
I2
aI2
aI0
aI0
aa(lp1589
I0
aI1
aI0
aI0
aa(lp1590
I0
aI1
aI0
aI0
aaa(lp1591
(lp1592
I0
aI0
aI1
aI0
aa(lp1593
I0
aI0
aI1
aI0
aa(lp1594
I0
aI1
aI0
aI0
aa(lp1595
I0
aI0
aI0
aI0
aaa(lp1596
(lp1597
I0
aI0
aI0
aI0
aa(lp1598
I2
aI2
aI0
aI0
aa(lp1599
I2
aI2
aI0
aI1
aa(lp1600
I0
aI0
aI1
aI0
aaa(lp1601
(lp1602
I0
aI0
aI0
aI0
aa(lp1603
I0
aI1
aI0
aI1
aa(lp1604
I1
aI0
aI0
aI0
aa(lp1605
I0
aI0
aI0
aI0
aaa(lp1606
(lp1607
I0
aI0
aI0
aI0
aa(lp1608
I0
aI0
aI1
aI0
aa(lp1609
I0
aI2
aI2
aI1
aa(lp1610
I0
aI2
aI2
aI0
aaa(lp1611
(lp1612
I2
aI2
aI1
aI0
aa(lp1613
I2
aI2
aI0
aI0
aa(lp1614
I0
aI0
aI2
aI2
aa(lp1615
I0
aI0
aI2
aI2
aaa(lp1616
(lp1617
I1
aI1
aI0
aI0
aa(lp1618
I0
aI3
aI3
aI3
aa(lp1619
I0
aI3
aI3
aI3
aa(lp1620
I0
aI3
aI3
aI3
aaa(lp1621
(lp1622
I0
aI0
aI0
aI1
aa(lp1623
I0
aI0
aI1
aI0
aa(lp1624
I1
aI0
aI0
aI0
aa(lp1625
I0
aI0
aI0
aI0
aaa(lp1626
(lp1627
I0
aI3
aI3
aI3
aa(lp1628
I1
aI3
aI3
aI3
aa(lp1629
I0
aI3
aI3
aI3
aa(lp1630
I0
aI1
aI0
aI0
aaa(lp1631
(lp1632
I0
aI0
aI0
aI0
aa(lp1633
I0
aI0
aI0
aI1
aa(lp1634
I1
aI0
aI1
aI0
aa(lp1635
I0
aI0
aI0
aI0
aaa(lp1636
(lp1637
I0
aI1
aI0
aI0
aa(lp1638
I0
aI3
aI3
aI3
aa(lp1639
I1
aI3
aI3
aI3
aa(lp1640
I0
aI3
aI3
aI3
aaa(lp1641
(lp1642
I0
aI0
aI0
aI0
aa(lp1643
I0
aI0
aI0
aI0
aa(lp1644
I0
aI0
aI1
aI0
aa(lp1645
I1
aI0
aI0
aI1
aaa(lp1646
(lp1647
I0
aI1
aI0
aI0
aa(lp1648
I0
aI0
aI0
aI0
aa(lp1649
I1
aI1
aI0
aI0
aa(lp1650
I0
aI0
aI0
aI0
aaa(lp1651
(lp1652
I2
aI2
aI0
aI0
aa(lp1653
I2
aI2
aI1
aI0
aa(lp1654
I0
aI0
aI0
aI0
aa(lp1655
I0
aI0
aI1
aI0
aaa(lp1656
(lp1657
I0
aI0
aI0
aI0
aa(lp1658
I0
aI0
aI0
aI0
aa(lp1659
I1
aI0
aI2
aI2
aa(lp1660
I0
aI1
aI2
aI2
aaa(lp1661
(lp1662
I0
aI0
aI0
aI0
aa(lp1663
I0
aI2
aI2
aI0
aa(lp1664
I0
aI2
aI2
aI0
aa(lp1665
I1
aI1
aI0
aI0
aaa(lp1666
(lp1667
I1
aI0
aI0
aI1
aa(lp1668
I0
aI0
aI0
aI0
aa(lp1669
I0
aI0
aI0
aI0
aa(lp1670
I0
aI1
aI0
aI0
aaa(lp1671
(lp1672
I0
aI0
aI0
aI0
aa(lp1673
I0
aI0
aI0
aI0
aa(lp1674
I0
aI0
aI2
aI2
aa(lp1675
I1
aI1
aI2
aI2
aaa(lp1676
(lp1677
I0
aI2
aI2
aI1
aa(lp1678
I0
aI2
aI2
aI0
aa(lp1679
I0
aI0
aI0
aI0
aa(lp1680
I0
aI0
aI0
aI1
aaa(lp1681
(lp1682
I0
aI0
aI0
aI0
aa(lp1683
I0
aI0
aI0
aI0
aa(lp1684
I0
aI1
aI0
aI0
aa(lp1685
I0
aI1
aI1
aI0
aaa(lp1686
(lp1687
I0
aI0
aI2
aI2
aa(lp1688
I2
aI2
aI2
aI2
aa(lp1689
I2
aI2
aI0
aI0
aa(lp1690
I0
aI1
aI0
aI0
aaa(lp1691
(lp1692
I0
aI2
aI2
aI0
aa(lp1693
I0
aI2
aI2
aI0
aa(lp1694
I1
aI0
aI0
aI0
aa(lp1695
I0
aI1
aI0
aI0
aaa(lp1696
(lp1697
I0
aI0
aI0
aI0
aa(lp1698
I0
aI0
aI0
aI0
aa(lp1699
I1
aI0
aI0
aI0
aa(lp1700
I1
aI1
aI0
aI0
aaa(lp1701
(lp1702
I1
aI3
aI3
aI3
aa(lp1703
I1
aI3
aI3
aI3
aa(lp1704
I0
aI3
aI3
aI3
aa(lp1705
I0
aI0
aI0
aI0
aaa(lp1706
(lp1707
I0
aI0
aI0
aI0
aa(lp1708
I0
aI2
aI2
aI1
aa(lp1709
I0
aI2
aI2
aI1
aa(lp1710
I0
aI0
aI0
aI0
aaa(lp1711
(lp1712
I0
aI0
aI0
aI0
aa(lp1713
I1
aI1
aI0
aI0
aa(lp1714
I0
aI0
aI0
aI0
aa(lp1715
I0
aI0
aI1
aI0
aaa(lp1716
(lp1717
I0
aI0
aI0
aI0
aa(lp1718
I0
aI1
aI0
aI1
aa(lp1719
I0
aI0
aI2
aI2
aa(lp1720
I0
aI0
aI2
aI2
aaa(lp1721
(lp1722
I3
aI3
aI3
aI1
aa(lp1723
I3
aI3
aI3
aI0
aa(lp1724
I3
aI3
aI3
aI1
aa(lp1725
I0
aI0
aI0
aI0
aaa(lp1726
(lp1727
I0
aI0
aI0
aI0
aa(lp1728
I0
aI0
aI0
aI1
aa(lp1729
I1
aI0
aI2
aI2
aa(lp1730
I0
aI0
aI2
aI2
aaa(lp1731
(lp1732
I0
aI0
aI0
aI0
aa(lp1733
I0
aI0
aI0
aI0
aa(lp1734
I1
aI1
aI0
aI1
aa(lp1735
I0
aI0
aI0
aI0
aaa(lp1736
(lp1737
I0
aI1
aI0
aI0
aa(lp1738
I0
aI0
aI0
aI0
aa(lp1739
I2
aI2
aI0
aI0
aa(lp1740
I2
aI2
aI1
aI0
aaa(lp1741
(lp1742
I0
aI1
aI1
aI0
aa(lp1743
I0
aI0
aI0
aI1
aa(lp1744
I0
aI0
aI0
aI0
aa(lp1745
I0
aI0
aI0
aI0
aaa(lp1746
(lp1747
I2
aI2
aI0
aI0
aa(lp1748
I2
aI2
aI0
aI1
aa(lp1749
I0
aI0
aI0
aI0
aa(lp1750
I1
aI0
aI0
aI0
aaa(lp1751
(lp1752
I0
aI0
aI0
aI1
aa(lp1753
I2
aI2
aI1
aI0
aa(lp1754
I2
aI2
aI0
aI0
aa(lp1755
I0
aI0
aI0
aI0
aaa(lp1756
(lp1757
I0
aI0
aI0
aI0
aa(lp1758
I1
aI0
aI0
aI1
aa(lp1759
I0
aI1
aI0
aI0
aa(lp1760
I0
aI0
aI0
aI0
aaa(lp1761
(lp1762
I2
aI2
aI0
aI1
aa(lp1763
I2
aI2
aI0
aI0
aa(lp1764
I0
aI1
aI0
aI0
aa(lp1765
I0
aI0
aI0
aI0
aaa(lp1766
(lp1767
I1
aI0
aI2
aI2
aa(lp1768
I1
aI0
aI2
aI2
aa(lp1769
I0
aI0
aI0
aI0
aa(lp1770
I0
aI0
aI0
aI0
aaa(lp1771
(lp1772
I0
aI1
aI0
aI0
aa(lp1773
I0
aI0
aI0
aI0
aa(lp1774
I0
aI0
aI2
aI2
aa(lp1775
I1
aI0
aI2
aI2
aaa(lp1776
(lp1777
I0
aI0
aI1
aI0
aa(lp1778
I0
aI0
aI0
aI0
aa(lp1779
I0
aI0
aI0
aI0
aa(lp1780
I0
aI1
aI0
aI1
aaa(lp1781
(lp1782
I0
aI0
aI0
aI1
aa(lp1783
I0
aI0
aI0
aI1
aa(lp1784
I0
aI0
aI0
aI0
aa(lp1785
I0
aI0
aI0
aI1
aaa(lp1786
(lp1787
I2
aI2
aI0
aI0
aa(lp1788
I2
aI2
aI0
aI1
aa(lp1789
I0
aI1
aI0
aI0
aa(lp1790
I0
aI0
aI0
aI0
aaa(lp1791
(lp1792
I0
aI0
aI0
aI0
aa(lp1793
I2
aI2
aI1
aI0
aa(lp1794
I2
aI2
aI0
aI0
aa(lp1795
I0
aI0
aI0
aI1
aaa(lp1796
(lp1797
I0
aI0
aI0
aI1
aa(lp1798
I0
aI0
aI0
aI1
aa(lp1799
I0
aI0
aI0
aI0
aa(lp1800
I0
aI0
aI1
aI0
aaa(lp1801
(lp1802
I0
aI0
aI0
aI0
aa(lp1803
I1
aI0
aI0
aI0
aa(lp1804
I0
aI2
aI2
aI1
aa(lp1805
I0
aI2
aI2
aI0
aaa(lp1806
(lp1807
I0
aI1
aI0
aI0
aa(lp1808
I0
aI0
aI0
aI0
aa(lp1809
I0
aI2
aI2
aI0
aa(lp1810
I0
aI2
aI2
aI1
aaa(lp1811
(lp1812
I1
aI0
aI0
aI0
aa(lp1813
I0
aI0
aI0
aI0
aa(lp1814
I2
aI2
aI0
aI1
aa(lp1815
I2
aI2
aI0
aI0
aaa(lp1816
(lp1817
I0
aI0
aI2
aI2
aa(lp1818
I1
aI0
aI2
aI2
aa(lp1819
I0
aI0
aI0
aI0
aa(lp1820
I1
aI0
aI0
aI0
aaa(lp1821
(lp1822
I1
aI2
aI2
aI0
aa(lp1823
I0
aI2
aI2
aI0
aa(lp1824
I0
aI0
aI0
aI0
aa(lp1825
I1
aI0
aI0
aI0
aaa(lp1826
(lp1827
I0
aI0
aI0
aI0
aa(lp1828
I1
aI0
aI0
aI1
aa(lp1829
I0
aI0
aI0
aI1
aa(lp1830
I0
aI0
aI0
aI0
aaa(lp1831
(lp1832
I0
aI0
aI1
aI0
aa(lp1833
I0
aI0
aI0
aI0
aa(lp1834
I0
aI0
aI1
aI1
aa(lp1835
I0
aI0
aI0
aI0
aaa(lp1836
(lp1837
I0
aI0
aI0
aI0
aa(lp1838
I2
aI2
aI0
aI0
aa(lp1839
I2
aI2
aI2
aI2
aa(lp1840
I0
aI1
aI2
aI2
aaa(lp1841
(lp1842
I2
aI2
aI0
aI0
aa(lp1843
I2
aI2
aI0
aI0
aa(lp1844
I2
aI2
aI0
aI0
aa(lp1845
I2
aI2
aI0
aI1
aaa(lp1846
(lp1847
I1
aI2
aI2
aI1
aa(lp1848
I0
aI2
aI2
aI0
aa(lp1849
I0
aI0
aI0
aI0
aa(lp1850
I0
aI0
aI0
aI0
aaa(lp1851
(lp1852
I0
aI0
aI1
aI0
aa(lp1853
I0
aI0
aI0
aI0
aa(lp1854
I0
aI0
aI0
aI0
aa(lp1855
I1
aI0
aI0
aI1
aaa(lp1856
(lp1857
I0
aI0
aI0
aI0
aa(lp1858
I0
aI0
aI2
aI2
aa(lp1859
I1
aI1
aI2
aI2
aa(lp1860
I0
aI0
aI0
aI0
aaa(lp1861
(lp1862
I2
aI2
aI1
aI0
aa(lp1863
I2
aI2
aI0
aI0
aa(lp1864
I0
aI0
aI0
aI0
aa(lp1865
I0
aI1
aI0
aI0
aaa(lp1866
(lp1867
I1
aI0
aI1
aI1
aa(lp1868
I0
aI0
aI0
aI0
aa(lp1869
I0
aI0
aI0
aI0
aa(lp1870
I0
aI0
aI0
aI0
aaa(lp1871
(lp1872
I0
aI0
aI0
aI0
aa(lp1873
I1
aI0
aI1
aI0
aa(lp1874
I0
aI0
aI1
aI0
aa(lp1875
I0
aI0
aI0
aI0
aaa(lp1876
(lp1877
I0
aI0
aI0
aI0
aa(lp1878
I2
aI2
aI0
aI0
aa(lp1879
I2
aI2
aI0
aI1
aa(lp1880
I1
aI0
aI0
aI0
aaa(lp1881
(lp1882
I0
aI0
aI0
aI1
aa(lp1883
I0
aI0
aI0
aI0
aa(lp1884
I1
aI0
aI0
aI0
aa(lp1885
I0
aI1
aI0
aI0
aaa(lp1886
(lp1887
I0
aI0
aI1
aI0
aa(lp1888
I0
aI0
aI0
aI0
aa(lp1889
I1
aI0
aI0
aI0
aa(lp1890
I0
aI0
aI0
aI1
aaa(lp1891
(lp1892
I1
aI0
aI0
aI0
aa(lp1893
I0
aI0
aI0
aI0
aa(lp1894
I0
aI0
aI0
aI0
aa(lp1895
I0
aI1
aI0
aI1
aaa(lp1896
(lp1897
I2
aI2
aI0
aI0
aa(lp1898
I2
aI2
aI0
aI0
aa(lp1899
I0
aI0
aI0
aI1
aa(lp1900
I0
aI1
aI0
aI0
aaa(lp1901
(lp1902
I0
aI0
aI0
aI1
aa(lp1903
I1
aI0
aI0
aI0
aa(lp1904
I0
aI0
aI0
aI0
aa(lp1905
I0
aI0
aI1
aI0
aaa(lp1906
(lp1907
I1
aI0
aI0
aI1
aa(lp1908
I0
aI0
aI2
aI2
aa(lp1909
I0
aI0
aI2
aI2
aa(lp1910
I0
aI0
aI0
aI0
aaa(lp1911
(lp1912
I0
aI0
aI0
aI0
aa(lp1913
I0
aI1
aI0
aI0
aa(lp1914
I0
aI1
aI0
aI0
aa(lp1915
I1
aI0
aI0
aI0
aaa(lp1916
(lp1917
I0
aI0
aI0
aI0
aa(lp1918
I0
aI0
aI1
aI1
aa(lp1919
I2
aI2
aI0
aI0
aa(lp1920
I2
aI2
aI0
aI0
aaa(lp1921
(lp1922
I0
aI0
aI1
aI0
aa(lp1923
I0
aI0
aI0
aI1
aa(lp1924
I0
aI2
aI2
aI0
aa(lp1925
I0
aI2
aI2
aI0
aaa(lp1926
(lp1927
I0
aI0
aI1
aI0
aa(lp1928
I0
aI1
aI0
aI0
aa(lp1929
I2
aI2
aI0
aI0
aa(lp1930
I2
aI2
aI0
aI0
aaa(lp1931
(lp1932
I0
aI2
aI2
aI0
aa(lp1933
I0
aI2
aI2
aI0
aa(lp1934
I1
aI0
aI2
aI2
aa(lp1935
I0
aI0
aI2
aI2
aaa(lp1936
(lp1937
I0
aI0
aI0
aI0
aa(lp1938
I1
aI2
aI2
aI0
aa(lp1939
I0
aI2
aI2
aI0
aa(lp1940
I0
aI1
aI0
aI0
aaa(lp1941
(lp1942
I0
aI0
aI0
aI1
aa(lp1943
I0
aI2
aI2
aI0
aa(lp1944
I0
aI2
aI2
aI1
aa(lp1945
I0
aI0
aI0
aI0
aaa(lp1946
(lp1947
I0
aI1
aI0
aI0
aa(lp1948
I0
aI0
aI0
aI0
aa(lp1949
I0
aI0
aI0
aI0
aa(lp1950
I0
aI0
aI1
aI1
aaa(lp1951
(lp1952
I0
aI0
aI0
aI0
aa(lp1953
I0
aI0
aI1
aI0
aa(lp1954
I0
aI0
aI0
aI0
aa(lp1955
I0
aI1
aI1
aI0
aaa(lp1956
(lp1957
I2
aI2
aI1
aI0
aa(lp1958
I2
aI2
aI0
aI0
aa(lp1959
I1
aI0
aI0
aI0
aa(lp1960
I0
aI0
aI0
aI0
aaa(lp1961
(lp1962
I0
aI1
aI0
aI0
aa(lp1963
I0
aI0
aI2
aI2
aa(lp1964
I0
aI0
aI2
aI2
aa(lp1965
I0
aI0
aI0
aI1
aaa(lp1966
(lp1967
I0
aI0
aI0
aI1
aa(lp1968
I0
aI0
aI0
aI0
aa(lp1969
I1
aI0
aI2
aI2
aa(lp1970
I0
aI0
aI2
aI2
aaa(lp1971
(lp1972
I0
aI0
aI0
aI0
aa(lp1973
I0
aI1
aI0
aI0
aa(lp1974
I0
aI0
aI0
aI1
aa(lp1975
I0
aI0
aI1
aI0
aaa(lp1976
(lp1977
I0
aI0
aI0
aI0
aa(lp1978
I0
aI0
aI0
aI0
aa(lp1979
I0
aI1
aI2
aI2
aa(lp1980
I0
aI1
aI2
aI2
aaa(lp1981
(lp1982
I0
aI0
aI0
aI0
aa(lp1983
I0
aI0
aI0
aI1
aa(lp1984
I0
aI0
aI0
aI0
aa(lp1985
I0
aI0
aI1
aI1
aaa(lp1986
(lp1987
I0
aI0
aI0
aI1
aa(lp1988
I0
aI0
aI0
aI0
aa(lp1989
I1
aI2
aI2
aI0
aa(lp1990
I0
aI2
aI2
aI0
aaa(lp1991
(lp1992
I0
aI3
aI3
aI3
aa(lp1993
I0
aI3
aI3
aI3
aa(lp1994
I1
aI3
aI3
aI3
aa(lp1995
I0
aI0
aI1
aI0
aaa(lp1996
(lp1997
I0
aI1
aI1
aI0
aa(lp1998
I0
aI0
aI0
aI0
aa(lp1999
I2
aI2
aI0
aI0
aa(lp2000
I2
aI2
aI0
aI0
aaa(lp2001
(lp2002
I2
aI2
aI1
aI0
aa(lp2003
I2
aI2
aI0
aI0
aa(lp2004
I2
aI2
aI0
aI0
aa(lp2005
I2
aI2
aI0
aI0
aaa(lp2006
(lp2007
I0
aI0
aI0
aI0
aa(lp2008
I2
aI2
aI0
aI0
aa(lp2009
I2
aI2
aI1
aI0
aa(lp2010
I0
aI0
aI1
aI0
aaa(lp2011
(lp2012
I0
aI0
aI2
aI2
aa(lp2013
I1
aI0
aI2
aI2
aa(lp2014
I0
aI0
aI2
aI2
aa(lp2015
I0
aI0
aI2
aI2
aaa(lp2016
(lp2017
I0
aI0
aI0
aI1
aa(lp2018
I0
aI0
aI0
aI0
aa(lp2019
I0
aI0
aI1
aI1
aa(lp2020
I0
aI0
aI0
aI0
aaa(lp2021
(lp2022
I0
aI0
aI0
aI0
aa(lp2023
I2
aI2
aI2
aI2
aa(lp2024
I2
aI2
aI2
aI2
aa(lp2025
I0
aI0
aI1
aI0
aaa(lp2026
(lp2027
I0
aI1
aI0
aI0
aa(lp2028
I0
aI3
aI3
aI3
aa(lp2029
I0
aI3
aI3
aI3
aa(lp2030
I1
aI3
aI3
aI3
aaa(lp2031
(lp2032
I0
aI0
aI0
aI0
aa(lp2033
I0
aI1
aI0
aI0
aa(lp2034
I2
aI2
aI0
aI0
aa(lp2035
I2
aI2
aI0
aI1
aaa(lp2036
(lp2037
I0
aI0
aI0
aI1
aa(lp2038
I0
aI0
aI1
aI0
aa(lp2039
I0
aI0
aI1
aI0
aa(lp2040
I0
aI0
aI0
aI0
aaa(lp2041
(lp2042
I0
aI3
aI3
aI3
aa(lp2043
I0
aI3
aI3
aI3
aa(lp2044
I1
aI3
aI3
aI3
aa(lp2045
I1
aI0
aI0
aI0
aaa(lp2046
(lp2047
I0
aI0
aI0
aI1
aa(lp2048
I3
aI3
aI3
aI1
aa(lp2049
I3
aI3
aI3
aI0
aa(lp2050
I3
aI3
aI3
aI0
aaa(lp2051
(lp2052
I0
aI0
aI0
aI0
aa(lp2053
I2
aI2
aI1
aI0
aa(lp2054
I2
aI2
aI0
aI1
aa(lp2055
I0
aI0
aI0
aI0
aaa(lp2056
(lp2057
I0
aI0
aI1
aI0
aa(lp2058
I0
aI0
aI0
aI0
aa(lp2059
I0
aI0
aI1
aI0
aa(lp2060
I0
aI0
aI1
aI0
aaa(lp2061
(lp2062
I0
aI0
aI0
aI0
aa(lp2063
I1
aI0
aI0
aI0
aa(lp2064
I2
aI2
aI0
aI0
aa(lp2065
I2
aI2
aI1
aI0
aaa(lp2066
(lp2067
I0
aI0
aI0
aI0
aa(lp2068
I0
aI0
aI2
aI2
aa(lp2069
I0
aI1
aI2
aI2
aa(lp2070
I0
aI0
aI0
aI1
aaa(lp2071
(lp2072
I0
aI1
aI0
aI0
aa(lp2073
I0
aI0
aI0
aI0
aa(lp2074
I0
aI0
aI1
aI0
aa(lp2075
I0
aI0
aI0
aI1
aaa(lp2076
(lp2077
I0
aI1
aI0
aI0
aa(lp2078
I0
aI0
aI0
aI1
aa(lp2079
I0
aI0
aI0
aI1
aa(lp2080
I0
aI0
aI0
aI0
aaa(lp2081
(lp2082
I0
aI0
aI1
aI0
aa(lp2083
I0
aI0
aI0
aI1
aa(lp2084
I1
aI0
aI0
aI0
aa(lp2085
I0
aI0
aI0
aI0
aaa(lp2086
(lp2087
I3
aI3
aI3
aI0
aa(lp2088
I3
aI3
aI3
aI1
aa(lp2089
I3
aI3
aI3
aI0
aa(lp2090
I0
aI1
aI0
aI0
aaa(lp2091
(lp2092
I1
aI0
aI0
aI0
aa(lp2093
I0
aI0
aI0
aI0
aa(lp2094
I1
aI0
aI0
aI0
aa(lp2095
I0
aI0
aI1
aI0
aaa(lp2096
(lp2097
I1
aI0
aI0
aI0
aa(lp2098
I0
aI0
aI1
aI0
aa(lp2099
I0
aI2
aI2
aI0
aa(lp2100
I0
aI2
aI2
aI0
aaa(lp2101
(lp2102
I1
aI1
aI0
aI0
aa(lp2103
I0
aI0
aI1
aI0
aa(lp2104
I0
aI0
aI0
aI0
aa(lp2105
I0
aI0
aI0
aI0
aaa(lp2106
(lp2107
I0
aI0
aI1
aI0
aa(lp2108
I0
aI0
aI0
aI1
aa(lp2109
I0
aI0
aI1
aI0
aa(lp2110
I0
aI0
aI0
aI0
aaa(lp2111
(lp2112
I0
aI0
aI0
aI0
aa(lp2113
I0
aI1
aI0
aI0
aa(lp2114
I1
aI1
aI0
aI0
aa(lp2115
I0
aI0
aI0
aI0
aaa(lp2116
(lp2117
I2
aI2
aI0
aI0
aa(lp2118
I2
aI2
aI0
aI1
aa(lp2119
I0
aI0
aI1
aI0
aa(lp2120
I0
aI0
aI0
aI0
aaa(lp2121
(lp2122
I0
aI0
aI1
aI1
aa(lp2123
I0
aI0
aI0
aI0
aa(lp2124
I0
aI0
aI0
aI0
aa(lp2125
I0
aI1
aI0
aI0
aaa(lp2126
(lp2127
I0
aI0
aI0
aI1
aa(lp2128
I1
aI3
aI3
aI3
aa(lp2129
I0
aI3
aI3
aI3
aa(lp2130
I0
aI3
aI3
aI3
aaa(lp2131
(lp2132
I0
aI0
aI1
aI0
aa(lp2133
I2
aI2
aI0
aI0
aa(lp2134
I2
aI2
aI0
aI0
aa(lp2135
I0
aI0
aI1
aI0
aaa(lp2136
(lp2137
I0
aI0
aI0
aI0
aa(lp2138
I0
aI0
aI0
aI1
aa(lp2139
I0
aI0
aI0
aI1
aa(lp2140
I0
aI1
aI0
aI0
aaa(lp2141
(lp2142
I0
aI0
aI0
aI0
aa(lp2143
I2
aI2
aI0
aI0
aa(lp2144
I2
aI2
aI1
aI0
aa(lp2145
I0
aI1
aI0
aI0
aaa(lp2146
(lp2147
I0
aI0
aI0
aI1
aa(lp2148
I0
aI1
aI0
aI0
aa(lp2149
I0
aI1
aI0
aI0
aa(lp2150
I0
aI0
aI0
aI0
aaa(lp2151
(lp2152
I0
aI1
aI0
aI0
aa(lp2153
I0
aI1
aI0
aI0
aa(lp2154
I0
aI2
aI2
aI0
aa(lp2155
I0
aI2
aI2
aI0
aaa(lp2156
(lp2157
I0
aI1
aI0
aI0
aa(lp2158
I0
aI2
aI2
aI0
aa(lp2159
I0
aI2
aI2
aI1
aa(lp2160
I0
aI0
aI0
aI0
aaa(lp2161
(lp2162
I0
aI2
aI2
aI0
aa(lp2163
I0
aI2
aI2
aI0
aa(lp2164
I1
aI0
aI0
aI0
aa(lp2165
I0
aI0
aI0
aI1
aaa(lp2166
(lp2167
I0
aI0
aI0
aI0
aa(lp2168
I2
aI2
aI0
aI1
aa(lp2169
I2
aI2
aI0
aI0
aa(lp2170
I0
aI0
aI1
aI0
aaa(lp2171
(lp2172
I0
aI0
aI1
aI0
aa(lp2173
I0
aI0
aI0
aI1
aa(lp2174
I0
aI0
aI0
aI0
aa(lp2175
I0
aI1
aI0
aI0
aaa(lp2176
(lp2177
I3
aI3
aI3
aI1
aa(lp2178
I3
aI3
aI3
aI0
aa(lp2179
I3
aI3
aI3
aI0
aa(lp2180
I0
aI1
aI0
aI0
aaa(lp2181
(lp2182
I0
aI0
aI0
aI0
aa(lp2183
I0
aI2
aI2
aI0
aa(lp2184
I1
aI2
aI2
aI0
aa(lp2185
I0
aI1
aI0
aI0
aaa(lp2186
(lp2187
I0
aI0
aI0
aI1
aa(lp2188
I0
aI0
aI0
aI0
aa(lp2189
I0
aI0
aI0
aI0
aa(lp2190
I1
aI0
aI0
aI1
aaa(lp2191
(lp2192
I1
aI0
aI0
aI0
aa(lp2193
I0
aI0
aI0
aI0
aa(lp2194
I0
aI0
aI1
aI0
aa(lp2195
I0
aI0
aI1
aI0
aaa(lp2196
(lp2197
I0
aI0
aI2
aI2
aa(lp2198
I1
aI1
aI2
aI2
aa(lp2199
I0
aI0
aI0
aI0
aa(lp2200
I0
aI0
aI0
aI0
aaa(lp2201
(lp2202
I1
aI0
aI0
aI0
aa(lp2203
I0
aI1
aI0
aI0
aa(lp2204
I2
aI2
aI0
aI0
aa(lp2205
I2
aI2
aI0
aI0
aaa(lp2206
(lp2207
I0
aI0
aI0
aI0
aa(lp2208
I0
aI1
aI2
aI2
aa(lp2209
I0
aI1
aI2
aI2
aa(lp2210
I0
aI0
aI0
aI0
aaa(lp2211
(lp2212
I0
aI0
aI0
aI0
aa(lp2213
I0
aI0
aI0
aI0
aa(lp2214
I2
aI2
aI1
aI0
aa(lp2215
I2
aI2
aI1
aI0
aaa(lp2216
(lp2217
I0
aI0
aI1
aI0
aa(lp2218
I0
aI0
aI0
aI0
aa(lp2219
I0
aI1
aI0
aI0
aa(lp2220
I0
aI0
aI0
aI1
aaa(lp2221
(lp2222
I1
aI0
aI0
aI0
aa(lp2223
I0
aI0
aI0
aI0
aa(lp2224
I0
aI0
aI0
aI0
aa(lp2225
I1
aI1
aI0
aI0
aaa(lp2226
(lp2227
I1
aI0
aI0
aI0
aa(lp2228
I0
aI0
aI2
aI2
aa(lp2229
I2
aI2
aI2
aI2
aa(lp2230
I2
aI2
aI0
aI0
aaa(lp2231
(lp2232
I0
aI0
aI0
aI0
aa(lp2233
I0
aI0
aI2
aI2
aa(lp2234
I1
aI0
aI2
aI2
aa(lp2235
I1
aI0
aI0
aI0
aaa(lp2236
(lp2237
I0
aI0
aI0
aI0
aa(lp2238
I0
aI0
aI0
aI0
aa(lp2239
I1
aI0
aI2
aI2
aa(lp2240
I1
aI0
aI2
aI2
aaa(lp2241
(lp2242
I0
aI2
aI2
aI0
aa(lp2243
I1
aI2
aI2
aI1
aa(lp2244
I0
aI0
aI0
aI0
aa(lp2245
I0
aI0
aI0
aI0
aaa(lp2246
(lp2247
I1
aI0
aI0
aI0
aa(lp2248
I0
aI0
aI2
aI2
aa(lp2249
I0
aI0
aI2
aI2
aa(lp2250
I0
aI1
aI0
aI0
aaa(lp2251
(lp2252
I3
aI3
aI3
aI0
aa(lp2253
I3
aI3
aI3
aI0
aa(lp2254
I3
aI3
aI3
aI0
aa(lp2255
I0
aI1
aI1
aI0
aaa(lp2256
(lp2257
I0
aI1
aI0
aI0
aa(lp2258
I0
aI0
aI0
aI0
aa(lp2259
I0
aI1
aI0
aI0
aa(lp2260
I1
aI0
aI0
aI0
aaa(lp2261
(lp2262
I2
aI2
aI0
aI0
aa(lp2263
I2
aI2
aI0
aI0
aa(lp2264
I0
aI1
aI2
aI2
aa(lp2265
I0
aI0
aI2
aI2
aaa(lp2266
(lp2267
I0
aI0
aI2
aI2
aa(lp2268
I0
aI0
aI2
aI2
aa(lp2269
I0
aI1
aI1
aI0
aa(lp2270
I0
aI0
aI0
aI0
aaa(lp2271
(lp2272
I0
aI0
aI0
aI0
aa(lp2273
I0
aI2
aI2
aI0
aa(lp2274
I0
aI2
aI2
aI1
aa(lp2275
I0
aI0
aI0
aI1
aaa(lp2276
(lp2277
I0
aI0
aI0
aI1
aa(lp2278
I0
aI0
aI0
aI0
aa(lp2279
I0
aI0
aI1
aI0
aa(lp2280
I1
aI0
aI0
aI0
aaa(lp2281
(lp2282
I0
aI1
aI0
aI0
aa(lp2283
I0
aI0
aI0
aI0
aa(lp2284
I2
aI2
aI0
aI1
aa(lp2285
I2
aI2
aI0
aI0
aaa(lp2286
(lp2287
I2
aI2
aI0
aI0
aa(lp2288
I2
aI2
aI0
aI1
aa(lp2289
I0
aI0
aI0
aI0
aa(lp2290
I0
aI1
aI0
aI0
aaa(lp2291
(lp2292
I0
aI0
aI1
aI0
aa(lp2293
I0
aI0
aI0
aI1
aa(lp2294
I0
aI0
aI0
aI0
aa(lp2295
I0
aI0
aI0
aI1
aaa(lp2296
(lp2297
I0
aI2
aI2
aI1
aa(lp2298
I0
aI2
aI2
aI0
aa(lp2299
I1
aI0
aI0
aI0
aa(lp2300
I0
aI0
aI0
aI0
aaa(lp2301
(lp2302
I1
aI1
aI0
aI0
aa(lp2303
I0
aI0
aI0
aI1
aa(lp2304
I0
aI0
aI0
aI0
aa(lp2305
I0
aI0
aI0
aI0
aaa(lp2306
(lp2307
I0
aI0
aI0
aI0
aa(lp2308
I0
aI0
aI0
aI1
aa(lp2309
I0
aI0
aI1
aI0
aa(lp2310
I0
aI1
aI0
aI0
aaa(lp2311
(lp2312
I0
aI0
aI0
aI0
aa(lp2313
I0
aI0
aI0
aI0
aa(lp2314
I0
aI2
aI2
aI1
aa(lp2315
I1
aI2
aI2
aI0
aaa(lp2316
(lp2317
I0
aI0
aI2
aI2
aa(lp2318
I2
aI2
aI2
aI2
aa(lp2319
I2
aI2
aI0
aI1
aa(lp2320
I0
aI0
aI0
aI0
aaa(lp2321
(lp2322
I0
aI0
aI1
aI0
aa(lp2323
I0
aI0
aI1
aI0
aa(lp2324
I0
aI0
aI0
aI0
aa(lp2325
I1
aI0
aI0
aI0
aaa(lp2326
(lp2327
I1
aI0
aI0
aI0
aa(lp2328
I2
aI2
aI0
aI0
aa(lp2329
I2
aI2
aI0
aI1
aa(lp2330
I0
aI0
aI0
aI0
aaa(lp2331
(lp2332
I0
aI0
aI1
aI0
aa(lp2333
I0
aI1
aI0
aI0
aa(lp2334
I0
aI0
aI1
aI0
aa(lp2335
I0
aI0
aI0
aI0
aaa(lp2336
(lp2337
I0
aI0
aI0
aI0
aa(lp2338
I0
aI1
aI1
aI0
aa(lp2339
I0
aI0
aI2
aI2
aa(lp2340
I0
aI0
aI2
aI2
aaa(lp2341
(lp2342
I0
aI0
aI0
aI0
aa(lp2343
I2
aI2
aI0
aI0
aa(lp2344
I2
aI2
aI0
aI0
aa(lp2345
I0
aI1
aI0
aI1
aaa(lp2346
(lp2347
I0
aI0
aI0
aI1
aa(lp2348
I0
aI0
aI0
aI0
aa(lp2349
I0
aI0
aI0
aI1
aa(lp2350
I0
aI0
aI1
aI0
aaa(lp2351
(lp2352
I0
aI1
aI0
aI0
aa(lp2353
I2
aI2
aI0
aI0
aa(lp2354
I2
aI2
aI0
aI0
aa(lp2355
I0
aI0
aI0
aI1
aaa(lp2356
(lp2357
I0
aI0
aI0
aI1
aa(lp2358
I0
aI0
aI0
aI0
aa(lp2359
I0
aI0
aI0
aI0
aa(lp2360
I0
aI1
aI1
aI0
aaa(lp2361
(lp2362
I0
aI0
aI0
aI0
aa(lp2363
I0
aI0
aI1
aI0
aa(lp2364
I0
aI0
aI1
aI0
aa(lp2365
I1
aI0
aI0
aI0
aaa(lp2366
(lp2367
I0
aI0
aI1
aI0
aa(lp2368
I0
aI0
aI0
aI0
aa(lp2369
I0
aI0
aI1
aI0
aa(lp2370
I0
aI0
aI0
aI1
aaa(lp2371
(lp2372
I0
aI0
aI2
aI2
aa(lp2373
I2
aI2
aI2
aI2
aa(lp2374
I2
aI2
aI1
aI0
aa(lp2375
I0
aI0
aI0
aI0
aaa(lp2376
(lp2377
I0
aI0
aI0
aI0
aa(lp2378
I0
aI0
aI0
aI0
aa(lp2379
I1
aI0
aI0
aI1
aa(lp2380
I0
aI0
aI1
aI0
aaa(lp2381
(lp2382
I0
aI0
aI0
aI0
aa(lp2383
I0
aI0
aI2
aI2
aa(lp2384
I2
aI2
aI2
aI2
aa(lp2385
I2
aI2
aI0
aI1
aaa(lp2386
(lp2387
I0
aI0
aI0
aI1
aa(lp2388
I0
aI0
aI0
aI0
aa(lp2389
I0
aI1
aI0
aI0
aa(lp2390
I1
aI0
aI0
aI0
aaa(lp2391
(lp2392
I0
aI0
aI0
aI1
aa(lp2393
I0
aI0
aI1
aI0
aa(lp2394
I0
aI0
aI0
aI0
aa(lp2395
I0
aI1
aI0
aI0
aaa(lp2396
(lp2397
I0
aI0
aI1
aI0
aa(lp2398
I0
aI0
aI0
aI0
aa(lp2399
I0
aI0
aI0
aI1
aa(lp2400
I1
aI0
aI0
aI0
aaa(lp2401
(lp2402
I1
aI0
aI0
aI1
aa(lp2403
I3
aI3
aI3
aI0
aa(lp2404
I3
aI3
aI3
aI0
aa(lp2405
I3
aI3
aI3
aI0
aaa(lp2406
(lp2407
I1
aI0
aI0
aI0
aa(lp2408
I0
aI1
aI0
aI0
aa(lp2409
I0
aI0
aI0
aI1
aa(lp2410
I0
aI0
aI0
aI0
aaa(lp2411
(lp2412
I0
aI0
aI0
aI0
aa(lp2413
I0
aI0
aI0
aI0
aa(lp2414
I0
aI0
aI0
aI1
aa(lp2415
I1
aI0
aI0
aI1
aaa(lp2416
(lp2417
I0
aI0
aI0
aI0
aa(lp2418
I0
aI1
aI1
aI0
aa(lp2419
I0
aI0
aI0
aI0
aa(lp2420
I1
aI0
aI0
aI0
aaa(lp2421
(lp2422
I0
aI0
aI0
aI0
aa(lp2423
I0
aI1
aI0
aI0
aa(lp2424
I0
aI2
aI2
aI0
aa(lp2425
I0
aI2
aI2
aI1
aaa(lp2426
(lp2427
I0
aI2
aI2
aI1
aa(lp2428
I0
aI2
aI2
aI0
aa(lp2429
I0
aI0
aI0
aI1
aa(lp2430
I0
aI0
aI0
aI0
aaa(lp2431
(lp2432
I0
aI0
aI2
aI2
aa(lp2433
I0
aI0
aI2
aI2
aa(lp2434
I1
aI0
aI0
aI1
aa(lp2435
I0
aI0
aI0
aI0
aaa(lp2436
(lp2437
I0
aI0
aI0
aI1
aa(lp2438
I0
aI3
aI3
aI3
aa(lp2439
I1
aI3
aI3
aI3
aa(lp2440
I0
aI3
aI3
aI3
aaa(lp2441
(lp2442
I0
aI0
aI1
aI0
aa(lp2443
I2
aI2
aI0
aI0
aa(lp2444
I2
aI2
aI0
aI0
aa(lp2445
I1
aI0
aI0
aI0
aaa(lp2446
(lp2447
I0
aI0
aI1
aI0
aa(lp2448
I0
aI0
aI1
aI0
aa(lp2449
I0
aI0
aI2
aI2
aa(lp2450
I0
aI0
aI2
aI2
aaa(lp2451
(lp2452
I0
aI1
aI1
aI0
aa(lp2453
I0
aI0
aI0
aI0
aa(lp2454
I0
aI0
aI0
aI0
aa(lp2455
I0
aI1
aI0
aI0
aaa(lp2456
(lp2457
I0
aI0
aI0
aI1
aa(lp2458
I3
aI3
aI3
aI0
aa(lp2459
I3
aI3
aI3
aI1
aa(lp2460
I3
aI3
aI3
aI0
aaa(lp2461
(lp2462
I2
aI2
aI0
aI1
aa(lp2463
I2
aI2
aI0
aI1
aa(lp2464
I0
aI0
aI0
aI0
aa(lp2465
I0
aI0
aI0
aI0
aaa(lp2466
(lp2467
I1
aI0
aI1
aI0
aa(lp2468
I0
aI2
aI2
aI0
aa(lp2469
I0
aI2
aI2
aI0
aa(lp2470
I0
aI0
aI0
aI0
aaa(lp2471
(lp2472
I0
aI0
aI2
aI2
aa(lp2473
I1
aI0
aI2
aI2
aa(lp2474
I0
aI0
aI0
aI1
aa(lp2475
I0
aI0
aI0
aI0
aaa(lp2476
(lp2477
I2
aI2
aI0
aI0
aa(lp2478
I2
aI2
aI0
aI0
aa(lp2479
I0
aI0
aI2
aI2
aa(lp2480
I1
aI0
aI2
aI2
aaa(lp2481
(lp2482
I0
aI1
aI0
aI0
aa(lp2483
I0
aI0
aI0
aI0
aa(lp2484
I0
aI0
aI0
aI1
aa(lp2485
I0
aI0
aI1
aI0
aaa(lp2486
(lp2487
I2
aI2
aI0
aI0
aa(lp2488
I2
aI2
aI0
aI1
aa(lp2489
I2
aI2
aI0
aI0
aa(lp2490
I2
aI2
aI0
aI0
aaa(lp2491
(lp2492
I1
aI0
aI1
aI0
aa(lp2493
I0
aI0
aI0
aI0
aa(lp2494
I0
aI0
aI0
aI0
aa(lp2495
I0
aI0
aI1
aI0
aaa(lp2496
(lp2497
I0
aI0
aI0
aI1
aa(lp2498
I1
aI0
aI0
aI0
aa(lp2499
I0
aI0
aI0
aI1
aa(lp2500
I0
aI0
aI0
aI0
aaa(lp2501
(lp2502
I0
aI0
aI0
aI0
aa(lp2503
I0
aI0
aI0
aI0
aa(lp2504
I1
aI0
aI0
aI0
aa(lp2505
I0
aI1
aI1
aI0
aaa(lp2506
(lp2507
I0
aI0
aI0
aI1
aa(lp2508
I2
aI2
aI0
aI0
aa(lp2509
I2
aI2
aI0
aI1
aa(lp2510
I0
aI0
aI0
aI0
aaa(lp2511
(lp2512
I0
aI0
aI0
aI0
aa(lp2513
I2
aI2
aI0
aI1
aa(lp2514
I2
aI2
aI1
aI0
aa(lp2515
I0
aI0
aI0
aI0
aaa(lp2516
(lp2517
I1
aI0
aI0
aI1
aa(lp2518
I0
aI0
aI0
aI0
aa(lp2519
I0
aI0
aI0
aI0
aa(lp2520
I0
aI0
aI1
aI0
aaa(lp2521
(lp2522
I0
aI0
aI0
aI0
aa(lp2523
I0
aI1
aI0
aI0
aa(lp2524
I0
aI0
aI0
aI1
aa(lp2525
I1
aI0
aI0
aI0
aaa(lp2526
(lp2527
I0
aI0
aI1
aI0
aa(lp2528
I1
aI0
aI0
aI0
aa(lp2529
I0
aI0
aI1
aI0
aa(lp2530
I0
aI0
aI0
aI0
aaa(lp2531
(lp2532
I0
aI0
aI2
aI2
aa(lp2533
I0
aI0
aI2
aI2
aa(lp2534
I0
aI0
aI2
aI2
aa(lp2535
I0
aI1
aI2
aI2
aaa(lp2536
(lp2537
I0
aI0
aI0
aI0
aa(lp2538
I0
aI1
aI1
aI1
aa(lp2539
I0
aI0
aI0
aI0
aa(lp2540
I0
aI0
aI0
aI0
aaa(lp2541
(lp2542
I0
aI0
aI1
aI0
aa(lp2543
I0
aI2
aI2
aI0
aa(lp2544
I0
aI2
aI2
aI1
aa(lp2545
I0
aI0
aI0
aI0
aaa(lp2546
(lp2547
I0
aI0
aI0
aI0
aa(lp2548
I0
aI2
aI2
aI1
aa(lp2549
I0
aI2
aI2
aI0
aa(lp2550
I0
aI0
aI0
aI1
aaa(lp2551
(lp2552
I2
aI2
aI0
aI0
aa(lp2553
I2
aI2
aI0
aI0
aa(lp2554
I0
aI0
aI0
aI1
aa(lp2555
I0
aI0
aI0
aI1
aaa(lp2556
(lp2557
I0
aI0
aI0
aI1
aa(lp2558
I0
aI0
aI1
aI0
aa(lp2559
I0
aI0
aI0
aI1
aa(lp2560
I0
aI0
aI0
aI0
aaa(lp2561
(lp2562
I0
aI0
aI1
aI0
aa(lp2563
I0
aI2
aI2
aI1
aa(lp2564
I0
aI2
aI2
aI0
aa(lp2565
I0
aI0
aI0
aI0
aaa(lp2566
(lp2567
I1
aI0
aI0
aI0
aa(lp2568
I0
aI0
aI0
aI1
aa(lp2569
I0
aI0
aI0
aI0
aa(lp2570
I0
aI0
aI0
aI1
aaa(lp2571
(lp2572
I0
aI0
aI1
aI0
aa(lp2573
I0
aI0
aI2
aI2
aa(lp2574
I0
aI0
aI2
aI2
aa(lp2575
I0
aI1
aI0
aI0
aaa(lp2576
(lp2577
I0
aI2
aI2
aI0
aa(lp2578
I0
aI2
aI2
aI1
aa(lp2579
I2
aI2
aI0
aI0
aa(lp2580
I2
aI2
aI0
aI0
aaa(lp2581
(lp2582
I0
aI0
aI0
aI1
aa(lp2583
I2
aI2
aI0
aI0
aa(lp2584
I2
aI2
aI0
aI0
aa(lp2585
I0
aI0
aI1
aI0
aaa(lp2586
(lp2587
I0
aI0
aI2
aI2
aa(lp2588
I0
aI0
aI2
aI2
aa(lp2589
I0
aI0
aI0
aI0
aa(lp2590
I0
aI1
aI0
aI1
aaa(lp2591
(lp2592
I0
aI0
aI1
aI0
aa(lp2593
I0
aI0
aI0
aI0
aa(lp2594
I0
aI0
aI0
aI1
aa(lp2595
I0
aI0
aI1
aI0
aaa(lp2596
(lp2597
I0
aI2
aI2
aI0
aa(lp2598
I0
aI2
aI2
aI1
aa(lp2599
I0
aI0
aI0
aI0
aa(lp2600
I0
aI1
aI0
aI0
aaa(lp2601
(lp2602
I0
aI0
aI1
aI0
aa(lp2603
I3
aI3
aI3
aI0
aa(lp2604
I3
aI3
aI3
aI1
aa(lp2605
I3
aI3
aI3
aI0
aaa(lp2606
(lp2607
I2
aI2
aI0
aI0
aa(lp2608
I2
aI2
aI0
aI0
aa(lp2609
I0
aI0
aI0
aI0
aa(lp2610
I1
aI0
aI0
aI1
aaa(lp2611
(lp2612
I0
aI0
aI0
aI0
aa(lp2613
I0
aI0
aI2
aI2
aa(lp2614
I0
aI0
aI2
aI2
aa(lp2615
I1
aI0
aI0
aI1
aaa(lp2616
(lp2617
I2
aI2
aI0
aI0
aa(lp2618
I2
aI2
aI1
aI0
aa(lp2619
I0
aI2
aI2
aI0
aa(lp2620
I0
aI2
aI2
aI0
aaa(lp2621
(lp2622
I1
aI2
aI2
aI0
aa(lp2623
I0
aI2
aI2
aI0
aa(lp2624
I0
aI0
aI0
aI1
aa(lp2625
I0
aI0
aI0
aI0
aaa(lp2626
(lp2627
I0
aI0
aI1
aI0
aa(lp2628
I0
aI0
aI0
aI0
aa(lp2629
I0
aI2
aI2
aI0
aa(lp2630
I0
aI2
aI2
aI1
aaa(lp2631
(lp2632
I0
aI0
aI0
aI0
aa(lp2633
I0
aI0
aI1
aI0
aa(lp2634
I0
aI0
aI0
aI1
aa(lp2635
I0
aI0
aI0
aI1
aaa(lp2636
(lp2637
I0
aI0
aI0
aI0
aa(lp2638
I0
aI0
aI0
aI1
aa(lp2639
I0
aI0
aI0
aI1
aa(lp2640
I1
aI0
aI0
aI0
aaa(lp2641
(lp2642
I0
aI0
aI1
aI0
aa(lp2643
I0
aI0
aI0
aI0
aa(lp2644
I0
aI0
aI2
aI2
aa(lp2645
I0
aI1
aI2
aI2
aaa(lp2646
(lp2647
I0
aI0
aI2
aI2
aa(lp2648
I0
aI1
aI2
aI2
aa(lp2649
I0
aI0
aI1
aI0
aa(lp2650
I0
aI0
aI0
aI0
aaa(lp2651
(lp2652
I0
aI2
aI2
aI0
aa(lp2653
I0
aI2
aI2
aI0
aa(lp2654
I0
aI1
aI0
aI1
aa(lp2655
I0
aI0
aI0
aI0
aaa(lp2656
(lp2657
I0
aI0
aI0
aI0
aa(lp2658
I0
aI1
aI0
aI0
aa(lp2659
I0
aI0
aI2
aI2
aa(lp2660
I0
aI1
aI2
aI2
aaa(lp2661
(lp2662
I0
aI0
aI2
aI2
aa(lp2663
I0
aI0
aI2
aI2
aa(lp2664
I0
aI0
aI1
aI0
aa(lp2665
I0
aI1
aI0
aI0
aaa(lp2666
(lp2667
I0
aI0
aI0
aI0
aa(lp2668
I0
aI0
aI0
aI0
aa(lp2669
I0
aI0
aI1
aI0
aa(lp2670
I0
aI1
aI1
aI0
aaa(lp2671
(lp2672
I0
aI0
aI0
aI0
aa(lp2673
I2
aI2
aI2
aI2
aa(lp2674
I2
aI2
aI2
aI2
aa(lp2675
I1
aI0
aI0
aI0
aaa(lp2676
(lp2677
I0
aI1
aI0
aI0
aa(lp2678
I0
aI0
aI0
aI0
aa(lp2679
I2
aI2
aI0
aI0
aa(lp2680
I2
aI2
aI0
aI1
aaa(lp2681
(lp2682
I0
aI0
aI2
aI2
aa(lp2683
I0
aI0
aI2
aI2
aa(lp2684
I2
aI2
aI0
aI0
aa(lp2685
I2
aI2
aI0
aI1
aaa(lp2686
(lp2687
I0
aI0
aI0
aI0
aa(lp2688
I0
aI0
aI0
aI1
aa(lp2689
I1
aI0
aI0
aI0
aa(lp2690
I1
aI0
aI0
aI0
aaa(lp2691
(lp2692
I0
aI0
aI0
aI0
aa(lp2693
I0
aI0
aI0
aI0
aa(lp2694
I2
aI2
aI0
aI0
aa(lp2695
I2
aI2
aI1
aI1
aaa(lp2696
(lp2697
I2
aI2
aI0
aI1
aa(lp2698
I2
aI2
aI1
aI0
aa(lp2699
I0
aI0
aI0
aI0
aa(lp2700
I0
aI0
aI0
aI0
aaa(lp2701
(lp2702
I1
aI3
aI3
aI3
aa(lp2703
I0
aI3
aI3
aI3
aa(lp2704
I0
aI3
aI3
aI3
aa(lp2705
I0
aI0
aI0
aI1
aaa(lp2706
(lp2707
I3
aI3
aI3
aI0
aa(lp2708
I3
aI3
aI3
aI0
aa(lp2709
I3
aI3
aI3
aI1
aa(lp2710
I0
aI1
aI0
aI0
aaa(lp2711
(lp2712
I0
aI0
aI2
aI2
aa(lp2713
I0
aI1
aI2
aI2
aa(lp2714
I0
aI0
aI0
aI0
aa(lp2715
I1
aI0
aI0
aI0
aaa(lp2716
(lp2717
I0
aI0
aI0
aI0
aa(lp2718
I1
aI0
aI0
aI0
aa(lp2719
I2
aI2
aI0
aI0
aa(lp2720
I2
aI2
aI0
aI1
aaa(lp2721
(lp2722
I0
aI0
aI1
aI0
aa(lp2723
I1
aI3
aI3
aI3
aa(lp2724
I0
aI3
aI3
aI3
aa(lp2725
I0
aI3
aI3
aI3
aaa(lp2726
(lp2727
I0
aI0
aI0
aI0
aa(lp2728
I0
aI1
aI0
aI0
aa(lp2729
I1
aI2
aI2
aI0
aa(lp2730
I0
aI2
aI2
aI0
aaa(lp2731
(lp2732
I0
aI0
aI0
aI1
aa(lp2733
I0
aI0
aI0
aI0
aa(lp2734
I0
aI0
aI1
aI0
aa(lp2735
I0
aI0
aI0
aI1
aaa(lp2736
(lp2737
I1
aI0
aI0
aI0
aa(lp2738
I0
aI2
aI2
aI0
aa(lp2739
I0
aI2
aI2
aI0
aa(lp2740
I1
aI0
aI0
aI0
aaa(lp2741
(lp2742
I0
aI0
aI0
aI0
aa(lp2743
I1
aI2
aI2
aI0
aa(lp2744
I0
aI2
aI2
aI1
aa(lp2745
I0
aI0
aI0
aI0
aaa(lp2746
(lp2747
I0
aI0
aI0
aI0
aa(lp2748
I1
aI0
aI0
aI0
aa(lp2749
I1
aI2
aI2
aI0
aa(lp2750
I0
aI2
aI2
aI0
aaa(lp2751
(lp2752
I0
aI0
aI0
aI0
aa(lp2753
I2
aI2
aI0
aI0
aa(lp2754
I2
aI2
aI0
aI1
aa(lp2755
I0
aI1
aI0
aI0
aaa(lp2756
(lp2757
I1
aI0
aI0
aI0
aa(lp2758
I0
aI0
aI2
aI2
aa(lp2759
I0
aI0
aI2
aI2
aa(lp2760
I1
aI0
aI0
aI0
aaa(lp2761
(lp2762
I0
aI0
aI0
aI0
aa(lp2763
I0
aI1
aI0
aI0
aa(lp2764
I0
aI0
aI1
aI0
aa(lp2765
I1
aI0
aI0
aI0
aaa(lp2766
(lp2767
I0
aI0
aI0
aI0
aa(lp2768
I0
aI1
aI0
aI0
aa(lp2769
I0
aI0
aI2
aI2
aa(lp2770
I1
aI0
aI2
aI2
aaa(lp2771
(lp2772
I0
aI2
aI2
aI1
aa(lp2773
I0
aI2
aI2
aI0
aa(lp2774
I0
aI2
aI2
aI0
aa(lp2775
I0
aI2
aI2
aI0
aaa(lp2776
(lp2777
I3
aI3
aI3
aI1
aa(lp2778
I3
aI3
aI3
aI0
aa(lp2779
I3
aI3
aI3
aI0
aa(lp2780
I1
aI0
aI0
aI0
aaa(lp2781
(lp2782
I1
aI0
aI0
aI0
aa(lp2783
I1
aI0
aI0
aI0
aa(lp2784
I2
aI2
aI0
aI0
aa(lp2785
I2
aI2
aI0
aI0
aaa(lp2786
(lp2787
I0
aI1
aI1
aI0
aa(lp2788
I0
aI0
aI0
aI0
aa(lp2789
I0
aI0
aI1
aI0
aa(lp2790
I0
aI0
aI0
aI0
aaa(lp2791
(lp2792
I0
aI0
aI0
aI0
aa(lp2793
I0
aI1
aI0
aI1
aa(lp2794
I0
aI0
aI0
aI0
aa(lp2795
I0
aI0
aI0
aI1
aaa(lp2796
(lp2797
I0
aI0
aI0
aI1
aa(lp2798
I0
aI0
aI0
aI0
aa(lp2799
I0
aI0
aI0
aI1
aa(lp2800
I1
aI0
aI0
aI0
aaa(lp2801
(lp2802
I0
aI0
aI0
aI0
aa(lp2803
I0
aI0
aI1
aI1
aa(lp2804
I0
aI1
aI0
aI0
aa(lp2805
I0
aI0
aI0
aI0
aaa(lp2806
(lp2807
I0
aI0
aI1
aI0
aa(lp2808
I0
aI1
aI0
aI0
aa(lp2809
I0
aI0
aI0
aI0
aa(lp2810
I0
aI1
aI0
aI0
aaa(lp2811
(lp2812
I0
aI1
aI0
aI0
aa(lp2813
I1
aI1
aI0
aI0
aa(lp2814
I0
aI0
aI0
aI0
aa(lp2815
I0
aI0
aI0
aI0
aaa(lp2816
(lp2817
I0
aI0
aI1
aI1
aa(lp2818
I3
aI3
aI3
aI0
aa(lp2819
I3
aI3
aI3
aI0
aa(lp2820
I3
aI3
aI3
aI0
aaa(lp2821
(lp2822
I2
aI2
aI2
aI2
aa(lp2823
I2
aI2
aI2
aI2
aa(lp2824
I0
aI0
aI0
aI1
aa(lp2825
I0
aI0
aI0
aI0
aaa(lp2826
(lp2827
I0
aI1
aI0
aI0
aa(lp2828
I2
aI2
aI2
aI2
aa(lp2829
I2
aI2
aI2
aI2
aa(lp2830
I0
aI0
aI0
aI0
aaa(lp2831
(lp2832
I0
aI0
aI0
aI0
aa(lp2833
I1
aI0
aI1
aI0
aa(lp2834
I2
aI2
aI0
aI0
aa(lp2835
I2
aI2
aI0
aI0
aaa(lp2836
(lp2837
I0
aI2
aI2
aI0
aa(lp2838
I0
aI2
aI2
aI0
aa(lp2839
I0
aI0
aI2
aI2
aa(lp2840
I0
aI1
aI2
aI2
aaa(lp2841
(lp2842
I0
aI2
aI2
aI1
aa(lp2843
I1
aI2
aI2
aI0
aa(lp2844
I0
aI0
aI0
aI0
aa(lp2845
I0
aI0
aI0
aI0
aaa(lp2846
(lp2847
I0
aI0
aI0
aI0
aa(lp2848
I1
aI0
aI0
aI1
aa(lp2849
I0
aI2
aI2
aI0
aa(lp2850
I0
aI2
aI2
aI0
aaa(lp2851
(lp2852
I0
aI0
aI0
aI0
aa(lp2853
I0
aI2
aI2
aI0
aa(lp2854
I0
aI2
aI2
aI1
aa(lp2855
I0
aI0
aI1
aI0
aaa(lp2856
(lp2857
I0
aI0
aI0
aI0
aa(lp2858
I2
aI2
aI1
aI0
aa(lp2859
I2
aI2
aI0
aI0
aa(lp2860
I0
aI1
aI0
aI0
aaa(lp2861
(lp2862
I0
aI1
aI0
aI0
aa(lp2863
I0
aI0
aI0
aI0
aa(lp2864
I1
aI0
aI2
aI2
aa(lp2865
I0
aI0
aI2
aI2
aaa(lp2866
(lp2867
I0
aI0
aI0
aI1
aa(lp2868
I2
aI2
aI0
aI0
aa(lp2869
I2
aI2
aI0
aI0
aa(lp2870
I1
aI0
aI0
aI0
aaa(lp2871
(lp2872
I0
aI0
aI0
aI1
aa(lp2873
I0
aI1
aI0
aI0
aa(lp2874
I0
aI0
aI0
aI1
aa(lp2875
I0
aI0
aI0
aI0
aaa(lp2876
(lp2877
I0
aI0
aI1
aI0
aa(lp2878
I0
aI0
aI0
aI0
aa(lp2879
I1
aI0
aI0
aI0
aa(lp2880
I1
aI0
aI0
aI0
aaa(lp2881
(lp2882
I0
aI0
aI1
aI0
aa(lp2883
I0
aI1
aI0
aI0
aa(lp2884
I0
aI1
aI0
aI0
aa(lp2885
I0
aI0
aI0
aI0
aaa(lp2886
(lp2887
I0
aI0
aI0
aI1
aa(lp2888
I0
aI2
aI2
aI0
aa(lp2889
I0
aI2
aI2
aI0
aa(lp2890
I0
aI0
aI0
aI1
aaa(lp2891
(lp2892
I1
aI2
aI2
aI0
aa(lp2893
I0
aI2
aI2
aI0
aa(lp2894
I0
aI2
aI2
aI0
aa(lp2895
I0
aI2
aI2
aI0
aaa(lp2896
(lp2897
I0
aI0
aI0
aI0
aa(lp2898
I0
aI0
aI1
aI1
aa(lp2899
I0
aI0
aI2
aI2
aa(lp2900
I0
aI0
aI2
aI2
aaa(lp2901
(lp2902
I0
aI1
aI0
aI0
aa(lp2903
I0
aI0
aI1
aI0
aa(lp2904
I0
aI0
aI0
aI0
aa(lp2905
I1
aI0
aI0
aI0
aaa(lp2906
(lp2907
I0
aI2
aI2
aI0
aa(lp2908
I1
aI2
aI2
aI0
aa(lp2909
I2
aI2
aI0
aI0
aa(lp2910
I2
aI2
aI0
aI0
aaa(lp2911
(lp2912
I1
aI0
aI0
aI0
aa(lp2913
I0
aI0
aI0
aI0
aa(lp2914
I2
aI2
aI0
aI0
aa(lp2915
I2
aI2
aI1
aI0
aaa(lp2916
(lp2917
I0
aI0
aI0
aI0
aa(lp2918
I1
aI0
aI0
aI0
aa(lp2919
I0
aI0
aI0
aI1
aa(lp2920
I0
aI0
aI0
aI1
aaa(lp2921
(lp2922
I0
aI0
aI0
aI0
aa(lp2923
I2
aI2
aI0
aI1
aa(lp2924
I2
aI2
aI0
aI0
aa(lp2925
I1
aI0
aI0
aI0
aaa(lp2926
(lp2927
I0
aI1
aI0
aI0
aa(lp2928
I0
aI0
aI0
aI0
aa(lp2929
I2
aI2
aI2
aI2
aa(lp2930
I2
aI2
aI2
aI2
aaa(lp2931
(lp2932
I0
aI0
aI1
aI1
aa(lp2933
I0
aI0
aI0
aI0
aa(lp2934
I0
aI0
aI0
aI1
aa(lp2935
I0
aI0
aI0
aI0
aaa(lp2936
(lp2937
I0
aI0
aI0
aI0
aa(lp2938
I0
aI0
aI0
aI0
aa(lp2939
I0
aI1
aI1
aI0
aa(lp2940
I0
aI0
aI1
aI0
aaa(lp2941
(lp2942
I0
aI0
aI1
aI0
aa(lp2943
I0
aI0
aI0
aI0
aa(lp2944
I0
aI1
aI0
aI0
aa(lp2945
I0
aI1
aI0
aI0
aaa(lp2946
(lp2947
I2
aI2
aI0
aI0
aa(lp2948
I2
aI2
aI2
aI2
aa(lp2949
I0
aI0
aI2
aI2
aa(lp2950
I0
aI1
aI0
aI0
aaa(lp2951
(lp2952
I0
aI0
aI0
aI0
aa(lp2953
I0
aI2
aI2
aI0
aa(lp2954
I0
aI2
aI2
aI1
aa(lp2955
I0
aI1
aI0
aI0
aaa(lp2956
(lp2957
I0
aI1
aI1
aI1
aa(lp2958
I0
aI0
aI0
aI0
aa(lp2959
I0
aI0
aI0
aI0
aa(lp2960
I0
aI0
aI0
aI0
aaa(lp2961
(lp2962
I1
aI0
aI0
aI0
aa(lp2963
I0
aI0
aI1
aI0
aa(lp2964
I0
aI0
aI0
aI0
aa(lp2965
I0
aI1
aI0
aI0
aaa(lp2966
(lp2967
I1
aI0
aI0
aI0
aa(lp2968
I2
aI2
aI2
aI2
aa(lp2969
I2
aI2
aI2
aI2
aa(lp2970
I0
aI0
aI0
aI0
aaa(lp2971
(lp2972
I1
aI1
aI0
aI0
aa(lp2973
I0
aI0
aI0
aI0
aa(lp2974
I0
aI0
aI0
aI0
aa(lp2975
I0
aI0
aI0
aI1
aaa(lp2976
(lp2977
I0
aI0
aI0
aI0
aa(lp2978
I0
aI1
aI2
aI2
aa(lp2979
I0
aI0
aI2
aI2
aa(lp2980
I0
aI0
aI0
aI1
aaa(lp2981
(lp2982
I2
aI2
aI0
aI0
aa(lp2983
I2
aI2
aI0
aI1
aa(lp2984
I0
aI0
aI0
aI0
aa(lp2985
I0
aI0
aI0
aI1
aaa(lp2986
(lp2987
I0
aI0
aI0
aI0
aa(lp2988
I2
aI2
aI1
aI0
aa(lp2989
I2
aI2
aI0
aI0
aa(lp2990
I1
aI0
aI0
aI0
aaa(lp2991
(lp2992
I0
aI1
aI0
aI0
aa(lp2993
I2
aI2
aI0
aI0
aa(lp2994
I2
aI2
aI0
aI0
aa(lp2995
I0
aI1
aI0
aI0
aaa(lp2996
(lp2997
I0
aI0
aI0
aI0
aa(lp2998
I0
aI1
aI2
aI2
aa(lp2999
I1
aI0
aI2
aI2
aa(lp3000
I0
aI0
aI0
aI0
aaa(lp3001
(lp3002
I0
aI1
aI0
aI0
aa(lp3003
I0
aI0
aI0
aI1
aa(lp3004
I0
aI0
aI0
aI0
aa(lp3005
I0
aI0
aI0
aI1
aaa(lp3006
(lp3007
I0
aI0
aI0
aI0
aa(lp3008
I0
aI0
aI0
aI1
aa(lp3009
I1
aI0
aI0
aI0
aa(lp3010
I0
aI0
aI0
aI1
aaa(lp3011
(lp3012
I0
aI0
aI1
aI0
aa(lp3013
I0
aI1
aI0
aI0
aa(lp3014
I0
aI0
aI0
aI0
aa(lp3015
I0
aI0
aI1
aI0
aaa(lp3016
(lp3017
I0
aI0
aI2
aI2
aa(lp3018
I0
aI0
aI2
aI2
aa(lp3019
I0
aI1
aI0
aI0
aa(lp3020
I0
aI0
aI1
aI0
aaa(lp3021
(lp3022
I1
aI0
aI0
aI0
aa(lp3023
I0
aI0
aI0
aI0
aa(lp3024
I0
aI1
aI0
aI0
aa(lp3025
I0
aI1
aI0
aI0
aaa(lp3026
(lp3027
I1
aI0
aI0
aI0
aa(lp3028
I0
aI1
aI0
aI0
aa(lp3029
I0
aI0
aI0
aI0
aa(lp3030
I1
aI0
aI0
aI0
aaa(lp3031
(lp3032
I0
aI0
aI2
aI2
aa(lp3033
I0
aI1
aI2
aI2
aa(lp3034
I0
aI1
aI0
aI0
aa(lp3035
I0
aI0
aI0
aI0
aaa(lp3036
(lp3037
I0
aI0
aI0
aI0
aa(lp3038
I1
aI0
aI0
aI0
aa(lp3039
I0
aI0
aI0
aI0
aa(lp3040
I0
aI0
aI1
aI1
aaa(lp3041
(lp3042
I0
aI0
aI1
aI0
aa(lp3043
I2
aI2
aI0
aI1
aa(lp3044
I2
aI2
aI0
aI0
aa(lp3045
I0
aI0
aI0
aI0
aaa(lp3046
(lp3047
I0
aI0
aI0
aI0
aa(lp3048
I2
aI2
aI1
aI0
aa(lp3049
I2
aI2
aI2
aI2
aa(lp3050
I0
aI0
aI2
aI2
aaa(lp3051
(lp3052
I0
aI0
aI0
aI0
aa(lp3053
I0
aI3
aI3
aI3
aa(lp3054
I1
aI3
aI3
aI3
aa(lp3055
I1
aI3
aI3
aI3
aaa(lp3056
(lp3057
I1
aI0
aI0
aI0
aa(lp3058
I0
aI0
aI0
aI0
aa(lp3059
I1
aI2
aI2
aI0
aa(lp3060
I0
aI2
aI2
aI0
aaa(lp3061
(lp3062
I0
aI0
aI1
aI0
aa(lp3063
I0
aI0
aI1
aI0
aa(lp3064
I0
aI0
aI0
aI0
aa(lp3065
I0
aI0
aI0
aI1
aaa(lp3066
(lp3067
I0
aI1
aI2
aI2
aa(lp3068
I0
aI0
aI2
aI2
aa(lp3069
I0
aI0
aI0
aI0
aa(lp3070
I0
aI0
aI0
aI1
aaa(lp3071
(lp3072
I0
aI1
aI0
aI0
aa(lp3073
I0
aI0
aI0
aI0
aa(lp3074
I0
aI0
aI0
aI0
aa(lp3075
I1
aI0
aI0
aI1
aaa(lp3076
(lp3077
I0
aI1
aI0
aI0
aa(lp3078
I0
aI2
aI2
aI1
aa(lp3079
I0
aI2
aI2
aI0
aa(lp3080
I0
aI0
aI0
aI0
aaa(lp3081
(lp3082
I0
aI0
aI0
aI0
aa(lp3083
I0
aI0
aI1
aI0
aa(lp3084
I1
aI0
aI0
aI1
aa(lp3085
I0
aI0
aI0
aI0
aaa(lp3086
(lp3087
I2
aI2
aI0
aI0
aa(lp3088
I2
aI2
aI0
aI0
aa(lp3089
I1
aI0
aI0
aI1
aa(lp3090
I0
aI0
aI0
aI0
aaa(lp3091
(lp3092
I0
aI0
aI0
aI0
aa(lp3093
I0
aI0
aI0
aI0
aa(lp3094
I2
aI2
aI1
aI0
aa(lp3095
I2
aI2
aI0
aI1
aaa(lp3096
(lp3097
I0
aI0
aI2
aI2
aa(lp3098
I2
aI2
aI2
aI2
aa(lp3099
I2
aI2
aI2
aI2
aa(lp3100
I0
aI0
aI2
aI2
aaa(lp3101
(lp3102
I1
aI0
aI0
aI0
aa(lp3103
I1
aI0
aI0
aI0
aa(lp3104
I0
aI0
aI2
aI2
aa(lp3105
I0
aI0
aI2
aI2
aaa(lp3106
(lp3107
I2
aI2
aI0
aI1
aa(lp3108
I2
aI2
aI0
aI0
aa(lp3109
I2
aI2
aI0
aI0
aa(lp3110
I2
aI2
aI0
aI0
aaa(lp3111
(lp3112
I0
aI0
aI0
aI0
aa(lp3113
I0
aI0
aI0
aI0
aa(lp3114
I1
aI1
aI0
aI0
aa(lp3115
I0
aI0
aI1
aI0
aaa(lp3116
(lp3117
I0
aI0
aI0
aI0
aa(lp3118
I0
aI1
aI0
aI0
aa(lp3119
I0
aI1
aI0
aI1
aa(lp3120
I0
aI0
aI0
aI0
aaa(lp3121
(lp3122
I0
aI1
aI0
aI0
aa(lp3123
I3
aI3
aI3
aI0
aa(lp3124
I3
aI3
aI3
aI1
aa(lp3125
I3
aI3
aI3
aI0
aaa(lp3126
(lp3127
I0
aI0
aI1
aI0
aa(lp3128
I0
aI2
aI2
aI0
aa(lp3129
I0
aI2
aI2
aI0
aa(lp3130
I0
aI0
aI1
aI0
aaa(lp3131
(lp3132
I0
aI0
aI0
aI1
aa(lp3133
I0
aI0
aI0
aI1
aa(lp3134
I0
aI0
aI1
aI0
aa(lp3135
I0
aI0
aI0
aI0
aaa(lp3136
(lp3137
I3
aI3
aI3
aI0
aa(lp3138
I3
aI3
aI3
aI1
aa(lp3139
I3
aI3
aI3
aI0
aa(lp3140
I1
aI0
aI0
aI0
aaa(lp3141
(lp3142
I0
aI0
aI1
aI0
aa(lp3143
I2
aI2
aI0
aI0
aa(lp3144
I2
aI2
aI0
aI0
aa(lp3145
I0
aI0
aI0
aI1
aaa(lp3146
(lp3147
I0
aI0
aI0
aI0
aa(lp3148
I0
aI1
aI2
aI2
aa(lp3149
I2
aI2
aI2
aI2
aa(lp3150
I2
aI2
aI0
aI0
aaa(lp3151
(lp3152
I1
aI0
aI0
aI0
aa(lp3153
I1
aI0
aI0
aI0
aa(lp3154
I0
aI0
aI0
aI0
aa(lp3155
I1
aI0
aI0
aI0
aaa(lp3156
(lp3157
I0
aI0
aI0
aI0
aa(lp3158
I0
aI0
aI1
aI0
aa(lp3159
I0
aI1
aI2
aI2
aa(lp3160
I0
aI0
aI2
aI2
aaa(lp3161
(lp3162
I0
aI1
aI2
aI2
aa(lp3163
I0
aI1
aI2
aI2
aa(lp3164
I0
aI0
aI0
aI0
aa(lp3165
I0
aI0
aI0
aI0
aaa(lp3166
(lp3167
I2
aI2
aI0
aI1
aa(lp3168
I2
aI2
aI0
aI0
aa(lp3169
I0
aI0
aI1
aI0
aa(lp3170
I0
aI0
aI0
aI0
aaa(lp3171
(lp3172
I1
aI0
aI0
aI0
aa(lp3173
I0
aI0
aI0
aI1
aa(lp3174
I0
aI0
aI0
aI0
aa(lp3175
I0
aI1
aI0
aI0
aaa(lp3176
(lp3177
I1
aI0
aI0
aI0
aa(lp3178
I1
aI0
aI0
aI0
aa(lp3179
I0
aI0
aI1
aI0
aa(lp3180
I0
aI0
aI0
aI0
aaa(lp3181
(lp3182
I2
aI2
aI0
aI0
aa(lp3183
I2
aI2
aI0
aI0
aa(lp3184
I0
aI1
aI0
aI0
aa(lp3185
I1
aI0
aI0
aI0
aaa(lp3186
(lp3187
I0
aI1
aI2
aI2
aa(lp3188
I0
aI0
aI2
aI2
aa(lp3189
I0
aI0
aI1
aI0
aa(lp3190
I0
aI0
aI0
aI0
aaa(lp3191
(lp3192
I0
aI0
aI0
aI1
aa(lp3193
I1
aI0
aI0
aI0
aa(lp3194
I0
aI0
aI0
aI0
aa(lp3195
I1
aI0
aI0
aI0
aaa(lp3196
(lp3197
I0
aI0
aI0
aI0
aa(lp3198
I1
aI0
aI0
aI0
aa(lp3199
I2
aI2
aI0
aI1
aa(lp3200
I2
aI2
aI0
aI0
aaa(lp3201
(lp3202
I1
aI0
aI0
aI0
aa(lp3203
I0
aI2
aI2
aI1
aa(lp3204
I0
aI2
aI2
aI0
aa(lp3205
I0
aI0
aI0
aI0
aaa(lp3206
(lp3207
I1
aI0
aI2
aI2
aa(lp3208
I0
aI0
aI2
aI2
aa(lp3209
I0
aI0
aI0
aI1
aa(lp3210
I0
aI0
aI0
aI0
aaa(lp3211
(lp3212
I0
aI0
aI1
aI0
aa(lp3213
I0
aI0
aI0
aI0
aa(lp3214
I2
aI2
aI2
aI2
aa(lp3215
I2
aI2
aI2
aI2
aaa(lp3216
(lp3217
I0
aI0
aI0
aI0
aa(lp3218
I0
aI0
aI0
aI0
aa(lp3219
I1
aI0
aI0
aI1
aa(lp3220
I1
aI0
aI0
aI0
aaa(lp3221
(lp3222
I2
aI2
aI0
aI1
aa(lp3223
I2
aI2
aI0
aI0
aa(lp3224
I0
aI0
aI0
aI0
aa(lp3225
I0
aI0
aI0
aI1
aaa(lp3226
(lp3227
I2
aI2
aI0
aI0
aa(lp3228
I2
aI2
aI0
aI0
aa(lp3229
I1
aI2
aI2
aI0
aa(lp3230
I0
aI2
aI2
aI0
aaa(lp3231
(lp3232
I0
aI0
aI0
aI0
aa(lp3233
I0
aI2
aI2
aI1
aa(lp3234
I0
aI2
aI2
aI0
aa(lp3235
I1
aI0
aI0
aI0
aaa(lp3236
(lp3237
I0
aI0
aI1
aI0
aa(lp3238
I0
aI0
aI0
aI0
aa(lp3239
I2
aI2
aI0
aI1
aa(lp3240
I2
aI2
aI0
aI0
aaa(lp3241
(lp3242
I0
aI0
aI0
aI0
aa(lp3243
I0
aI1
aI0
aI0
aa(lp3244
I1
aI0
aI0
aI0
aa(lp3245
I1
aI0
aI0
aI0
aaa(lp3246
(lp3247
I1
aI0
aI2
aI2
aa(lp3248
I2
aI2
aI2
aI2
aa(lp3249
I2
aI2
aI0
aI0
aa(lp3250
I0
aI0
aI0
aI0
aaa(lp3251
(lp3252
I0
aI0
aI0
aI1
aa(lp3253
I0
aI0
aI0
aI0
aa(lp3254
I0
aI2
aI2
aI0
aa(lp3255
I1
aI2
aI2
aI0
aaa(lp3256
(lp3257
I0
aI0
aI1
aI0
aa(lp3258
I1
aI0
aI0
aI0
aa(lp3259
I1
aI0
aI0
aI0
aa(lp3260
I0
aI0
aI0
aI0
aaa(lp3261
(lp3262
I0
aI1
aI0
aI0
aa(lp3263
I0
aI0
aI0
aI0
aa(lp3264
I0
aI1
aI0
aI0
aa(lp3265
I0
aI0
aI1
aI0
aaa(lp3266
(lp3267
I0
aI1
aI0
aI0
aa(lp3268
I1
aI0
aI0
aI1
aa(lp3269
I0
aI0
aI0
aI0
aa(lp3270
I0
aI0
aI0
aI0
aaa(lp3271
(lp3272
I0
aI0
aI0
aI0
aa(lp3273
I2
aI2
aI0
aI0
aa(lp3274
I2
aI2
aI1
aI0
aa(lp3275
I1
aI0
aI0
aI0
aaa(lp3276
(lp3277
I0
aI0
aI0
aI0
aa(lp3278
I0
aI0
aI0
aI0
aa(lp3279
I0
aI1
aI2
aI2
aa(lp3280
I1
aI0
aI2
aI2
aaa(lp3281
(lp3282
I0
aI0
aI1
aI1
aa(lp3283
I0
aI0
aI1
aI0
aa(lp3284
I0
aI0
aI0
aI0
aa(lp3285
I0
aI0
aI0
aI0
aaa(lp3286
(lp3287
I0
aI0
aI2
aI2
aa(lp3288
I0
aI1
aI2
aI2
aa(lp3289
I0
aI0
aI0
aI0
aa(lp3290
I0
aI0
aI0
aI1
aaa(lp3291
(lp3292
I0
aI0
aI2
aI2
aa(lp3293
I1
aI0
aI2
aI2
aa(lp3294
I0
aI0
aI0
aI0
aa(lp3295
I0
aI1
aI0
aI0
aaa(lp3296
(lp3297
I0
aI0
aI1
aI0
aa(lp3298
I0
aI0
aI2
aI2
aa(lp3299
I1
aI0
aI2
aI2
aa(lp3300
I0
aI0
aI0
aI0
aaa(lp3301
(lp3302
I0
aI0
aI1
aI1
aa(lp3303
I0
aI0
aI0
aI0
aa(lp3304
I0
aI0
aI0
aI0
aa(lp3305
I0
aI0
aI1
aI0
aaa(lp3306
(lp3307
I1
aI0
aI0
aI0
aa(lp3308
I2
aI2
aI0
aI0
aa(lp3309
I2
aI2
aI0
aI0
aa(lp3310
I1
aI0
aI0
aI0
aaa(lp3311
(lp3312
I0
aI0
aI0
aI0
aa(lp3313
I1
aI0
aI0
aI0
aa(lp3314
I0
aI0
aI2
aI2
aa(lp3315
I1
aI0
aI2
aI2
aaa(lp3316
(lp3317
I0
aI0
aI0
aI1
aa(lp3318
I0
aI1
aI0
aI0
aa(lp3319
I0
aI0
aI0
aI0
aa(lp3320
I0
aI1
aI0
aI0
aaa(lp3321
(lp3322
I1
aI0
aI0
aI0
aa(lp3323
I0
aI0
aI0
aI0
aa(lp3324
I1
aI0
aI0
aI0
aa(lp3325
I0
aI1
aI0
aI0
aaa(lp3326
(lp3327
I0
aI3
aI3
aI3
aa(lp3328
I0
aI3
aI3
aI3
aa(lp3329
I0
aI3
aI3
aI3
aa(lp3330
I1
aI0
aI0
aI1
aaa(lp3331
(lp3332
I0
aI0
aI2
aI2
aa(lp3333
I0
aI0
aI2
aI2
aa(lp3334
I0
aI0
aI0
aI0
aa(lp3335
I1
aI1
aI0
aI0
aaa(lp3336
(lp3337
I0
aI0
aI0
aI0
aa(lp3338
I0
aI0
aI0
aI1
aa(lp3339
I0
aI0
aI1
aI0
aa(lp3340
I0
aI0
aI0
aI1
aaa(lp3341
(lp3342
I0
aI0
aI0
aI0
aa(lp3343
I0
aI0
aI0
aI1
aa(lp3344
I0
aI0
aI1
aI1
aa(lp3345
I0
aI0
aI0
aI0
aaa(lp3346
(lp3347
I1
aI0
aI0
aI0
aa(lp3348
I0
aI0
aI0
aI0
aa(lp3349
I1
aI1
aI0
aI0
aa(lp3350
I0
aI0
aI0
aI0
aaa(lp3351
(lp3352
I0
aI0
aI2
aI2
aa(lp3353
I0
aI0
aI2
aI2
aa(lp3354
I0
aI2
aI2
aI0
aa(lp3355
I0
aI2
aI2
aI1
aaa(lp3356
(lp3357
I0
aI3
aI3
aI3
aa(lp3358
I0
aI3
aI3
aI3
aa(lp3359
I0
aI3
aI3
aI3
aa(lp3360
I0
aI1
aI0
aI1
aaa(lp3361
(lp3362
I0
aI0
aI1
aI0
aa(lp3363
I0
aI0
aI0
aI0
aa(lp3364
I0
aI0
aI0
aI0
aa(lp3365
I0
aI0
aI1
aI1
aaa(lp3366
(lp3367
I0
aI0
aI0
aI0
aa(lp3368
I0
aI1
aI0
aI1
aa(lp3369
I0
aI0
aI0
aI0
aa(lp3370
I1
aI0
aI0
aI0
aaa(lp3371
(lp3372
I1
aI0
aI0
aI1
aa(lp3373
I0
aI1
aI0
aI0
aa(lp3374
I0
aI0
aI0
aI0
aa(lp3375
I0
aI0
aI0
aI0
aaa(lp3376
(lp3377
I0
aI0
aI1
aI0
aa(lp3378
I0
aI1
aI0
aI1
aa(lp3379
I0
aI0
aI0
aI0
aa(lp3380
I0
aI0
aI0
aI0
aaa(lp3381
(lp3382
I0
aI0
aI1
aI1
aa(lp3383
I0
aI0
aI0
aI0
aa(lp3384
I0
aI0
aI1
aI0
aa(lp3385
I0
aI0
aI0
aI0
aaa(lp3386
(lp3387
I0
aI0
aI0
aI0
aa(lp3388
I0
aI0
aI0
aI0
aa(lp3389
I0
aI0
aI0
aI0
aa(lp3390
I1
aI1
aI0
aI1
aaa(lp3391
(lp3392
I0
aI0
aI1
aI0
aa(lp3393
I1
aI0
aI0
aI0
aa(lp3394
I0
aI1
aI0
aI0
aa(lp3395
I0
aI0
aI0
aI0
aaa(lp3396
(lp3397
I0
aI0
aI2
aI2
aa(lp3398
I0
aI0
aI2
aI2
aa(lp3399
I0
aI1
aI2
aI2
aa(lp3400
I0
aI0
aI2
aI2
aaa(lp3401
(lp3402
I0
aI0
aI0
aI1
aa(lp3403
I1
aI0
aI0
aI0
aa(lp3404
I0
aI0
aI1
aI0
aa(lp3405
I0
aI0
aI0
aI0
aaa(lp3406
(lp3407
I3
aI3
aI3
aI0
aa(lp3408
I3
aI3
aI3
aI1
aa(lp3409
I3
aI3
aI3
aI0
aa(lp3410
I0
aI0
aI0
aI1
aaa(lp3411
(lp3412
I0
aI3
aI3
aI3
aa(lp3413
I0
aI3
aI3
aI3
aa(lp3414
I1
aI3
aI3
aI3
aa(lp3415
I0
aI1
aI0
aI0
aaa(lp3416
(lp3417
I1
aI0
aI0
aI0
aa(lp3418
I0
aI1
aI0
aI0
aa(lp3419
I0
aI0
aI0
aI0
aa(lp3420
I0
aI0
aI0
aI1
aaa(lp3421
(lp3422
I0
aI1
aI1
aI0
aa(lp3423
I0
aI0
aI0
aI0
aa(lp3424
I0
aI0
aI0
aI1
aa(lp3425
I0
aI0
aI0
aI0
aaa(lp3426
(lp3427
I1
aI0
aI0
aI0
aa(lp3428
I0
aI1
aI1
aI0
aa(lp3429
I0
aI0
aI0
aI0
aa(lp3430
I0
aI0
aI0
aI0
aaa(lp3431
(lp3432
I0
aI0
aI0
aI0
aa(lp3433
I0
aI1
aI0
aI1
aa(lp3434
I0
aI0
aI1
aI0
aa(lp3435
I0
aI0
aI0
aI0
aaa(lp3436
(lp3437
I0
aI0
aI1
aI0
aa(lp3438
I0
aI0
aI0
aI0
aa(lp3439
I0
aI0
aI0
aI1
aa(lp3440
I0
aI0
aI0
aI1
aaa(lp3441
(lp3442
I0
aI0
aI0
aI1
aa(lp3443
I1
aI0
aI0
aI1
aa(lp3444
I0
aI0
aI0
aI0
aa(lp3445
I0
aI0
aI0
aI0
aaa(lp3446
(lp3447
I0
aI3
aI3
aI3
aa(lp3448
I0
aI3
aI3
aI3
aa(lp3449
I1
aI3
aI3
aI3
aa(lp3450
I0
aI0
aI0
aI1
aaa(lp3451
(lp3452
I0
aI0
aI0
aI0
aa(lp3453
I1
aI0
aI0
aI1
aa(lp3454
I0
aI0
aI0
aI0
aa(lp3455
I0
aI0
aI1
aI0
aaa(lp3456
(lp3457
I0
aI1
aI0
aI0
aa(lp3458
I0
aI1
aI0
aI0
aa(lp3459
I0
aI0
aI0
aI0
aa(lp3460
I0
aI1
aI0
aI0
aaa(lp3461
(lp3462
I2
aI2
aI0
aI0
aa(lp3463
I2
aI2
aI0
aI1
aa(lp3464
I0
aI0
aI2
aI2
aa(lp3465
I0
aI0
aI2
aI2
aaa(lp3466
(lp3467
I0
aI0
aI0
aI0
aa(lp3468
I0
aI0
aI1
aI1
aa(lp3469
I0
aI0
aI1
aI0
aa(lp3470
I0
aI0
aI0
aI0
aaa(lp3471
(lp3472
I0
aI2
aI2
aI0
aa(lp3473
I0
aI2
aI2
aI0
aa(lp3474
I0
aI2
aI2
aI0
aa(lp3475
I0
aI2
aI2
aI1
aaa(lp3476
(lp3477
I1
aI0
aI1
aI0
aa(lp3478
I0
aI1
aI0
aI0
aa(lp3479
I0
aI0
aI0
aI0
aa(lp3480
I0
aI0
aI0
aI0
aaa(lp3481
(lp3482
I0
aI1
aI0
aI0
aa(lp3483
I0
aI0
aI0
aI0
aa(lp3484
I0
aI0
aI0
aI0
aa(lp3485
I0
aI1
aI1
aI0
aaa(lp3486
(lp3487
I0
aI1
aI0
aI1
aa(lp3488
I3
aI3
aI3
aI0
aa(lp3489
I3
aI3
aI3
aI0
aa(lp3490
I3
aI3
aI3
aI0
aaa(lp3491
(lp3492
I2
aI2
aI0
aI0
aa(lp3493
I2
aI2
aI0
aI0
aa(lp3494
I1
aI0
aI0
aI0
aa(lp3495
I1
aI0
aI0
aI0
aaa(lp3496
(lp3497
I0
aI0
aI0
aI0
aa(lp3498
I0
aI1
aI0
aI0
aa(lp3499
I1
aI0
aI2
aI2
aa(lp3500
I0
aI0
aI2
aI2
aaa(lp3501
(lp3502
I3
aI3
aI3
aI0
aa(lp3503
I3
aI3
aI3
aI0
aa(lp3504
I3
aI3
aI3
aI1
aa(lp3505
I0
aI0
aI1
aI0
aaa(lp3506
(lp3507
I0
aI0
aI0
aI0
aa(lp3508
I0
aI0
aI0
aI0
aa(lp3509
I0
aI0
aI0
aI1
aa(lp3510
I1
aI1
aI0
aI0
aaa(lp3511
(lp3512
I0
aI0
aI0
aI0
aa(lp3513
I0
aI1
aI0
aI0
aa(lp3514
I0
aI1
aI0
aI0
aa(lp3515
I0
aI0
aI0
aI1
aaa(lp3516
(lp3517
I0
aI1
aI0
aI0
aa(lp3518
I1
aI3
aI3
aI3
aa(lp3519
I0
aI3
aI3
aI3
aa(lp3520
I0
aI3
aI3
aI3
aaa(lp3521
(lp3522
I0
aI0
aI1
aI0
aa(lp3523
I0
aI0
aI1
aI0
aa(lp3524
I0
aI0
aI0
aI0
aa(lp3525
I0
aI1
aI0
aI0
aaa(lp3526
(lp3527
I0
aI0
aI0
aI0
aa(lp3528
I0
aI0
aI0
aI1
aa(lp3529
I0
aI1
aI0
aI0
aa(lp3530
I0
aI0
aI1
aI0
aaa(lp3531
(lp3532
I0
aI0
aI2
aI2
aa(lp3533
I0
aI0
aI2
aI2
aa(lp3534
I0
aI0
aI0
aI1
aa(lp3535
I0
aI0
aI0
aI1
aaa(lp3536
(lp3537
I0
aI2
aI2
aI0
aa(lp3538
I0
aI2
aI2
aI0
aa(lp3539
I0
aI1
aI0
aI0
aa(lp3540
I0
aI1
aI0
aI0
aaa(lp3541
(lp3542
I2
aI2
aI0
aI0
aa(lp3543
I2
aI2
aI0
aI0
aa(lp3544
I1
aI1
aI0
aI0
aa(lp3545
I0
aI0
aI0
aI0
aaa(lp3546
(lp3547
I1
aI0
aI0
aI0
aa(lp3548
I0
aI1
aI0
aI0
aa(lp3549
I0
aI0
aI1
aI0
aa(lp3550
I0
aI0
aI0
aI0
aaa(lp3551
(lp3552
I0
aI1
aI2
aI2
aa(lp3553
I0
aI0
aI2
aI2
aa(lp3554
I0
aI0
aI0
aI1
aa(lp3555
I0
aI0
aI0
aI0
aaa(lp3556
(lp3557
I0
aI0
aI2
aI2
aa(lp3558
I0
aI0
aI2
aI2
aa(lp3559
I0
aI0
aI0
aI1
aa(lp3560
I1
aI0
aI0
aI0
aaa(lp3561
(lp3562
I0
aI2
aI2
aI1
aa(lp3563
I0
aI2
aI2
aI0
aa(lp3564
I0
aI0
aI0
aI0
aa(lp3565
I0
aI1
aI0
aI0
aaa(lp3566
(lp3567
I0
aI0
aI0
aI0
aa(lp3568
I2
aI2
aI2
aI2
aa(lp3569
I2
aI2
aI2
aI2
aa(lp3570
I0
aI1
aI0
aI0
aaa(lp3571
(lp3572
I0
aI0
aI0
aI0
aa(lp3573
I0
aI0
aI1
aI0
aa(lp3574
I2
aI2
aI2
aI2
aa(lp3575
I2
aI2
aI2
aI2
aaa(lp3576
(lp3577
I0
aI1
aI0
aI0
aa(lp3578
I1
aI0
aI0
aI0
aa(lp3579
I0
aI2
aI2
aI0
aa(lp3580
I0
aI2
aI2
aI0
aaa(lp3581
(lp3582
I0
aI0
aI1
aI0
aa(lp3583
I2
aI2
aI0
aI0
aa(lp3584
I2
aI2
aI1
aI0
aa(lp3585
I0
aI0
aI0
aI0
aaa(lp3586
(lp3587
I0
aI0
aI0
aI0
aa(lp3588
I0
aI0
aI0
aI0
aa(lp3589
I1
aI0
aI1
aI0
aa(lp3590
I1
aI0
aI0
aI0
aaa(lp3591
(lp3592
I2
aI2
aI0
aI0
aa(lp3593
I2
aI2
aI2
aI2
aa(lp3594
I2
aI2
aI2
aI2
aa(lp3595
I2
aI2
aI0
aI0
aaa(lp3596
(lp3597
I1
aI0
aI0
aI0
aa(lp3598
I0
aI0
aI1
aI0
aa(lp3599
I0
aI0
aI0
aI0
aa(lp3600
I0
aI0
aI0
aI1
aaa(lp3601
(lp3602
I0
aI1
aI2
aI2
aa(lp3603
I0
aI0
aI2
aI2
aa(lp3604
I2
aI2
aI0
aI0
aa(lp3605
I2
aI2
aI0
aI0
aaa(lp3606
(lp3607
I0
aI2
aI2
aI0
aa(lp3608
I0
aI2
aI2
aI0
aa(lp3609
I0
aI0
aI2
aI2
aa(lp3610
I1
aI0
aI2
aI2
aaa(lp3611
(lp3612
I0
aI0
aI0
aI0
aa(lp3613
I0
aI1
aI1
aI0
aa(lp3614
I0
aI0
aI0
aI0
aa(lp3615
I0
aI0
aI1
aI0
aaa(lp3616
(lp3617
I2
aI2
aI0
aI0
aa(lp3618
I2
aI2
aI0
aI0
aa(lp3619
I0
aI1
aI0
aI0
aa(lp3620
I0
aI0
aI1
aI0
aaa(lp3621
(lp3622
I2
aI2
aI0
aI0
aa(lp3623
I2
aI2
aI1
aI1
aa(lp3624
I0
aI0
aI0
aI0
aa(lp3625
I0
aI0
aI0
aI0
aaa(lp3626
(lp3627
I0
aI1
aI2
aI2
aa(lp3628
I0
aI0
aI2
aI2
aa(lp3629
I0
aI0
aI0
aI0
aa(lp3630
I0
aI1
aI0
aI0
aaa(lp3631
(lp3632
I0
aI0
aI0
aI1
aa(lp3633
I1
aI0
aI2
aI2
aa(lp3634
I0
aI0
aI2
aI2
aa(lp3635
I0
aI0
aI0
aI0
aaa(lp3636
(lp3637
I0
aI2
aI2
aI0
aa(lp3638
I0
aI2
aI2
aI1
aa(lp3639
I0
aI0
aI0
aI0
aa(lp3640
I0
aI0
aI0
aI1
aaa(lp3641
(lp3642
I0
aI0
aI0
aI0
aa(lp3643
I2
aI2
aI0
aI0
aa(lp3644
I2
aI2
aI0
aI0
aa(lp3645
I0
aI0
aI1
aI1
aaa(lp3646
(lp3647
I0
aI0
aI0
aI0
aa(lp3648
I0
aI0
aI0
aI1
aa(lp3649
I2
aI2
aI0
aI1
aa(lp3650
I2
aI2
aI0
aI0
aaa(lp3651
(lp3652
I0
aI0
aI0
aI0
aa(lp3653
I1
aI2
aI2
aI0
aa(lp3654
I0
aI2
aI2
aI0
aa(lp3655
I0
aI0
aI1
aI0
aaa(lp3656
(lp3657
I1
aI0
aI0
aI0
aa(lp3658
I2
aI2
aI0
aI0
aa(lp3659
I2
aI2
aI1
aI0
aa(lp3660
I0
aI0
aI0
aI0
aaa(lp3661
(lp3662
I0
aI1
aI0
aI1
aa(lp3663
I0
aI3
aI3
aI3
aa(lp3664
I0
aI3
aI3
aI3
aa(lp3665
I0
aI3
aI3
aI3
aaa(lp3666
(lp3667
I0
aI0
aI2
aI2
aa(lp3668
I0
aI0
aI2
aI2
aa(lp3669
I0
aI0
aI0
aI0
aa(lp3670
I0
aI0
aI1
aI1
aaa(lp3671
(lp3672
I0
aI3
aI3
aI3
aa(lp3673
I0
aI3
aI3
aI3
aa(lp3674
I0
aI3
aI3
aI3
aa(lp3675
I0
aI0
aI1
aI1
aaa(lp3676
(lp3677
I0
aI0
aI1
aI1
aa(lp3678
I0
aI0
aI0
aI0
aa(lp3679
I2
aI2
aI0
aI0
aa(lp3680
I2
aI2
aI0
aI0
aaa(lp3681
(lp3682
I1
aI0
aI0
aI0
aa(lp3683
I0
aI2
aI2
aI0
aa(lp3684
I0
aI2
aI2
aI0
aa(lp3685
I0
aI0
aI1
aI0
aaa(lp3686
(lp3687
I0
aI0
aI0
aI1
aa(lp3688
I0
aI0
aI2
aI2
aa(lp3689
I0
aI0
aI2
aI2
aa(lp3690
I0
aI0
aI1
aI0
aaa(lp3691
(lp3692
I0
aI0
aI0
aI1
aa(lp3693
I0
aI1
aI0
aI0
aa(lp3694
I0
aI0
aI0
aI0
aa(lp3695
I0
aI0
aI0
aI1
aaa(lp3696
(lp3697
I0
aI0
aI0
aI0
aa(lp3698
I0
aI1
aI0
aI0
aa(lp3699
I2
aI2
aI0
aI0
aa(lp3700
I2
aI2
aI1
aI0
aaa(lp3701
(lp3702
I1
aI2
aI2
aI0
aa(lp3703
I0
aI2
aI2
aI0
aa(lp3704
I0
aI1
aI0
aI0
aa(lp3705
I0
aI0
aI0
aI0
aaa(lp3706
(lp3707
I0
aI0
aI1
aI0
aa(lp3708
I0
aI0
aI0
aI0
aa(lp3709
I0
aI0
aI0
aI0
aa(lp3710
I0
aI1
aI1
aI0
aaa(lp3711
(lp3712
I0
aI0
aI0
aI0
aa(lp3713
I1
aI0
aI0
aI1
aa(lp3714
I0
aI0
aI0
aI0
aa(lp3715
I0
aI0
aI0
aI1
aaa(lp3716
(lp3717
I0
aI0
aI1
aI0
aa(lp3718
I1
aI1
aI0
aI0
aa(lp3719
I0
aI0
aI0
aI0
aa(lp3720
I0
aI0
aI0
aI0
aaa(lp3721
(lp3722
I0
aI0
aI0
aI0
aa(lp3723
I0
aI0
aI0
aI0
aa(lp3724
I0
aI0
aI1
aI1
aa(lp3725
I0
aI1
aI0
aI0
aaa(lp3726
(lp3727
I0
aI0
aI0
aI0
aa(lp3728
I0
aI0
aI1
aI1
aa(lp3729
I0
aI0
aI0
aI0
aa(lp3730
I1
aI0
aI0
aI0
aaa(lp3731
(lp3732
I0
aI0
aI0
aI0
aa(lp3733
I0
aI0
aI2
aI2
aa(lp3734
I0
aI0
aI2
aI2
aa(lp3735
I0
aI1
aI0
aI1
aaa(lp3736
(lp3737
I0
aI0
aI1
aI0
aa(lp3738
I0
aI0
aI1
aI1
aa(lp3739
I0
aI0
aI0
aI0
aa(lp3740
I0
aI0
aI0
aI0
aaa(lp3741
(lp3742
I0
aI0
aI0
aI0
aa(lp3743
I1
aI1
aI0
aI0
aa(lp3744
I0
aI2
aI2
aI0
aa(lp3745
I0
aI2
aI2
aI0
aaa(lp3746
(lp3747
I0
aI1
aI0
aI0
aa(lp3748
I0
aI1
aI0
aI0
aa(lp3749
I0
aI0
aI0
aI0
aa(lp3750
I1
aI0
aI0
aI0
aaa(lp3751
(lp3752
I0
aI0
aI0
aI0
aa(lp3753
I0
aI0
aI1
aI0
aa(lp3754
I0
aI0
aI0
aI0
aa(lp3755
I1
aI0
aI1
aI0
aaa(lp3756
(lp3757
I2
aI2
aI2
aI2
aa(lp3758
I2
aI2
aI2
aI2
aa(lp3759
I0
aI0
aI0
aI0
aa(lp3760
I0
aI0
aI0
aI1
aaa(lp3761
(lp3762
I0
aI0
aI0
aI0
aa(lp3763
I0
aI0
aI1
aI0
aa(lp3764
I1
aI0
aI0
aI0
aa(lp3765
I0
aI0
aI0
aI1
aaa(lp3766
(lp3767
I0
aI0
aI1
aI0
aa(lp3768
I0
aI0
aI0
aI1
aa(lp3769
I0
aI0
aI0
aI0
aa(lp3770
I1
aI0
aI0
aI0
aaa(lp3771
(lp3772
I1
aI0
aI0
aI0
aa(lp3773
I0
aI0
aI0
aI0
aa(lp3774
I0
aI0
aI0
aI1
aa(lp3775
I0
aI0
aI0
aI1
aaa(lp3776
(lp3777
I0
aI2
aI2
aI1
aa(lp3778
I0
aI2
aI2
aI0
aa(lp3779
I0
aI0
aI0
aI0
aa(lp3780
I1
aI0
aI0
aI0
aaa(lp3781
(lp3782
I1
aI0
aI0
aI0
aa(lp3783
I1
aI0
aI0
aI0
aa(lp3784
I0
aI1
aI0
aI0
aa(lp3785
I0
aI0
aI0
aI0
aaa(lp3786
(lp3787
I1
aI0
aI0
aI0
aa(lp3788
I0
aI1
aI0
aI1
aa(lp3789
I0
aI0
aI0
aI0
aa(lp3790
I0
aI0
aI0
aI0
aaa(lp3791
(lp3792
I1
aI3
aI3
aI3
aa(lp3793
I0
aI3
aI3
aI3
aa(lp3794
I0
aI3
aI3
aI3
aa(lp3795
I1
aI0
aI0
aI0
aaa(lp3796
(lp3797
I0
aI0
aI0
aI0
aa(lp3798
I0
aI2
aI2
aI1
aa(lp3799
I0
aI2
aI2
aI0
aa(lp3800
I0
aI1
aI0
aI0
aaa(lp3801
(lp3802
I0
aI0
aI0
aI0
aa(lp3803
I0
aI0
aI0
aI1
aa(lp3804
I0
aI0
aI1
aI0
aa(lp3805
I0
aI0
aI1
aI0
aaa(lp3806
(lp3807
I2
aI2
aI2
aI2
aa(lp3808
I2
aI2
aI2
aI2
aa(lp3809
I0
aI0
aI2
aI2
aa(lp3810
I0
aI0
aI2
aI2
aaa(lp3811
(lp3812
I0
aI0
aI0
aI0
aa(lp3813
I1
aI0
aI0
aI0
aa(lp3814
I2
aI2
aI2
aI2
aa(lp3815
I2
aI2
aI2
aI2
aaa(lp3816
(lp3817
I0
aI0
aI0
aI0
aa(lp3818
I0
aI1
aI0
aI0
aa(lp3819
I0
aI0
aI0
aI0
aa(lp3820
I0
aI1
aI0
aI1
aaa(lp3821
(lp3822
I0
aI0
aI0
aI1
aa(lp3823
I0
aI0
aI2
aI2
aa(lp3824
I0
aI0
aI2
aI2
aa(lp3825
I1
aI0
aI0
aI0
aaa(lp3826
(lp3827
I1
aI0
aI0
aI0
aa(lp3828
I1
aI0
aI0
aI0
aa(lp3829
I0
aI0
aI0
aI0
aa(lp3830
I0
aI1
aI0
aI0
aaa(lp3831
(lp3832
I0
aI0
aI1
aI0
aa(lp3833
I0
aI0
aI2
aI2
aa(lp3834
I0
aI0
aI2
aI2
aa(lp3835
I0
aI0
aI0
aI1
aaa(lp3836
(lp3837
I2
aI2
aI2
aI2
aa(lp3838
I2
aI2
aI2
aI2
aa(lp3839
I0
aI2
aI2
aI0
aa(lp3840
I0
aI2
aI2
aI0
aaa(lp3841
(lp3842
I0
aI0
aI1
aI0
aa(lp3843
I0
aI0
aI0
aI0
aa(lp3844
I0
aI1
aI0
aI0
aa(lp3845
I1
aI0
aI0
aI0
aaa(lp3846
(lp3847
I1
aI0
aI0
aI0
aa(lp3848
I0
aI0
aI0
aI1
aa(lp3849
I0
aI2
aI2
aI0
aa(lp3850
I0
aI2
aI2
aI0
aaa(lp3851
(lp3852
I2
aI2
aI0
aI1
aa(lp3853
I2
aI2
aI2
aI2
aa(lp3854
I0
aI0
aI2
aI2
aa(lp3855
I0
aI0
aI0
aI0
aaa(lp3856
(lp3857
I1
aI0
aI0
aI0
aa(lp3858
I2
aI2
aI0
aI0
aa(lp3859
I2
aI2
aI0
aI0
aa(lp3860
I0
aI1
aI0
aI0
aaa(lp3861
(lp3862
I0
aI0
aI0
aI0
aa(lp3863
I1
aI0
aI0
aI1
aa(lp3864
I2
aI2
aI0
aI0
aa(lp3865
I2
aI2
aI0
aI0
aaa(lp3866
(lp3867
I0
aI0
aI0
aI0
aa(lp3868
I0
aI1
aI0
aI1
aa(lp3869
I0
aI1
aI0
aI0
aa(lp3870
I0
aI0
aI0
aI0
aaa(lp3871
(lp3872
I0
aI0
aI1
aI0
aa(lp3873
I0
aI0
aI0
aI0
aa(lp3874
I1
aI2
aI2
aI0
aa(lp3875
I0
aI2
aI2
aI0
aaa(lp3876
(lp3877
I0
aI0
aI0
aI0
aa(lp3878
I0
aI0
aI1
aI1
aa(lp3879
I0
aI0
aI0
aI0
aa(lp3880
I0
aI0
aI1
aI0
aaa(lp3881
(lp3882
I1
aI0
aI1
aI0
aa(lp3883
I1
aI0
aI0
aI0
aa(lp3884
I0
aI0
aI0
aI0
aa(lp3885
I0
aI0
aI0
aI0
aaa(lp3886
(lp3887
I0
aI0
aI0
aI0
aa(lp3888
I0
aI0
aI0
aI0
aa(lp3889
I0
aI1
aI0
aI0
aa(lp3890
I1
aI1
aI0
aI0
aaa(lp3891
(lp3892
I0
aI0
aI0
aI0
aa(lp3893
I0
aI0
aI0
aI0
aa(lp3894
I0
aI0
aI0
aI0
aa(lp3895
I1
aI1
aI1
aI0
aaa(lp3896
(lp3897
I0
aI0
aI2
aI2
aa(lp3898
I0
aI0
aI2
aI2
aa(lp3899
I0
aI2
aI2
aI0
aa(lp3900
I1
aI2
aI2
aI0
aaa(lp3901
(lp3902
I1
aI1
aI0
aI0
aa(lp3903
I0
aI0
aI0
aI0
aa(lp3904
I0
aI0
aI0
aI1
aa(lp3905
I0
aI0
aI0
aI0
aaa(lp3906
(lp3907
I0
aI2
aI2
aI1
aa(lp3908
I0
aI2
aI2
aI0
aa(lp3909
I0
aI0
aI0
aI0
aa(lp3910
I0
aI0
aI1
aI0
aaa(lp3911
(lp3912
I0
aI0
aI2
aI2
aa(lp3913
I0
aI0
aI2
aI2
aa(lp3914
I0
aI0
aI0
aI1
aa(lp3915
I0
aI1
aI0
aI0
aaa(lp3916
(lp3917
I1
aI0
aI0
aI1
aa(lp3918
I0
aI2
aI2
aI0
aa(lp3919
I0
aI2
aI2
aI0
aa(lp3920
I0
aI0
aI0
aI0
aaa(lp3921
(lp3922
I0
aI0
aI0
aI0
aa(lp3923
I0
aI1
aI0
aI0
aa(lp3924
I1
aI0
aI0
aI1
aa(lp3925
I0
aI0
aI0
aI0
aaa(lp3926
(lp3927
I0
aI0
aI0
aI1
aa(lp3928
I2
aI2
aI0
aI0
aa(lp3929
I2
aI2
aI0
aI0
aa(lp3930
I0
aI1
aI0
aI0
aaa(lp3931
(lp3932
I0
aI2
aI2
aI0
aa(lp3933
I0
aI2
aI2
aI0
aa(lp3934
I0
aI2
aI2
aI0
aa(lp3935
I1
aI2
aI2
aI0
aaa(lp3936
(lp3937
I0
aI1
aI0
aI0
aa(lp3938
I0
aI1
aI0
aI0
aa(lp3939
I0
aI0
aI0
aI0
aa(lp3940
I0
aI0
aI1
aI0
aaa(lp3941
(lp3942
I0
aI0
aI0
aI0
aa(lp3943
I1
aI0
aI0
aI0
aa(lp3944
I1
aI0
aI1
aI0
aa(lp3945
I0
aI0
aI0
aI0
aaa(lp3946
(lp3947
I0
aI0
aI0
aI0
aa(lp3948
I0
aI1
aI0
aI1
aa(lp3949
I2
aI2
aI0
aI0
aa(lp3950
I2
aI2
aI0
aI0
aaa(lp3951
(lp3952
I0
aI0
aI0
aI0
aa(lp3953
I0
aI0
aI0
aI0
aa(lp3954
I0
aI1
aI0
aI0
aa(lp3955
I1
aI0
aI1
aI0
aaa(lp3956
(lp3957
I1
aI0
aI0
aI0
aa(lp3958
I0
aI0
aI0
aI0
aa(lp3959
I1
aI0
aI0
aI0
aa(lp3960
I1
aI0
aI0
aI0
aaa(lp3961
(lp3962
I1
aI1
aI1
aI0
aa(lp3963
I0
aI0
aI0
aI0
aa(lp3964
I0
aI0
aI0
aI0
aa(lp3965
I0
aI0
aI0
aI0
aaa(lp3966
(lp3967
I0
aI0
aI1
aI0
aa(lp3968
I0
aI0
aI0
aI0
aa(lp3969
I0
aI0
aI1
aI0
aa(lp3970
I1
aI0
aI0
aI0
aaa(lp3971
(lp3972
I0
aI0
aI1
aI1
aa(lp3973
I0
aI3
aI3
aI3
aa(lp3974
I0
aI3
aI3
aI3
aa(lp3975
I0
aI3
aI3
aI3
aaa(lp3976
(lp3977
I0
aI0
aI1
aI0
aa(lp3978
I0
aI1
aI0
aI0
aa(lp3979
I0
aI0
aI2
aI2
aa(lp3980
I0
aI0
aI2
aI2
aaa(lp3981
(lp3982
I0
aI3
aI3
aI3
aa(lp3983
I0
aI3
aI3
aI3
aa(lp3984
I0
aI3
aI3
aI3
aa(lp3985
I1
aI0
aI1
aI0
aaa(lp3986
(lp3987
I0
aI0
aI2
aI2
aa(lp3988
I0
aI0
aI2
aI2
aa(lp3989
I0
aI0
aI1
aI0
aa(lp3990
I0
aI0
aI0
aI1
aaa(lp3991
(lp3992
I0
aI0
aI0
aI0
aa(lp3993
I0
aI0
aI0
aI1
aa(lp3994
I2
aI2
aI2
aI2
aa(lp3995
I2
aI2
aI2
aI2
aaa(lp3996
(lp3997
I2
aI2
aI0
aI0
aa(lp3998
I2
aI2
aI1
aI0
aa(lp3999
I0
aI0
aI1
aI0
aa(lp4000
I0
aI0
aI0
aI0
aaa(lp4001
(lp4002
I2
aI2
aI0
aI0
aa(lp4003
I2
aI2
aI0
aI0
aa(lp4004
I0
aI0
aI0
aI0
aa(lp4005
I0
aI0
aI1
aI1
aaa(lp4006
(lp4007
I0
aI1
aI0
aI1
aa(lp4008
I0
aI0
aI0
aI1
aa(lp4009
I0
aI0
aI0
aI0
aa(lp4010
I0
aI0
aI0
aI0
aaa(lp4011
(lp4012
I1
aI0
aI1
aI0
aa(lp4013
I0
aI0
aI0
aI0
aa(lp4014
I0
aI0
aI0
aI0
aa(lp4015
I0
aI1
aI0
aI0
aaa(lp4016
(lp4017
I0
aI1
aI0
aI0
aa(lp4018
I2
aI2
aI1
aI0
aa(lp4019
I2
aI2
aI0
aI0
aa(lp4020
I0
aI0
aI0
aI0
aaa(lp4021
(lp4022
I0
aI1
aI0
aI0
aa(lp4023
I0
aI0
aI0
aI0
aa(lp4024
I0
aI1
aI0
aI0
aa(lp4025
I0
aI1
aI0
aI0
aaa(lp4026
(lp4027
I0
aI0
aI1
aI0
aa(lp4028
I2
aI2
aI2
aI2
aa(lp4029
I2
aI2
aI2
aI2
aa(lp4030
I0
aI0
aI0
aI0
aaa(lp4031
(lp4032
I0
aI0
aI1
aI0
aa(lp4033
I0
aI0
aI0
aI0
aa(lp4034
I1
aI1
aI0
aI0
aa(lp4035
I0
aI0
aI0
aI0
aaa(lp4036
(lp4037
I0
aI0
aI0
aI0
aa(lp4038
I0
aI0
aI0
aI0
aa(lp4039
I0
aI0
aI1
aI0
aa(lp4040
I0
aI0
aI1
aI1
aaa(lp4041
(lp4042
I0
aI1
aI1
aI0
aa(lp4043
I0
aI2
aI2
aI0
aa(lp4044
I0
aI2
aI2
aI0
aa(lp4045
I0
aI0
aI0
aI0
aaa(lp4046
(lp4047
I0
aI2
aI2
aI0
aa(lp4048
I0
aI2
aI2
aI0
aa(lp4049
I0
aI0
aI0
aI0
aa(lp4050
I0
aI1
aI1
aI0
aaa(lp4051
(lp4052
I1
aI0
aI1
aI0
aa(lp4053
I0
aI0
aI1
aI0
aa(lp4054
I0
aI0
aI0
aI0
aa(lp4055
I0
aI0
aI0
aI0
aaa(lp4056
(lp4057
I0
aI0
aI0
aI0
aa(lp4058
I0
aI0
aI0
aI0
aa(lp4059
I2
aI2
aI0
aI1
aa(lp4060
I2
aI2
aI0
aI1
aaa(lp4061
(lp4062
I0
aI0
aI0
aI0
aa(lp4063
I1
aI0
aI2
aI2
aa(lp4064
I1
aI0
aI2
aI2
aa(lp4065
I0
aI0
aI0
aI0
aaa(lp4066
(lp4067
I0
aI1
aI0
aI0
aa(lp4068
I0
aI0
aI0
aI0
aa(lp4069
I0
aI0
aI0
aI1
aa(lp4070
I0
aI0
aI0
aI1
aaa(lp4071
(lp4072
I2
aI2
aI0
aI0
aa(lp4073
I2
aI2
aI0
aI0
aa(lp4074
I1
aI0
aI1
aI0
aa(lp4075
I0
aI0
aI0
aI0
aaa(lp4076
(lp4077
I0
aI1
aI0
aI0
aa(lp4078
I0
aI0
aI0
aI1
aa(lp4079
I0
aI0
aI0
aI0
aa(lp4080
I0
aI0
aI1
aI0
aaa(lp4081
(lp4082
I0
aI0
aI2
aI2
aa(lp4083
I0
aI0
aI2
aI2
aa(lp4084
I0
aI0
aI2
aI2
aa(lp4085
I1
aI0
aI2
aI2
aaa(lp4086
(lp4087
I0
aI0
aI0
aI1
aa(lp4088
I0
aI0
aI0
aI1
aa(lp4089
I0
aI0
aI0
aI0
aa(lp4090
I1
aI0
aI0
aI0
aaa(lp4091
(lp4092
I2
aI2
aI0
aI0
aa(lp4093
I2
aI2
aI2
aI2
aa(lp4094
I0
aI1
aI2
aI2
aa(lp4095
I0
aI0
aI0
aI0
aaa(lp4096
(lp4097
I1
aI1
aI0
aI1
aa(lp4098
I0
aI0
aI0
aI0
aa(lp4099
I0
aI0
aI0
aI0
aa(lp4100
I0
aI0
aI0
aI0
aaa(lp4101
(lp4102
I0
aI0
aI2
aI2
aa(lp4103
I0
aI0
aI2
aI2
aa(lp4104
I0
aI1
aI0
aI0
aa(lp4105
I1
aI0
aI0
aI0
aaa(lp4106
(lp4107
I0
aI0
aI0
aI0
aa(lp4108
I1
aI1
aI0
aI0
aa(lp4109
I0
aI0
aI1
aI0
aa(lp4110
I0
aI0
aI0
aI0
aaa(lp4111
(lp4112
I0
aI1
aI2
aI2
aa(lp4113
I2
aI2
aI2
aI2
aa(lp4114
I2
aI2
aI0
aI0
aa(lp4115
I0
aI0
aI0
aI0
aaa(lp4116
(lp4117
I0
aI0
aI0
aI0
aa(lp4118
I0
aI0
aI2
aI2
aa(lp4119
I0
aI1
aI2
aI2
aa(lp4120
I0
aI1
aI0
aI0
aaa(lp4121
(lp4122
I0
aI0
aI0
aI0
aa(lp4123
I1
aI0
aI0
aI0
aa(lp4124
I0
aI0
aI1
aI1
aa(lp4125
I0
aI0
aI0
aI0
aaa(lp4126
(lp4127
I0
aI0
aI0
aI0
aa(lp4128
I0
aI0
aI1
aI0
aa(lp4129
I0
aI2
aI2
aI0
aa(lp4130
I0
aI2
aI2
aI1
aaa(lp4131
(lp4132
I0
aI0
aI0
aI1
aa(lp4133
I0
aI3
aI3
aI3
aa(lp4134
I0
aI3
aI3
aI3
aa(lp4135
I1
aI3
aI3
aI3
aaa(lp4136
(lp4137
I1
aI0
aI0
aI0
aa(lp4138
I0
aI0
aI0
aI0
aa(lp4139
I0
aI0
aI1
aI0
aa(lp4140
I0
aI0
aI0
aI1
aaa(lp4141
(lp4142
I1
aI0
aI0
aI0
aa(lp4143
I0
aI0
aI0
aI1
aa(lp4144
I0
aI0
aI2
aI2
aa(lp4145
I0
aI0
aI2
aI2
aaa(lp4146
(lp4147
I0
aI0
aI0
aI0
aa(lp4148
I0
aI1
aI0
aI0
aa(lp4149
I0
aI0
aI0
aI0
aa(lp4150
I1
aI0
aI0
aI1
aaa(lp4151
(lp4152
I0
aI0
aI0
aI1
aa(lp4153
I0
aI1
aI2
aI2
aa(lp4154
I0
aI0
aI2
aI2
aa(lp4155
I0
aI0
aI0
aI0
aaa(lp4156
(lp4157
I0
aI2
aI2
aI0
aa(lp4158
I1
aI2
aI2
aI0
aa(lp4159
I0
aI0
aI2
aI2
aa(lp4160
I0
aI0
aI2
aI2
aaa(lp4161
(lp4162
I1
aI1
aI0
aI0
aa(lp4163
I0
aI0
aI0
aI0
aa(lp4164
I0
aI0
aI0
aI0
aa(lp4165
I1
aI0
aI0
aI0
aaa(lp4166
(lp4167
I0
aI0
aI1
aI0
aa(lp4168
I0
aI0
aI0
aI0
aa(lp4169
I0
aI0
aI0
aI0
aa(lp4170
I1
aI1
aI0
aI0
aaa(lp4171
(lp4172
I0
aI0
aI0
aI0
aa(lp4173
I0
aI1
aI0
aI0
aa(lp4174
I0
aI0
aI0
aI0
aa(lp4175
I0
aI1
aI1
aI0
aaa(lp4176
(lp4177
I0
aI1
aI0
aI1
aa(lp4178
I0
aI0
aI0
aI0
aa(lp4179
I0
aI0
aI1
aI0
aa(lp4180
I0
aI0
aI0
aI0
aaa(lp4181
(lp4182
I2
aI2
aI2
aI2
aa(lp4183
I2
aI2
aI2
aI2
aa(lp4184
I0
aI0
aI0
aI0
aa(lp4185
I1
aI0
aI0
aI0
aaa(lp4186
(lp4187
I0
aI0
aI0
aI0
aa(lp4188
I0
aI0
aI2
aI2
aa(lp4189
I0
aI0
aI2
aI2
aa(lp4190
I0
aI0
aI1
aI1
aaa(lp4191
(lp4192
I0
aI0
aI0
aI0
aa(lp4193
I2
aI2
aI2
aI2
aa(lp4194
I2
aI2
aI2
aI2
aa(lp4195
I0
aI0
aI0
aI1
aaa(lp4196
(lp4197
I1
aI0
aI1
aI0
aa(lp4198
I0
aI0
aI0
aI0
aa(lp4199
I0
aI0
aI0
aI1
aa(lp4200
I0
aI0
aI0
aI0
aaa(lp4201
(lp4202
I1
aI3
aI3
aI3
aa(lp4203
I0
aI3
aI3
aI3
aa(lp4204
I0
aI3
aI3
aI3
aa(lp4205
I0
aI0
aI1
aI0
aaa(lp4206
(lp4207
I0
aI1
aI0
aI0
aa(lp4208
I0
aI0
aI1
aI0
aa(lp4209
I0
aI0
aI2
aI2
aa(lp4210
I0
aI0
aI2
aI2
aaa(lp4211
(lp4212
I0
aI0
aI0
aI0
aa(lp4213
I0
aI1
aI1
aI0
aa(lp4214
I0
aI0
aI0
aI0
aa(lp4215
I0
aI1
aI0
aI0
aaa(lp4216
(lp4217
I0
aI0
aI0
aI0
aa(lp4218
I1
aI1
aI2
aI2
aa(lp4219
I0
aI0
aI2
aI2
aa(lp4220
I0
aI0
aI0
aI0
aaa(lp4221
(lp4222
I2
aI2
aI2
aI2
aa(lp4223
I2
aI2
aI2
aI2
aa(lp4224
I0
aI0
aI0
aI0
aa(lp4225
I0
aI1
aI0
aI0
aaa(lp4226
(lp4227
I0
aI0
aI0
aI0
aa(lp4228
I0
aI0
aI2
aI2
aa(lp4229
I1
aI0
aI2
aI2
aa(lp4230
I0
aI0
aI1
aI0
aaa(lp4231
(lp4232
I1
aI0
aI0
aI0
aa(lp4233
I0
aI0
aI0
aI0
aa(lp4234
I0
aI0
aI0
aI0
aa(lp4235
I0
aI1
aI1
aI0
aaa(lp4236
(lp4237
I0
aI0
aI1
aI0
aa(lp4238
I0
aI1
aI2
aI2
aa(lp4239
I0
aI0
aI2
aI2
aa(lp4240
I0
aI0
aI0
aI0
aaa(lp4241
(lp4242
I0
aI1
aI0
aI0
aa(lp4243
I1
aI0
aI0
aI0
aa(lp4244
I0
aI0
aI0
aI0
aa(lp4245
I0
aI1
aI0
aI0
aaa(lp4246
(lp4247
I1
aI2
aI2
aI0
aa(lp4248
I0
aI2
aI2
aI0
aa(lp4249
I1
aI0
aI0
aI0
aa(lp4250
I0
aI0
aI0
aI0
aaa(lp4251
(lp4252
I0
aI1
aI0
aI0
aa(lp4253
I0
aI0
aI0
aI1
aa(lp4254
I0
aI0
aI0
aI0
aa(lp4255
I0
aI1
aI0
aI0
aaa(lp4256
(lp4257
I0
aI0
aI0
aI1
aa(lp4258
I0
aI0
aI0
aI0
aa(lp4259
I1
aI0
aI0
aI0
aa(lp4260
I1
aI0
aI0
aI0
aaa(lp4261
(lp4262
I0
aI0
aI0
aI0
aa(lp4263
I0
aI1
aI1
aI0
aa(lp4264
I2
aI2
aI0
aI0
aa(lp4265
I2
aI2
aI0
aI0
aaa(lp4266
(lp4267
I0
aI0
aI0
aI1
aa(lp4268
I0
aI0
aI0
aI0
aa(lp4269
I0
aI1
aI1
aI0
aa(lp4270
I0
aI0
aI0
aI0
aaa(lp4271
(lp4272
I0
aI0
aI0
aI0
aa(lp4273
I0
aI1
aI1
aI0
aa(lp4274
I0
aI0
aI0
aI0
aa(lp4275
I0
aI0
aI0
aI1
aaa(lp4276
(lp4277
I0
aI0
aI0
aI1
aa(lp4278
I0
aI0
aI0
aI0
aa(lp4279
I2
aI2
aI2
aI2
aa(lp4280
I2
aI2
aI2
aI2
aaa(lp4281
(lp4282
I0
aI1
aI0
aI0
aa(lp4283
I0
aI0
aI2
aI2
aa(lp4284
I0
aI0
aI2
aI2
aa(lp4285
I0
aI1
aI0
aI0
aaa(lp4286
(lp4287
I1
aI0
aI0
aI0
aa(lp4288
I0
aI0
aI2
aI2
aa(lp4289
I0
aI0
aI2
aI2
aa(lp4290
I0
aI0
aI1
aI0
aaa(lp4291
(lp4292
I0
aI3
aI3
aI3
aa(lp4293
I1
aI3
aI3
aI3
aa(lp4294
I0
aI3
aI3
aI3
aa(lp4295
I1
aI0
aI0
aI0
aaa(lp4296
(lp4297
I0
aI0
aI0
aI0
aa(lp4298
I0
aI0
aI0
aI0
aa(lp4299
I1
aI2
aI2
aI1
aa(lp4300
I0
aI2
aI2
aI0
aaa(lp4301
(lp4302
I0
aI1
aI0
aI0
aa(lp4303
I0
aI1
aI0
aI0
aa(lp4304
I0
aI0
aI2
aI2
aa(lp4305
I0
aI0
aI2
aI2
aaa(lp4306
(lp4307
I0
aI0
aI1
aI0
aa(lp4308
I1
aI0
aI0
aI0
aa(lp4309
I0
aI0
aI0
aI0
aa(lp4310
I0
aI1
aI0
aI0
aaa(lp4311
(lp4312
I0
aI0
aI2
aI2
aa(lp4313
I0
aI1
aI2
aI2
aa(lp4314
I2
aI2
aI0
aI0
aa(lp4315
I2
aI2
aI0
aI0
aaa(lp4316
(lp4317
I0
aI0
aI0
aI0
aa(lp4318
I0
aI0
aI0
aI0
aa(lp4319
I1
aI0
aI0
aI1
aa(lp4320
I0
aI1
aI0
aI0
aaa(lp4321
(lp4322
I0
aI0
aI0
aI0
aa(lp4323
I1
aI0
aI2
aI2
aa(lp4324
I0
aI1
aI2
aI2
aa(lp4325
I0
aI0
aI0
aI0
aaa(lp4326
(lp4327
I0
aI1
aI0
aI0
aa(lp4328
I0
aI0
aI1
aI0
aa(lp4329
I0
aI1
aI0
aI0
aa(lp4330
I0
aI0
aI0
aI0
aaa(lp4331
(lp4332
I0
aI0
aI0
aI0
aa(lp4333
I0
aI0
aI0
aI0
aa(lp4334
I0
aI1
aI0
aI1
aa(lp4335
I0
aI0
aI0
aI1
aaa(lp4336
(lp4337
I0
aI3
aI3
aI3
aa(lp4338
I1
aI3
aI3
aI3
aa(lp4339
I0
aI3
aI3
aI3
aa(lp4340
I0
aI0
aI1
aI0
aaa(lp4341
(lp4342
I1
aI2
aI2
aI0
aa(lp4343
I0
aI2
aI2
aI0
aa(lp4344
I0
aI0
aI1
aI0
aa(lp4345
I0
aI0
aI0
aI0
aaa(lp4346
(lp4347
I0
aI0
aI0
aI1
aa(lp4348
I2
aI2
aI2
aI2
aa(lp4349
I2
aI2
aI2
aI2
aa(lp4350
I0
aI0
aI0
aI0
aaa(lp4351
(lp4352
I0
aI1
aI0
aI1
aa(lp4353
I0
aI0
aI0
aI0
aa(lp4354
I0
aI0
aI0
aI0
aa(lp4355
I0
aI1
aI0
aI0
aaa(lp4356
(lp4357
I0
aI0
aI2
aI2
aa(lp4358
I0
aI0
aI2
aI2
aa(lp4359
I0
aI0
aI0
aI0
aa(lp4360
I1
aI0
aI1
aI0
aaa(lp4361
(lp4362
I1
aI0
aI0
aI0
aa(lp4363
I3
aI3
aI3
aI0
aa(lp4364
I3
aI3
aI3
aI0
aa(lp4365
I3
aI3
aI3
aI1
aaa(lp4366
(lp4367
I0
aI0
aI1
aI0
aa(lp4368
I0
aI2
aI2
aI0
aa(lp4369
I0
aI2
aI2
aI0
aa(lp4370
I1
aI0
aI0
aI0
aaa(lp4371
(lp4372
I0
aI2
aI2
aI0
aa(lp4373
I0
aI2
aI2
aI0
aa(lp4374
I0
aI0
aI0
aI0
aa(lp4375
I1
aI0
aI0
aI1
aaa(lp4376
(lp4377
I2
aI2
aI0
aI0
aa(lp4378
I2
aI2
aI1
aI0
aa(lp4379
I0
aI0
aI0
aI0
aa(lp4380
I0
aI1
aI0
aI0
aaa(lp4381
(lp4382
I0
aI0
aI0
aI0
aa(lp4383
I0
aI1
aI0
aI0
aa(lp4384
I0
aI2
aI2
aI1
aa(lp4385
I0
aI2
aI2
aI0
aaa(lp4386
(lp4387
I1
aI0
aI0
aI0
aa(lp4388
I0
aI0
aI1
aI0
aa(lp4389
I0
aI0
aI2
aI2
aa(lp4390
I0
aI0
aI2
aI2
aaa(lp4391
(lp4392
I0
aI0
aI1
aI1
aa(lp4393
I0
aI0
aI0
aI0
aa(lp4394
I0
aI1
aI0
aI0
aa(lp4395
I0
aI0
aI0
aI0
aaa(lp4396
(lp4397
I1
aI0
aI0
aI0
aa(lp4398
I0
aI1
aI0
aI0
aa(lp4399
I0
aI2
aI2
aI0
aa(lp4400
I0
aI2
aI2
aI0
aaa(lp4401
(lp4402
I0
aI0
aI0
aI0
aa(lp4403
I0
aI2
aI2
aI0
aa(lp4404
I0
aI2
aI2
aI0
aa(lp4405
I1
aI0
aI1
aI0
aaa(lp4406
(lp4407
I0
aI0
aI0
aI0
aa(lp4408
I2
aI2
aI0
aI0
aa(lp4409
I2
aI2
aI0
aI0
aa(lp4410
I1
aI0
aI0
aI1
aaa(lp4411
(lp4412
I0
aI0
aI1
aI0
aa(lp4413
I0
aI0
aI0
aI0
aa(lp4414
I1
aI0
aI0
aI1
aa(lp4415
I0
aI0
aI0
aI0
aaa(lp4416
(lp4417
I0
aI0
aI0
aI0
aa(lp4418
I1
aI0
aI1
aI0
aa(lp4419
I0
aI2
aI2
aI0
aa(lp4420
I0
aI2
aI2
aI0
aaa(lp4421
(lp4422
I2
aI2
aI0
aI1
aa(lp4423
I2
aI2
aI0
aI0
aa(lp4424
I0
aI0
aI0
aI0
aa(lp4425
I1
aI0
aI0
aI0
aaa(lp4426
(lp4427
I2
aI2
aI0
aI1
aa(lp4428
I2
aI2
aI0
aI0
aa(lp4429
I0
aI0
aI0
aI0
aa(lp4430
I0
aI1
aI0
aI0
aaa(lp4431
(lp4432
I0
aI0
aI0
aI0
aa(lp4433
I1
aI0
aI0
aI0
aa(lp4434
I0
aI1
aI0
aI0
aa(lp4435
I0
aI1
aI0
aI0
aaa(lp4436
(lp4437
I0
aI0
aI0
aI0
aa(lp4438
I0
aI0
aI0
aI1
aa(lp4439
I1
aI0
aI0
aI0
aa(lp4440
I0
aI0
aI1
aI0
aaa(lp4441
(lp4442
I1
aI0
aI1
aI0
aa(lp4443
I0
aI0
aI0
aI0
aa(lp4444
I0
aI0
aI0
aI0
aa(lp4445
I0
aI0
aI0
aI1
aaa(lp4446
(lp4447
I0
aI1
aI0
aI0
aa(lp4448
I0
aI0
aI0
aI0
aa(lp4449
I0
aI0
aI1
aI1
aa(lp4450
I0
aI0
aI0
aI0
aaa(lp4451
(lp4452
I0
aI0
aI2
aI2
aa(lp4453
I0
aI0
aI2
aI2
aa(lp4454
I0
aI0
aI0
aI0
aa(lp4455
I0
aI1
aI1
aI0
aaa(lp4456
(lp4457
I1
aI0
aI0
aI0
aa(lp4458
I0
aI1
aI0
aI0
aa(lp4459
I0
aI0
aI0
aI0
aa(lp4460
I0
aI0
aI1
aI0
aaa(lp4461
(lp4462
I0
aI0
aI0
aI0
aa(lp4463
I1
aI0
aI0
aI1
aa(lp4464
I0
aI0
aI2
aI2
aa(lp4465
I0
aI0
aI2
aI2
aaa(lp4466
(lp4467
I0
aI0
aI1
aI0
aa(lp4468
I0
aI2
aI2
aI0
aa(lp4469
I0
aI2
aI2
aI0
aa(lp4470
I0
aI1
aI0
aI0
aaa(lp4471
(lp4472
I0
aI0
aI2
aI2
aa(lp4473
I0
aI0
aI2
aI2
aa(lp4474
I1
aI2
aI2
aI0
aa(lp4475
I0
aI2
aI2
aI0
aaa(lp4476
(lp4477
I0
aI2
aI2
aI0
aa(lp4478
I0
aI2
aI2
aI0
aa(lp4479
I0
aI0
aI0
aI1
aa(lp4480
I0
aI0
aI1
aI0
aaa(lp4481
(lp4482
I0
aI1
aI0
aI0
aa(lp4483
I0
aI0
aI0
aI1
aa(lp4484
I0
aI2
aI2
aI0
aa(lp4485
I0
aI2
aI2
aI0
aaa(lp4486
(lp4487
I0
aI0
aI0
aI1
aa(lp4488
I0
aI0
aI1
aI0
aa(lp4489
I2
aI2
aI0
aI0
aa(lp4490
I2
aI2
aI0
aI0
aaa(lp4491
(lp4492
I0
aI1
aI0
aI0
aa(lp4493
I0
aI2
aI2
aI0
aa(lp4494
I0
aI2
aI2
aI0
aa(lp4495
I0
aI0
aI0
aI1
aaa(lp4496
(lp4497
I0
aI0
aI1
aI0
aa(lp4498
I0
aI0
aI0
aI0
aa(lp4499
I0
aI2
aI2
aI0
aa(lp4500
I1
aI2
aI2
aI0
aaa(lp4501
(lp4502
I0
aI1
aI0
aI1
aa(lp4503
I0
aI0
aI0
aI0
aa(lp4504
I0
aI0
aI2
aI2
aa(lp4505
I0
aI0
aI2
aI2
aaa(lp4506
(lp4507
I0
aI1
aI0
aI0
aa(lp4508
I0
aI0
aI2
aI2
aa(lp4509
I1
aI0
aI2
aI2
aa(lp4510
I0
aI0
aI0
aI0
aaa(lp4511
(lp4512
I1
aI1
aI0
aI0
aa(lp4513
I0
aI0
aI0
aI0
aa(lp4514
I2
aI2
aI0
aI0
aa(lp4515
I2
aI2
aI0
aI0
aaa(lp4516
(lp4517
I1
aI0
aI0
aI0
aa(lp4518
I2
aI2
aI0
aI0
aa(lp4519
I2
aI2
aI0
aI0
aa(lp4520
I0
aI0
aI1
aI0
aaa(lp4521
(lp4522
I0
aI0
aI0
aI0
aa(lp4523
I0
aI2
aI2
aI0
aa(lp4524
I1
aI2
aI2
aI1
aa(lp4525
I0
aI0
aI0
aI0
aaa(lp4526
(lp4527
I0
aI0
aI0
aI0
aa(lp4528
I0
aI1
aI0
aI0
aa(lp4529
I0
aI0
aI0
aI0
aa(lp4530
I1
aI0
aI1
aI0
aaa(lp4531
(lp4532
I0
aI1
aI0
aI0
aa(lp4533
I0
aI0
aI2
aI2
aa(lp4534
I0
aI0
aI2
aI2
aa(lp4535
I1
aI0
aI0
aI0
aaa(lp4536
(lp4537
I3
aI3
aI3
aI0
aa(lp4538
I3
aI3
aI3
aI1
aa(lp4539
I3
aI3
aI3
aI0
aa(lp4540
I0
aI0
aI1
aI0
aaa(lp4541
(lp4542
I0
aI0
aI2
aI2
aa(lp4543
I1
aI0
aI2
aI2
aa(lp4544
I0
aI2
aI2
aI0
aa(lp4545
I0
aI2
aI2
aI0
aaa(lp4546
(lp4547
I1
aI0
aI0
aI0
aa(lp4548
I3
aI3
aI3
aI0
aa(lp4549
I3
aI3
aI3
aI1
aa(lp4550
I3
aI3
aI3
aI0
aaa(lp4551
(lp4552
I0
aI2
aI2
aI0
aa(lp4553
I1
aI2
aI2
aI0
aa(lp4554
I0
aI2
aI2
aI0
aa(lp4555
I0
aI2
aI2
aI0
aaa(lp4556
(lp4557
I0
aI0
aI0
aI0
aa(lp4558
I1
aI0
aI0
aI0
aa(lp4559
I1
aI0
aI0
aI0
aa(lp4560
I0
aI0
aI0
aI1
aaa(lp4561
(lp4562
I0
aI0
aI0
aI0
aa(lp4563
I0
aI0
aI0
aI1
aa(lp4564
I0
aI2
aI2
aI1
aa(lp4565
I0
aI2
aI2
aI0
aaa(lp4566
(lp4567
I0
aI1
aI0
aI0
aa(lp4568
I0
aI0
aI0
aI1
aa(lp4569
I0
aI0
aI0
aI0
aa(lp4570
I1
aI0
aI0
aI0
aaa(lp4571
(lp4572
I0
aI0
aI1
aI0
aa(lp4573
I1
aI0
aI0
aI0
aa(lp4574
I0
aI0
aI0
aI0
aa(lp4575
I1
aI0
aI0
aI0
aaa(lp4576
(lp4577
I0
aI0
aI0
aI0
aa(lp4578
I0
aI0
aI1
aI0
aa(lp4579
I1
aI0
aI0
aI0
aa(lp4580
I0
aI1
aI0
aI0
aaa(lp4581
(lp4582
I1
aI1
aI0
aI0
aa(lp4583
I3
aI3
aI3
aI0
aa(lp4584
I3
aI3
aI3
aI0
aa(lp4585
I3
aI3
aI3
aI0
aaa(lp4586
(lp4587
I2
aI2
aI0
aI0
aa(lp4588
I2
aI2
aI0
aI0
aa(lp4589
I0
aI0
aI0
aI0
aa(lp4590
I0
aI1
aI0
aI1
aaa(lp4591
(lp4592
I1
aI0
aI0
aI0
aa(lp4593
I0
aI0
aI2
aI2
aa(lp4594
I0
aI0
aI2
aI2
aa(lp4595
I0
aI0
aI0
aI1
aaa(lp4596
(lp4597
I0
aI1
aI1
aI0
aa(lp4598
I0
aI3
aI3
aI3
aa(lp4599
I0
aI3
aI3
aI3
aa(lp4600
I0
aI3
aI3
aI3
aaa(lp4601
(lp4602
I0
aI0
aI0
aI1
aa(lp4603
I0
aI1
aI0
aI0
aa(lp4604
I2
aI2
aI0
aI0
aa(lp4605
I2
aI2
aI0
aI0
aaa(lp4606
(lp4607
I0
aI0
aI2
aI2
aa(lp4608
I0
aI0
aI2
aI2
aa(lp4609
I0
aI1
aI0
aI0
aa(lp4610
I0
aI0
aI0
aI1
aaa(lp4611
(lp4612
I1
aI0
aI0
aI1
aa(lp4613
I0
aI3
aI3
aI3
aa(lp4614
I0
aI3
aI3
aI3
aa(lp4615
I0
aI3
aI3
aI3
aaa(lp4616
(lp4617
I0
aI0
aI0
aI0
aa(lp4618
I1
aI0
aI2
aI2
aa(lp4619
I0
aI0
aI2
aI2
aa(lp4620
I0
aI0
aI0
aI1
aaa(lp4621
(lp4622
I0
aI0
aI0
aI0
aa(lp4623
I0
aI1
aI0
aI0
aa(lp4624
I0
aI0
aI1
aI0
aa(lp4625
I0
aI0
aI1
aI0
aaa(lp4626
(lp4627
I0
aI1
aI0
aI1
aa(lp4628
I0
aI0
aI0
aI0
aa(lp4629
I0
aI0
aI0
aI1
aa(lp4630
I0
aI0
aI0
aI0
aaa(lp4631
(lp4632
I0
aI0
aI0
aI0
aa(lp4633
I0
aI0
aI0
aI1
aa(lp4634
I2
aI2
aI1
aI0
aa(lp4635
I2
aI2
aI0
aI0
aaa(lp4636
(lp4637
I3
aI3
aI3
aI1
aa(lp4638
I3
aI3
aI3
aI0
aa(lp4639
I3
aI3
aI3
aI0
aa(lp4640
I0
aI0
aI1
aI0
aaa(lp4641
(lp4642
I0
aI0
aI0
aI1
aa(lp4643
I0
aI0
aI0
aI0
aa(lp4644
I2
aI2
aI0
aI0
aa(lp4645
I2
aI2
aI0
aI1
aaa(lp4646
(lp4647
I0
aI1
aI0
aI1
aa(lp4648
I0
aI0
aI2
aI2
aa(lp4649
I0
aI0
aI2
aI2
aa(lp4650
I0
aI0
aI0
aI0
aaa(lp4651
(lp4652
I0
aI1
aI0
aI0
aa(lp4653
I0
aI0
aI0
aI0
aa(lp4654
I0
aI0
aI0
aI1
aa(lp4655
I0
aI1
aI0
aI0
aaa(lp4656
(lp4657
I0
aI0
aI0
aI0
aa(lp4658
I1
aI0
aI0
aI0
aa(lp4659
I0
aI2
aI2
aI0
aa(lp4660
I0
aI2
aI2
aI1
aaa(lp4661
(lp4662
I2
aI2
aI1
aI0
aa(lp4663
I2
aI2
aI2
aI2
aa(lp4664
I0
aI0
aI2
aI2
aa(lp4665
I0
aI0
aI0
aI0
aaa(lp4666
(lp4667
I0
aI0
aI0
aI0
aa(lp4668
I0
aI0
aI1
aI0
aa(lp4669
I2
aI2
aI0
aI0
aa(lp4670
I2
aI2
aI0
aI1
aaa(lp4671
(lp4672
I0
aI0
aI1
aI0
aa(lp4673
I0
aI0
aI0
aI0
aa(lp4674
I1
aI0
aI0
aI0
aa(lp4675
I0
aI1
aI0
aI0
aaa(lp4676
(lp4677
I0
aI2
aI2
aI0
aa(lp4678
I0
aI2
aI2
aI0
aa(lp4679
I1
aI1
aI0
aI0
aa(lp4680
I0
aI0
aI0
aI0
aaa(lp4681
(lp4682
I0
aI0
aI0
aI0
aa(lp4683
I0
aI0
aI1
aI0
aa(lp4684
I1
aI0
aI2
aI2
aa(lp4685
I0
aI0
aI2
aI2
aaa(lp4686
(lp4687
I0
aI0
aI0
aI0
aa(lp4688
I0
aI0
aI1
aI0
aa(lp4689
I0
aI0
aI2
aI2
aa(lp4690
I1
aI0
aI2
aI2
aaa(lp4691
(lp4692
I0
aI1
aI0
aI0
aa(lp4693
I0
aI1
aI0
aI0
aa(lp4694
I2
aI2
aI0
aI0
aa(lp4695
I2
aI2
aI0
aI0
aaa(lp4696
(lp4697
I1
aI0
aI0
aI0
aa(lp4698
I0
aI0
aI0
aI0
aa(lp4699
I0
aI0
aI0
aI1
aa(lp4700
I0
aI1
aI0
aI0
aaa(lp4701
(lp4702
I1
aI0
aI0
aI0
aa(lp4703
I0
aI0
aI0
aI1
aa(lp4704
I0
aI1
aI0
aI0
aa(lp4705
I0
aI0
aI0
aI0
aaa(lp4706
(lp4707
I3
aI3
aI3
aI1
aa(lp4708
I3
aI3
aI3
aI0
aa(lp4709
I3
aI3
aI3
aI0
aa(lp4710
I0
aI0
aI0
aI1
aaa(lp4711
(lp4712
I0
aI2
aI2
aI0
aa(lp4713
I0
aI2
aI2
aI0
aa(lp4714
I0
aI0
aI1
aI0
aa(lp4715
I0
aI1
aI0
aI0
aaa(lp4716
(lp4717
I1
aI0
aI0
aI0
aa(lp4718
I0
aI1
aI0
aI0
aa(lp4719
I0
aI0
aI0
aI0
aa(lp4720
I0
aI1
aI0
aI0
aaa(lp4721
(lp4722
I0
aI0
aI1
aI0
aa(lp4723
I2
aI2
aI0
aI0
aa(lp4724
I2
aI2
aI2
aI2
aa(lp4725
I0
aI0
aI2
aI2
aaa(lp4726
(lp4727
I0
aI0
aI1
aI0
aa(lp4728
I0
aI0
aI2
aI2
aa(lp4729
I0
aI1
aI2
aI2
aa(lp4730
I0
aI0
aI0
aI0
aaa(lp4731
(lp4732
I2
aI2
aI1
aI0
aa(lp4733
I2
aI2
aI0
aI0
aa(lp4734
I0
aI0
aI0
aI0
aa(lp4735
I0
aI0
aI1
aI0
aaa(lp4736
(lp4737
I1
aI1
aI0
aI0
aa(lp4738
I0
aI0
aI0
aI0
aa(lp4739
I0
aI0
aI0
aI0
aa(lp4740
I0
aI1
aI0
aI0
aaa(lp4741
(lp4742
I2
aI2
aI2
aI2
aa(lp4743
I2
aI2
aI2
aI2
aa(lp4744
I0
aI0
aI0
aI0
aa(lp4745
I0
aI0
aI1
aI0
aaa(lp4746
(lp4747
I0
aI0
aI2
aI2
aa(lp4748
I0
aI1
aI2
aI2
aa(lp4749
I1
aI0
aI0
aI0
aa(lp4750
I0
aI0
aI0
aI0
aaa(lp4751
(lp4752
I0
aI1
aI0
aI0
aa(lp4753
I0
aI0
aI1
aI0
aa(lp4754
I0
aI0
aI0
aI0
aa(lp4755
I0
aI0
aI1
aI0
aaa(lp4756
(lp4757
I1
aI0
aI0
aI0
aa(lp4758
I0
aI0
aI1
aI1
aa(lp4759
I0
aI0
aI0
aI0
aa(lp4760
I0
aI0
aI0
aI0
aaa(lp4761
(lp4762
I0
aI0
aI1
aI0
aa(lp4763
I1
aI2
aI2
aI0
aa(lp4764
I0
aI2
aI2
aI0
aa(lp4765
I0
aI0
aI0
aI0
aaa(lp4766
(lp4767
I0
aI2
aI2
aI0
aa(lp4768
I1
aI2
aI2
aI0
aa(lp4769
I0
aI0
aI1
aI0
aa(lp4770
I0
aI0
aI0
aI0
aaa(lp4771
(lp4772
I0
aI1
aI0
aI0
aa(lp4773
I0
aI2
aI2
aI0
aa(lp4774
I0
aI2
aI2
aI0
aa(lp4775
I1
aI0
aI0
aI0
aaa(lp4776
(lp4777
I1
aI0
aI1
aI0
aa(lp4778
I0
aI0
aI0
aI0
aa(lp4779
I0
aI0
aI0
aI0
aa(lp4780
I1
aI0
aI0
aI0
aaa(lp4781
(lp4782
I0
aI0
aI0
aI1
aa(lp4783
I0
aI0
aI1
aI0
aa(lp4784
I0
aI0
aI0
aI0
aa(lp4785
I1
aI0
aI0
aI0
aaa(lp4786
(lp4787
I1
aI0
aI0
aI0
aa(lp4788
I0
aI2
aI2
aI0
aa(lp4789
I0
aI2
aI2
aI0
aa(lp4790
I0
aI1
aI0
aI0
aaa(lp4791
(lp4792
I0
aI0
aI0
aI0
aa(lp4793
I0
aI1
aI0
aI0
aa(lp4794
I0
aI2
aI2
aI0
aa(lp4795
I1
aI2
aI2
aI0
aaa(lp4796
(lp4797
I0
aI1
aI0
aI0
aa(lp4798
I2
aI2
aI0
aI0
aa(lp4799
I2
aI2
aI1
aI0
aa(lp4800
I0
aI0
aI0
aI0
aaa(lp4801
(lp4802
I2
aI2
aI0
aI0
aa(lp4803
I2
aI2
aI0
aI0
aa(lp4804
I0
aI0
aI1
aI0
aa(lp4805
I0
aI1
aI0
aI0
aaa(lp4806
(lp4807
I2
aI2
aI1
aI0
aa(lp4808
I2
aI2
aI1
aI0
aa(lp4809
I0
aI0
aI0
aI0
aa(lp4810
I0
aI0
aI0
aI0
aaa(lp4811
(lp4812
I1
aI0
aI0
aI0
aa(lp4813
I0
aI0
aI0
aI0
aa(lp4814
I2
aI2
aI0
aI0
aa(lp4815
I2
aI2
aI0
aI1
aaa(lp4816
(lp4817
I0
aI0
aI1
aI1
aa(lp4818
I0
aI2
aI2
aI0
aa(lp4819
I0
aI2
aI2
aI0
aa(lp4820
I0
aI0
aI0
aI0
aaa(lp4821
(lp4822
I0
aI0
aI0
aI0
aa(lp4823
I0
aI0
aI1
aI0
aa(lp4824
I0
aI0
aI2
aI2
aa(lp4825
I0
aI1
aI2
aI2
aaa(lp4826
(lp4827
I0
aI1
aI0
aI1
aa(lp4828
I2
aI2
aI0
aI0
aa(lp4829
I2
aI2
aI0
aI0
aa(lp4830
I0
aI0
aI0
aI0
aaa(lp4831
(lp4832
I0
aI0
aI0
aI0
aa(lp4833
I1
aI2
aI2
aI0
aa(lp4834
I1
aI2
aI2
aI0
aa(lp4835
I0
aI0
aI0
aI0
aaa(lp4836
(lp4837
I0
aI0
aI0
aI0
aa(lp4838
I0
aI0
aI0
aI0
aa(lp4839
I1
aI0
aI1
aI0
aa(lp4840
I0
aI0
aI1
aI0
aaa(lp4841
(lp4842
I0
aI1
aI0
aI0
aa(lp4843
I1
aI0
aI0
aI0
aa(lp4844
I0
aI0
aI0
aI0
aa(lp4845
I1
aI0
aI0
aI0
aaa(lp4846
(lp4847
I0
aI1
aI0
aI0
aa(lp4848
I3
aI3
aI3
aI0
aa(lp4849
I3
aI3
aI3
aI0
aa(lp4850
I3
aI3
aI3
aI1
aaa(lp4851
(lp4852
I0
aI1
aI0
aI0
aa(lp4853
I0
aI0
aI1
aI0
aa(lp4854
I0
aI0
aI0
aI0
aa(lp4855
I0
aI0
aI0
aI1
aaa(lp4856
(lp4857
I0
aI0
aI0
aI1
aa(lp4858
I0
aI0
aI0
aI1
aa(lp4859
I0
aI2
aI2
aI0
aa(lp4860
I0
aI2
aI2
aI0
aaa(lp4861
(lp4862
I1
aI0
aI0
aI0
aa(lp4863
I0
aI0
aI0
aI0
aa(lp4864
I0
aI0
aI0
aI1
aa(lp4865
I1
aI0
aI0
aI0
aaa(lp4866
(lp4867
I0
aI0
aI0
aI0
aa(lp4868
I1
aI0
aI1
aI0
aa(lp4869
I0
aI0
aI0
aI0
aa(lp4870
I0
aI1
aI0
aI0
aaa(lp4871
(lp4872
I0
aI0
aI1
aI1
aa(lp4873
I0
aI0
aI2
aI2
aa(lp4874
I0
aI0
aI2
aI2
aa(lp4875
I0
aI0
aI0
aI0
aaa(lp4876
(lp4877
I0
aI0
aI0
aI1
aa(lp4878
I0
aI2
aI2
aI0
aa(lp4879
I0
aI2
aI2
aI0
aa(lp4880
I0
aI0
aI1
aI0
aaa(lp4881
(lp4882
I0
aI0
aI0
aI0
aa(lp4883
I0
aI1
aI2
aI2
aa(lp4884
I0
aI0
aI2
aI2
aa(lp4885
I0
aI0
aI1
aI0
aaa(lp4886
(lp4887
I0
aI0
aI0
aI0
aa(lp4888
I0
aI0
aI1
aI0
aa(lp4889
I0
aI1
aI1
aI0
aa(lp4890
I0
aI0
aI0
aI0
aaa(lp4891
(lp4892
I0
aI0
aI0
aI0
aa(lp4893
I0
aI1
aI0
aI0
aa(lp4894
I0
aI0
aI0
aI0
aa(lp4895
I1
aI1
aI0
aI0
aaa(lp4896
(lp4897
I0
aI0
aI0
aI0
aa(lp4898
I2
aI2
aI0
aI1
aa(lp4899
I2
aI2
aI0
aI1
aa(lp4900
I0
aI0
aI0
aI0
aaa(lp4901
(lp4902
I0
aI0
aI0
aI0
aa(lp4903
I1
aI1
aI0
aI1
aa(lp4904
I0
aI0
aI0
aI0
aa(lp4905
I0
aI0
aI0
aI0
aaa(lp4906
(lp4907
I0
aI0
aI0
aI1
aa(lp4908
I0
aI0
aI0
aI0
aa(lp4909
I0
aI1
aI0
aI0
aa(lp4910
I0
aI1
aI0
aI0
aaa(lp4911
(lp4912
I2
aI2
aI0
aI0
aa(lp4913
I2
aI2
aI1
aI0
aa(lp4914
I0
aI1
aI0
aI0
aa(lp4915
I0
aI0
aI0
aI0
aaa(lp4916
(lp4917
I1
aI0
aI0
aI0
aa(lp4918
I0
aI0
aI1
aI0
aa(lp4919
I0
aI0
aI0
aI0
aa(lp4920
I0
aI0
aI1
aI0
aaa(lp4921
(lp4922
I0
aI0
aI0
aI0
aa(lp4923
I0
aI0
aI0
aI0
aa(lp4924
I0
aI1
aI1
aI1
aa(lp4925
I0
aI0
aI0
aI0
aaa(lp4926
(lp4927
I0
aI0
aI0
aI1
aa(lp4928
I0
aI2
aI2
aI1
aa(lp4929
I0
aI2
aI2
aI0
aa(lp4930
I0
aI0
aI0
aI0
aaa(lp4931
(lp4932
I0
aI0
aI0
aI0
aa(lp4933
I0
aI2
aI2
aI1
aa(lp4934
I1
aI2
aI2
aI0
aa(lp4935
I0
aI0
aI0
aI0
aaa(lp4936
(lp4937
I0
aI0
aI0
aI0
aa(lp4938
I0
aI0
aI1
aI0
aa(lp4939
I0
aI1
aI0
aI1
aa(lp4940
I0
aI0
aI0
aI0
aaa(lp4941
(lp4942
I1
aI0
aI0
aI0
aa(lp4943
I0
aI0
aI0
aI1
aa(lp4944
I0
aI0
aI0
aI1
aa(lp4945
I0
aI0
aI0
aI0
aaa(lp4946
(lp4947
I0
aI1
aI0
aI0
aa(lp4948
I1
aI0
aI0
aI0
aa(lp4949
I0
aI0
aI1
aI0
aa(lp4950
I0
aI0
aI0
aI0
aaa(lp4951
(lp4952
I0
aI0
aI0
aI1
aa(lp4953
I2
aI2
aI0
aI0
aa(lp4954
I2
aI2
aI2
aI2
aa(lp4955
I0
aI0
aI2
aI2
aaa(lp4956
(lp4957
I1
aI0
aI2
aI2
aa(lp4958
I0
aI0
aI2
aI2
aa(lp4959
I0
aI0
aI0
aI0
aa(lp4960
I0
aI0
aI0
aI1
aaa(lp4961
(lp4962
I0
aI1
aI1
aI0
aa(lp4963
I0
aI0
aI0
aI0
aa(lp4964
I1
aI0
aI0
aI0
aa(lp4965
I0
aI0
aI0
aI0
aaa(lp4966
(lp4967
I1
aI0
aI0
aI1
aa(lp4968
I0
aI0
aI0
aI0
aa(lp4969
I0
aI0
aI1
aI0
aa(lp4970
I0
aI0
aI0
aI0
aaa(lp4971
(lp4972
I0
aI0
aI0
aI1
aa(lp4973
I0
aI1
aI0
aI0
aa(lp4974
I0
aI0
aI1
aI0
aa(lp4975
I0
aI0
aI0
aI0
aaa(lp4976
(lp4977
I0
aI0
aI0
aI0
aa(lp4978
I1
aI0
aI0
aI0
aa(lp4979
I0
aI2
aI2
aI0
aa(lp4980
I1
aI2
aI2
aI0
aaa(lp4981
(lp4982
I1
aI0
aI0
aI0
aa(lp4983
I0
aI0
aI0
aI1
aa(lp4984
I0
aI0
aI1
aI0
aa(lp4985
I0
aI0
aI0
aI0
aaa(lp4986
(lp4987
I1
aI0
aI0
aI0
aa(lp4988
I0
aI0
aI1
aI0
aa(lp4989
I2
aI2
aI0
aI0
aa(lp4990
I2
aI2
aI0
aI0
aaa(lp4991
(lp4992
I0
aI0
aI0
aI0
aa(lp4993
I0
aI1
aI0
aI0
aa(lp4994
I1
aI0
aI0
aI0
aa(lp4995
I0
aI0
aI0
aI1
aaa(lp4996
(lp4997
I1
aI0
aI0
aI0
aa(lp4998
I0
aI0
aI0
aI0
aa(lp4999
I1
aI0
aI0
aI0
aa(lp5000
I0
aI0
aI0
aI1
aaa(lp5001
(lp5002
I1
aI1
aI0
aI0
aa(lp5003
I0
aI0
aI0
aI0
aa(lp5004
I0
aI0
aI0
aI0
aa(lp5005
I0
aI0
aI1
aI0
aaa(lp5006
(lp5007
I1
aI0
aI2
aI2
aa(lp5008
I0
aI0
aI2
aI2
aa(lp5009
I2
aI2
aI0
aI0
aa(lp5010
I2
aI2
aI0
aI0
aaa(lp5011
(lp5012
I0
aI0
aI0
aI0
aa(lp5013
I1
aI1
aI1
aI0
aa(lp5014
I0
aI0
aI0
aI0
aa(lp5015
I0
aI0
aI0
aI0
aaa(lp5016
(lp5017
I0
aI2
aI2
aI0
aa(lp5018
I0
aI2
aI2
aI0
aa(lp5019
I2
aI2
aI0
aI0
aa(lp5020
I2
aI2
aI0
aI1
aaa(lp5021
(lp5022
I1
aI0
aI0
aI0
aa(lp5023
I1
aI0
aI0
aI0
aa(lp5024
I0
aI2
aI2
aI0
aa(lp5025
I0
aI2
aI2
aI0
aaa(lp5026
(lp5027
I0
aI2
aI2
aI0
aa(lp5028
I0
aI2
aI2
aI0
aa(lp5029
I1
aI0
aI0
aI0
aa(lp5030
I0
aI0
aI1
aI0
aaa(lp5031
(lp5032
I0
aI0
aI0
aI0
aa(lp5033
I2
aI2
aI0
aI0
aa(lp5034
I2
aI2
aI1
aI1
aa(lp5035
I0
aI0
aI0
aI0
aaa(lp5036
(lp5037
I0
aI1
aI1
aI0
aa(lp5038
I3
aI3
aI3
aI0
aa(lp5039
I3
aI3
aI3
aI0
aa(lp5040
I3
aI3
aI3
aI0
aaa(lp5041
(lp5042
I0
aI0
aI1
aI0
aa(lp5043
I0
aI2
aI2
aI0
aa(lp5044
I0
aI2
aI2
aI0
aa(lp5045
I0
aI0
aI0
aI1
aaa(lp5046
(lp5047
I0
aI0
aI0
aI0
aa(lp5048
I0
aI0
aI2
aI2
aa(lp5049
I1
aI0
aI2
aI2
aa(lp5050
I0
aI1
aI0
aI0
aaa(lp5051
(lp5052
I1
aI1
aI0
aI0
aa(lp5053
I0
aI0
aI0
aI0
aa(lp5054
I0
aI0
aI2
aI2
aa(lp5055
I0
aI0
aI2
aI2
aaa(lp5056
(lp5057
I0
aI0
aI0
aI1
aa(lp5058
I0
aI2
aI2
aI0
aa(lp5059
I0
aI2
aI2
aI0
aa(lp5060
I1
aI0
aI0
aI0
aaa(lp5061
(lp5062
I0
aI0
aI0
aI0
aa(lp5063
I2
aI2
aI0
aI1
aa(lp5064
I2
aI2
aI2
aI2
aa(lp5065
I0
aI0
aI2
aI2
aaa(lp5066
(lp5067
I1
aI0
aI0
aI0
aa(lp5068
I0
aI0
aI0
aI0
aa(lp5069
I0
aI0
aI0
aI1
aa(lp5070
I0
aI0
aI1
aI0
aaa(lp5071
(lp5072
I0
aI0
aI0
aI0
aa(lp5073
I1
aI0
aI0
aI0
aa(lp5074
I1
aI0
aI2
aI2
aa(lp5075
I0
aI0
aI2
aI2
aaa(lp5076
(lp5077
I0
aI1
aI0
aI0
aa(lp5078
I1
aI0
aI0
aI0
aa(lp5079
I0
aI0
aI2
aI2
aa(lp5080
I0
aI0
aI2
aI2
aaa(lp5081
(lp5082
I0
aI1
aI0
aI0
aa(lp5083
I0
aI0
aI2
aI2
aa(lp5084
I0
aI1
aI2
aI2
aa(lp5085
I0
aI0
aI0
aI0
aaa(lp5086
(lp5087
I0
aI0
aI0
aI1
aa(lp5088
I0
aI0
aI0
aI0
aa(lp5089
I0
aI1
aI0
aI0
aa(lp5090
I0
aI0
aI0
aI1
aaa(lp5091
(lp5092
I0
aI0
aI0
aI0
aa(lp5093
I1
aI0
aI0
aI0
aa(lp5094
I0
aI1
aI2
aI2
aa(lp5095
I0
aI0
aI2
aI2
aaa(lp5096
(lp5097
I0
aI0
aI0
aI0
aa(lp5098
I0
aI1
aI2
aI2
aa(lp5099
I0
aI0
aI2
aI2
aa(lp5100
I0
aI1
aI0
aI0
aaa(lp5101
(lp5102
I0
aI0
aI0
aI0
aa(lp5103
I0
aI0
aI0
aI0
aa(lp5104
I1
aI1
aI0
aI0
aa(lp5105
I1
aI0
aI0
aI0
aaa(lp5106
(lp5107
I0
aI0
aI1
aI0
aa(lp5108
I0
aI0
aI0
aI1
aa(lp5109
I0
aI0
aI0
aI1
aa(lp5110
I0
aI0
aI0
aI0
aaa(lp5111
(lp5112
I0
aI0
aI0
aI1
aa(lp5113
I0
aI0
aI0
aI0
aa(lp5114
I1
aI1
aI0
aI0
aa(lp5115
I0
aI0
aI0
aI0
aaa(lp5116
(lp5117
I0
aI0
aI0
aI0
aa(lp5118
I0
aI1
aI0
aI0
aa(lp5119
I0
aI0
aI0
aI1
aa(lp5120
I0
aI1
aI0
aI0
aaa(lp5121
(lp5122
I0
aI2
aI2
aI0
aa(lp5123
I0
aI2
aI2
aI0
aa(lp5124
I0
aI0
aI1
aI0
aa(lp5125
I0
aI0
aI1
aI0
aaa(lp5126
(lp5127
I2
aI2
aI1
aI0
aa(lp5128
I2
aI2
aI0
aI1
aa(lp5129
I0
aI0
aI0
aI0
aa(lp5130
I0
aI0
aI0
aI0
aaa(lp5131
(lp5132
I1
aI0
aI0
aI0
aa(lp5133
I0
aI0
aI0
aI0
aa(lp5134
I0
aI1
aI0
aI0
aa(lp5135
I1
aI0
aI0
aI0
aaa(lp5136
(lp5137
I1
aI0
aI2
aI2
aa(lp5138
I0
aI0
aI2
aI2
aa(lp5139
I0
aI0
aI1
aI0
aa(lp5140
I0
aI0
aI0
aI0
aaa(lp5141
(lp5142
I0
aI2
aI2
aI1
aa(lp5143
I0
aI2
aI2
aI0
aa(lp5144
I0
aI1
aI0
aI0
aa(lp5145
I0
aI0
aI0
aI0
aaa(lp5146
(lp5147
I2
aI2
aI1
aI0
aa(lp5148
I2
aI2
aI0
aI0
aa(lp5149
I0
aI0
aI1
aI0
aa(lp5150
I0
aI0
aI0
aI0
aaa(lp5151
(lp5152
I2
aI2
aI1
aI0
aa(lp5153
I2
aI2
aI0
aI0
aa(lp5154
I0
aI0
aI0
aI0
aa(lp5155
I1
aI0
aI0
aI0
aaa(lp5156
(lp5157
I0
aI1
aI0
aI0
aa(lp5158
I2
aI2
aI0
aI0
aa(lp5159
I2
aI2
aI0
aI1
aa(lp5160
I0
aI0
aI0
aI0
aaa(lp5161
(lp5162
I0
aI1
aI0
aI0
aa(lp5163
I0
aI0
aI1
aI0
aa(lp5164
I0
aI0
aI0
aI1
aa(lp5165
I0
aI0
aI0
aI0
aaa(lp5166
(lp5167
I0
aI1
aI0
aI0
aa(lp5168
I0
aI0
aI0
aI0
aa(lp5169
I1
aI0
aI0
aI0
aa(lp5170
I0
aI0
aI1
aI0
aaa(lp5171
(lp5172
I0
aI0
aI1
aI1
aa(lp5173
I1
aI0
aI0
aI0
aa(lp5174
I0
aI0
aI0
aI0
aa(lp5175
I0
aI0
aI0
aI0
aaa(lp5176
(lp5177
I1
aI0
aI0
aI1
aa(lp5178
I0
aI0
aI0
aI0
aa(lp5179
I0
aI0
aI2
aI2
aa(lp5180
I0
aI0
aI2
aI2
aaa(lp5181
(lp5182
I2
aI2
aI0
aI0
aa(lp5183
I2
aI2
aI1
aI0
aa(lp5184
I0
aI0
aI2
aI2
aa(lp5185
I0
aI0
aI2
aI2
aaa(lp5186
(lp5187
I0
aI0
aI0
aI0
aa(lp5188
I0
aI0
aI1
aI0
aa(lp5189
I0
aI1
aI0
aI0
aa(lp5190
I0
aI0
aI0
aI1
aaa(lp5191
(lp5192
I0
aI0
aI0
aI1
aa(lp5193
I0
aI0
aI0
aI1
aa(lp5194
I2
aI2
aI0
aI0
aa(lp5195
I2
aI2
aI0
aI0
aaa(lp5196
(lp5197
I0
aI2
aI2
aI0
aa(lp5198
I0
aI2
aI2
aI0
aa(lp5199
I2
aI2
aI1
aI0
aa(lp5200
I2
aI2
aI0
aI0
aaa(lp5201
(lp5202
I1
aI0
aI0
aI0
aa(lp5203
I1
aI0
aI0
aI0
aa(lp5204
I1
aI0
aI0
aI0
aa(lp5205
I0
aI0
aI0
aI0
aaa(lp5206
(lp5207
I2
aI2
aI0
aI0
aa(lp5208
I2
aI2
aI0
aI0
aa(lp5209
I2
aI2
aI0
aI1
aa(lp5210
I2
aI2
aI0
aI0
aaa(lp5211
(lp5212
I0
aI1
aI0
aI1
aa(lp5213
I0
aI0
aI0
aI0
aa(lp5214
I0
aI0
aI0
aI0
aa(lp5215
I1
aI0
aI0
aI0
aaa(lp5216
(lp5217
I2
aI2
aI0
aI0
aa(lp5218
I2
aI2
aI0
aI0
aa(lp5219
I1
aI0
aI2
aI2
aa(lp5220
I0
aI0
aI2
aI2
aaa(lp5221
(lp5222
I2
aI2
aI0
aI0
aa(lp5223
I2
aI2
aI0
aI1
aa(lp5224
I1
aI0
aI0
aI0
aa(lp5225
I0
aI0
aI0
aI0
aaa(lp5226
(lp5227
I1
aI0
aI2
aI2
aa(lp5228
I0
aI0
aI2
aI2
aa(lp5229
I0
aI0
aI0
aI0
aa(lp5230
I1
aI0
aI0
aI0
aaa(lp5231
(lp5232
I1
aI0
aI0
aI0
aa(lp5233
I3
aI3
aI3
aI1
aa(lp5234
I3
aI3
aI3
aI0
aa(lp5235
I3
aI3
aI3
aI0
aaa(lp5236
(lp5237
I1
aI1
aI0
aI0
aa(lp5238
I0
aI1
aI0
aI0
aa(lp5239
I0
aI0
aI0
aI0
aa(lp5240
I0
aI0
aI0
aI0
aaa(lp5241
(lp5242
I0
aI2
aI2
aI0
aa(lp5243
I0
aI2
aI2
aI0
aa(lp5244
I0
aI1
aI2
aI2
aa(lp5245
I0
aI0
aI2
aI2
aaa(lp5246
(lp5247
I0
aI0
aI1
aI0
aa(lp5248
I0
aI0
aI1
aI0
aa(lp5249
I2
aI2
aI0
aI0
aa(lp5250
I2
aI2
aI0
aI0
aaa(lp5251
(lp5252
I0
aI0
aI0
aI0
aa(lp5253
I1
aI0
aI0
aI0
aa(lp5254
I0
aI1
aI0
aI0
aa(lp5255
I1
aI0
aI0
aI0
aaa(lp5256
(lp5257
I0
aI0
aI0
aI0
aa(lp5258
I0
aI1
aI1
aI0
aa(lp5259
I0
aI0
aI1
aI0
aa(lp5260
I0
aI0
aI0
aI0
aaa(lp5261
(lp5262
I1
aI0
aI0
aI1
aa(lp5263
I0
aI0
aI0
aI0
aa(lp5264
I0
aI0
aI0
aI1
aa(lp5265
I0
aI0
aI0
aI0
aaa(lp5266
(lp5267
I0
aI1
aI0
aI1
aa(lp5268
I0
aI2
aI2
aI0
aa(lp5269
I0
aI2
aI2
aI0
aa(lp5270
I0
aI0
aI0
aI0
aaa(lp5271
(lp5272
I0
aI1
aI1
aI0
aa(lp5273
I2
aI2
aI0
aI0
aa(lp5274
I2
aI2
aI0
aI0
aa(lp5275
I0
aI0
aI0
aI0
aaa(lp5276
(lp5277
I0
aI1
aI1
aI0
aa(lp5278
I0
aI0
aI0
aI0
aa(lp5279
I0
aI0
aI0
aI0
aa(lp5280
I0
aI0
aI0
aI1
aaa(lp5281
(lp5282
I0
aI0
aI1
aI0
aa(lp5283
I2
aI2
aI0
aI0
aa(lp5284
I2
aI2
aI0
aI0
aa(lp5285
I0
aI1
aI0
aI0
aaa(lp5286
(lp5287
I0
aI1
aI1
aI0
aa(lp5288
I0
aI0
aI0
aI0
aa(lp5289
I0
aI0
aI0
aI0
aa(lp5290
I0
aI0
aI1
aI0
aaa(lp5291
(lp5292
I0
aI1
aI0
aI0
aa(lp5293
I0
aI0
aI0
aI0
aa(lp5294
I1
aI2
aI2
aI0
aa(lp5295
I0
aI2
aI2
aI0
aaa(lp5296
(lp5297
I0
aI0
aI0
aI0
aa(lp5298
I1
aI0
aI0
aI0
aa(lp5299
I0
aI1
aI1
aI0
aa(lp5300
I0
aI0
aI0
aI0
aaa(lp5301
(lp5302
I0
aI1
aI0
aI1
aa(lp5303
I0
aI0
aI0
aI0
aa(lp5304
I0
aI0
aI0
aI0
aa(lp5305
I0
aI0
aI1
aI0
aaa(lp5306
(lp5307
I2
aI2
aI0
aI0
aa(lp5308
I2
aI2
aI0
aI0
aa(lp5309
I2
aI2
aI0
aI0
aa(lp5310
I2
aI2
aI1
aI0
aaa(lp5311
(lp5312
I1
aI0
aI0
aI0
aa(lp5313
I0
aI3
aI3
aI3
aa(lp5314
I1
aI3
aI3
aI3
aa(lp5315
I0
aI3
aI3
aI3
aaa(lp5316
(lp5317
I0
aI0
aI1
aI0
aa(lp5318
I0
aI0
aI0
aI0
aa(lp5319
I0
aI1
aI0
aI1
aa(lp5320
I0
aI0
aI0
aI0
aaa(lp5321
(lp5322
I0
aI0
aI0
aI1
aa(lp5323
I0
aI0
aI0
aI0
aa(lp5324
I0
aI0
aI2
aI2
aa(lp5325
I0
aI1
aI2
aI2
aaa(lp5326
(lp5327
I1
aI0
aI0
aI0
aa(lp5328
I1
aI0
aI0
aI0
aa(lp5329
I0
aI0
aI0
aI0
aa(lp5330
I0
aI0
aI0
aI1
aaa(lp5331
(lp5332
I0
aI0
aI1
aI0
aa(lp5333
I0
aI0
aI1
aI0
aa(lp5334
I0
aI2
aI2
aI0
aa(lp5335
I0
aI2
aI2
aI0
aaa(lp5336
(lp5337
I1
aI0
aI0
aI0
aa(lp5338
I0
aI0
aI1
aI0
aa(lp5339
I0
aI0
aI0
aI0
aa(lp5340
I1
aI0
aI0
aI0
aaa(lp5341
(lp5342
I0
aI1
aI0
aI0
aa(lp5343
I0
aI0
aI0
aI0
aa(lp5344
I0
aI1
aI2
aI2
aa(lp5345
I0
aI0
aI2
aI2
aaa(lp5346
(lp5347
I0
aI0
aI0
aI0
aa(lp5348
I0
aI0
aI1
aI1
aa(lp5349
I0
aI2
aI2
aI0
aa(lp5350
I0
aI2
aI2
aI0
aaa(lp5351
(lp5352
I0
aI0
aI0
aI0
aa(lp5353
I0
aI0
aI0
aI0
aa(lp5354
I1
aI0
aI1
aI0
aa(lp5355
I0
aI1
aI0
aI0
aaa(lp5356
(lp5357
I0
aI1
aI0
aI0
aa(lp5358
I0
aI1
aI0
aI0
aa(lp5359
I1
aI0
aI0
aI0
aa(lp5360
I0
aI0
aI0
aI0
aaa(lp5361
(lp5362
I0
aI0
aI0
aI0
aa(lp5363
I1
aI0
aI0
aI1
aa(lp5364
I0
aI0
aI0
aI0
aa(lp5365
I1
aI0
aI0
aI0
aaa(lp5366
(lp5367
I0
aI0
aI0
aI0
aa(lp5368
I2
aI2
aI0
aI0
aa(lp5369
I2
aI2
aI1
aI0
aa(lp5370
I0
aI0
aI0
aI1
aaa(lp5371
(lp5372
I0
aI1
aI0
aI0
aa(lp5373
I0
aI2
aI2
aI0
aa(lp5374
I1
aI2
aI2
aI0
aa(lp5375
I0
aI0
aI0
aI0
aaa(lp5376
(lp5377
I0
aI1
aI0
aI0
aa(lp5378
I0
aI0
aI0
aI1
aa(lp5379
I0
aI0
aI2
aI2
aa(lp5380
I0
aI0
aI2
aI2
aaa(lp5381
(lp5382
I0
aI0
aI0
aI0
aa(lp5383
I1
aI1
aI0
aI0
aa(lp5384
I0
aI1
aI0
aI0
aa(lp5385
I0
aI0
aI0
aI0
aaa(lp5386
(lp5387
I1
aI0
aI0
aI0
aa(lp5388
I0
aI0
aI1
aI0
aa(lp5389
I1
aI0
aI0
aI0
aa(lp5390
I0
aI0
aI0
aI0
aaa(lp5391
(lp5392
I0
aI2
aI2
aI0
aa(lp5393
I0
aI2
aI2
aI0
aa(lp5394
I0
aI0
aI0
aI0
aa(lp5395
I0
aI0
aI1
aI1
aaa(lp5396
(lp5397
I0
aI2
aI2
aI0
aa(lp5398
I0
aI2
aI2
aI0
aa(lp5399
I0
aI0
aI0
aI0
aa(lp5400
I1
aI0
aI1
aI0
aaa(lp5401
(lp5402
I0
aI0
aI1
aI0
aa(lp5403
I0
aI0
aI0
aI0
aa(lp5404
I0
aI0
aI1
aI0
aa(lp5405
I0
aI1
aI0
aI0
aaa(lp5406
(lp5407
I0
aI1
aI0
aI0
aa(lp5408
I0
aI2
aI2
aI0
aa(lp5409
I0
aI2
aI2
aI0
aa(lp5410
I0
aI0
aI1
aI0
aaa(lp5411
(lp5412
I0
aI0
aI0
aI0
aa(lp5413
I1
aI1
aI0
aI0
aa(lp5414
I0
aI0
aI2
aI2
aa(lp5415
I0
aI0
aI2
aI2
aaa(lp5416
(lp5417
I1
aI0
aI2
aI2
aa(lp5418
I0
aI0
aI2
aI2
aa(lp5419
I0
aI0
aI0
aI0
aa(lp5420
I0
aI1
aI0
aI0
aaa(lp5421
(lp5422
I2
aI2
aI0
aI0
aa(lp5423
I2
aI2
aI0
aI0
aa(lp5424
I0
aI0
aI0
aI0
aa(lp5425
I0
aI1
aI1
aI0
aaa(lp5426
(lp5427
I0
aI0
aI0
aI0
aa(lp5428
I0
aI0
aI0
aI0
aa(lp5429
I1
aI1
aI1
aI0
aa(lp5430
I0
aI0
aI0
aI0
aaa(lp5431
(lp5432
I0
aI0
aI0
aI0
aa(lp5433
I0
aI0
aI0
aI0
aa(lp5434
I0
aI1
aI0
aI1
aa(lp5435
I0
aI1
aI0
aI0
aaa(lp5436
(lp5437
I1
aI0
aI0
aI0
aa(lp5438
I0
aI0
aI0
aI1
aa(lp5439
I0
aI0
aI0
aI0
aa(lp5440
I1
aI0
aI0
aI0
aaa(lp5441
(lp5442
I1
aI0
aI0
aI0
aa(lp5443
I0
aI0
aI0
aI0
aa(lp5444
I0
aI0
aI0
aI0
aa(lp5445
I1
aI0
aI1
aI0
aaa(lp5446
(lp5447
I0
aI0
aI2
aI2
aa(lp5448
I0
aI0
aI2
aI2
aa(lp5449
I0
aI0
aI1
aI0
aa(lp5450
I1
aI0
aI0
aI0
aaa(lp5451
(lp5452
I0
aI0
aI2
aI2
aa(lp5453
I0
aI1
aI2
aI2
aa(lp5454
I0
aI0
aI0
aI0
aa(lp5455
I0
aI1
aI0
aI0
aaa(lp5456
(lp5457
I0
aI0
aI0
aI0
aa(lp5458
I1
aI0
aI0
aI0
aa(lp5459
I0
aI1
aI0
aI0
aa(lp5460
I0
aI0
aI0
aI1
aaa(lp5461
(lp5462
I0
aI0
aI0
aI0
aa(lp5463
I0
aI1
aI1
aI0
aa(lp5464
I1
aI0
aI0
aI0
aa(lp5465
I0
aI0
aI0
aI0
aaa(lp5466
(lp5467
I0
aI0
aI1
aI0
aa(lp5468
I0
aI0
aI0
aI0
aa(lp5469
I2
aI2
aI1
aI0
aa(lp5470
I2
aI2
aI0
aI0
aaa(lp5471
(lp5472
I0
aI0
aI0
aI0
aa(lp5473
I0
aI0
aI0
aI0
aa(lp5474
I0
aI1
aI0
aI0
aa(lp5475
I1
aI0
aI0
aI1
aaa(lp5476
(lp5477
I0
aI0
aI0
aI0
aa(lp5478
I0
aI0
aI1
aI0
aa(lp5479
I2
aI2
aI1
aI0
aa(lp5480
I2
aI2
aI0
aI0
aaa(lp5481
(lp5482
I0
aI0
aI0
aI0
aa(lp5483
I1
aI1
aI0
aI0
aa(lp5484
I2
aI2
aI0
aI0
aa(lp5485
I2
aI2
aI0
aI0
aaa(lp5486
(lp5487
I1
aI0
aI2
aI2
aa(lp5488
I0
aI0
aI2
aI2
aa(lp5489
I1
aI0
aI0
aI0
aa(lp5490
I0
aI0
aI0
aI0
aaa(lp5491
(lp5492
I0
aI0
aI1
aI0
aa(lp5493
I0
aI1
aI0
aI0
aa(lp5494
I0
aI0
aI0
aI0
aa(lp5495
I1
aI0
aI0
aI0
aaa(lp5496
(lp5497
I0
aI0
aI0
aI0
aa(lp5498
I0
aI0
aI1
aI0
aa(lp5499
I2
aI2
aI0
aI0
aa(lp5500
I2
aI2
aI1
aI0
aaa(lp5501
(lp5502
I1
aI0
aI2
aI2
aa(lp5503
I0
aI0
aI2
aI2
aa(lp5504
I0
aI2
aI2
aI0
aa(lp5505
I0
aI2
aI2
aI0
aaa(lp5506
(lp5507
I0
aI0
aI1
aI0
aa(lp5508
I0
aI0
aI0
aI0
aa(lp5509
I2
aI2
aI0
aI0
aa(lp5510
I2
aI2
aI0
aI1
aaa(lp5511
(lp5512
I2
aI2
aI0
aI0
aa(lp5513
I2
aI2
aI0
aI0
aa(lp5514
I0
aI0
aI1
aI0
aa(lp5515
I0
aI0
aI0
aI1
aaa(lp5516
(lp5517
I0
aI1
aI0
aI0
aa(lp5518
I0
aI0
aI1
aI0
aa(lp5519
I1
aI0
aI0
aI0
aa(lp5520
I0
aI0
aI0
aI0
aaa(lp5521
(lp5522
I0
aI0
aI1
aI0
aa(lp5523
I0
aI0
aI1
aI0
aa(lp5524
I1
aI0
aI0
aI0
aa(lp5525
I0
aI0
aI0
aI0
aaa(lp5526
(lp5527
I0
aI0
aI0
aI0
aa(lp5528
I1
aI0
aI0
aI0
aa(lp5529
I0
aI0
aI1
aI0
aa(lp5530
I0
aI1
aI0
aI0
aaa(lp5531
(lp5532
I0
aI0
aI1
aI0
aa(lp5533
I0
aI0
aI0
aI1
aa(lp5534
I0
aI0
aI2
aI2
aa(lp5535
I0
aI0
aI2
aI2
aaa(lp5536
(lp5537
I1
aI1
aI0
aI0
aa(lp5538
I0
aI0
aI0
aI0
aa(lp5539
I0
aI2
aI2
aI0
aa(lp5540
I0
aI2
aI2
aI0
aaa(lp5541
(lp5542
I0
aI0
aI0
aI0
aa(lp5543
I1
aI0
aI0
aI0
aa(lp5544
I0
aI0
aI0
aI0
aa(lp5545
I1
aI0
aI1
aI0
aaa(lp5546
(lp5547
I0
aI0
aI0
aI0
aa(lp5548
I0
aI0
aI0
aI1
aa(lp5549
I0
aI1
aI2
aI2
aa(lp5550
I0
aI0
aI2
aI2
aaa(lp5551
(lp5552
I0
aI0
aI0
aI0
aa(lp5553
I0
aI1
aI0
aI0
aa(lp5554
I0
aI0
aI0
aI0
aa(lp5555
I0
aI0
aI1
aI1
aaa(lp5556
(lp5557
I0
aI0
aI0
aI0
aa(lp5558
I0
aI0
aI0
aI0
aa(lp5559
I2
aI2
aI1
aI1
aa(lp5560
I2
aI2
aI0
aI0
aaa(lp5561
(lp5562
I0
aI2
aI2
aI0
aa(lp5563
I0
aI2
aI2
aI0
aa(lp5564
I1
aI0
aI0
aI0
aa(lp5565
I1
aI0
aI0
aI0
aaa(lp5566
(lp5567
I1
aI0
aI0
aI0
aa(lp5568
I0
aI1
aI2
aI2
aa(lp5569
I0
aI0
aI2
aI2
aa(lp5570
I0
aI0
aI0
aI0
aaa(lp5571
(lp5572
I0
aI0
aI1
aI0
aa(lp5573
I0
aI0
aI0
aI0
aa(lp5574
I0
aI1
aI1
aI0
aa(lp5575
I0
aI0
aI0
aI0
aaa(lp5576
(lp5577
I0
aI0
aI0
aI0
aa(lp5578
I0
aI1
aI0
aI0
aa(lp5579
I0
aI1
aI2
aI2
aa(lp5580
I0
aI0
aI2
aI2
aaa(lp5581
(lp5582
I0
aI1
aI0
aI0
aa(lp5583
I0
aI2
aI2
aI0
aa(lp5584
I0
aI2
aI2
aI0
aa(lp5585
I0
aI1
aI0
aI0
aaa(lp5586
(lp5587
I0
aI0
aI1
aI0
aa(lp5588
I0
aI0
aI0
aI0
aa(lp5589
I1
aI0
aI2
aI2
aa(lp5590
I0
aI0
aI2
aI2
aaa(lp5591
(lp5592
I0
aI0
aI2
aI2
aa(lp5593
I0
aI1
aI2
aI2
aa(lp5594
I0
aI0
aI2
aI2
aa(lp5595
I0
aI0
aI2
aI2
aaa(lp5596
(lp5597
I2
aI2
aI0
aI0
aa(lp5598
I2
aI2
aI0
aI0
aa(lp5599
I0
aI2
aI2
aI0
aa(lp5600
I0
aI2
aI2
aI1
aaa(lp5601
(lp5602
I1
aI0
aI0
aI1
aa(lp5603
I0
aI0
aI0
aI0
aa(lp5604
I0
aI0
aI0
aI0
aa(lp5605
I1
aI0
aI0
aI0
aaa(lp5606
(lp5607
I0
aI0
aI0
aI0
aa(lp5608
I0
aI0
aI0
aI0
aa(lp5609
I0
aI1
aI1
aI0
aa(lp5610
I0
aI1
aI0
aI0
aaa(lp5611
(lp5612
I1
aI0
aI0
aI1
aa(lp5613
I0
aI0
aI0
aI0
aa(lp5614
I0
aI2
aI2
aI0
aa(lp5615
I0
aI2
aI2
aI0
aaa(lp5616
(lp5617
I1
aI0
aI0
aI0
aa(lp5618
I0
aI0
aI0
aI0
aa(lp5619
I0
aI2
aI2
aI1
aa(lp5620
I0
aI2
aI2
aI0
aaa(lp5621
(lp5622
I1
aI2
aI2
aI0
aa(lp5623
I0
aI2
aI2
aI0
aa(lp5624
I2
aI2
aI0
aI0
aa(lp5625
I2
aI2
aI0
aI0
aaa(lp5626
(lp5627
I1
aI0
aI0
aI0
aa(lp5628
I0
aI0
aI0
aI0
aa(lp5629
I0
aI1
aI0
aI0
aa(lp5630
I0
aI0
aI0
aI1
aaa(lp5631
(lp5632
I0
aI1
aI0
aI0
aa(lp5633
I0
aI0
aI0
aI0
aa(lp5634
I1
aI0
aI0
aI1
aa(lp5635
I0
aI0
aI0
aI0
aaa(lp5636
(lp5637
I0
aI0
aI0
aI1
aa(lp5638
I0
aI0
aI0
aI0
aa(lp5639
I0
aI0
aI1
aI0
aa(lp5640
I0
aI1
aI0
aI0
aaa(lp5641
(lp5642
I1
aI0
aI0
aI0
aa(lp5643
I0
aI0
aI0
aI0
aa(lp5644
I0
aI0
aI2
aI2
aa(lp5645
I0
aI1
aI2
aI2
aaa(lp5646
(lp5647
I0
aI1
aI0
aI0
aa(lp5648
I0
aI0
aI0
aI0
aa(lp5649
I0
aI0
aI0
aI0
aa(lp5650
I1
aI1
aI0
aI0
aaa(lp5651
(lp5652
I2
aI2
aI0
aI1
aa(lp5653
I2
aI2
aI0
aI0
aa(lp5654
I0
aI0
aI0
aI0
aa(lp5655
I0
aI0
aI1
aI0
aaa(lp5656
(lp5657
I0
aI0
aI0
aI0
aa(lp5658
I1
aI0
aI0
aI1
aa(lp5659
I1
aI0
aI0
aI0
aa(lp5660
I0
aI0
aI0
aI0
aaa(lp5661
(lp5662
I1
aI1
aI0
aI0
aa(lp5663
I0
aI0
aI0
aI0
aa(lp5664
I0
aI0
aI1
aI0
aa(lp5665
I0
aI0
aI0
aI0
aaa(lp5666
(lp5667
I1
aI0
aI1
aI0
aa(lp5668
I0
aI0
aI0
aI0
aa(lp5669
I0
aI0
aI2
aI2
aa(lp5670
I0
aI0
aI2
aI2
aaa(lp5671
(lp5672
I0
aI1
aI0
aI0
aa(lp5673
I1
aI0
aI0
aI0
aa(lp5674
I0
aI0
aI0
aI0
aa(lp5675
I0
aI0
aI1
aI0
aaa(lp5676
(lp5677
I0
aI0
aI0
aI1
aa(lp5678
I1
aI0
aI0
aI0
aa(lp5679
I0
aI0
aI0
aI0
aa(lp5680
I0
aI1
aI0
aI0
aaa(lp5681
(lp5682
I0
aI0
aI0
aI0
aa(lp5683
I0
aI0
aI0
aI1
aa(lp5684
I0
aI1
aI0
aI0
aa(lp5685
I1
aI0
aI0
aI0
aaa(lp5686
(lp5687
I2
aI2
aI0
aI0
aa(lp5688
I2
aI2
aI0
aI0
aa(lp5689
I0
aI2
aI2
aI0
aa(lp5690
I1
aI2
aI2
aI0
aaa(lp5691
(lp5692
I0
aI0
aI0
aI0
aa(lp5693
I0
aI0
aI0
aI0
aa(lp5694
I0
aI1
aI0
aI1
aa(lp5695
I0
aI0
aI1
aI0
aaa(lp5696
(lp5697
I0
aI1
aI1
aI0
aa(lp5698
I0
aI1
aI0
aI0
aa(lp5699
I0
aI0
aI0
aI0
aa(lp5700
I0
aI0
aI0
aI0
aaa(lp5701
(lp5702
I1
aI0
aI0
aI0
aa(lp5703
I1
aI0
aI0
aI0
aa(lp5704
I0
aI0
aI0
aI0
aa(lp5705
I0
aI0
aI1
aI0
aaa(lp5706
(lp5707
I0
aI0
aI1
aI0
aa(lp5708
I2
aI2
aI1
aI0
aa(lp5709
I2
aI2
aI0
aI0
aa(lp5710
I0
aI0
aI0
aI0
aaa(lp5711
(lp5712
I1
aI0
aI1
aI0
aa(lp5713
I0
aI0
aI0
aI0
aa(lp5714
I0
aI0
aI1
aI0
aa(lp5715
I0
aI0
aI0
aI0
aaa(lp5716
(lp5717
I1
aI0
aI0
aI0
aa(lp5718
I1
aI1
aI0
aI0
aa(lp5719
I0
aI0
aI0
aI0
aa(lp5720
I0
aI0
aI0
aI0
aaa(lp5721
(lp5722
I2
aI2
aI1
aI0
aa(lp5723
I2
aI2
aI0
aI0
aa(lp5724
I0
aI0
aI0
aI1
aa(lp5725
I0
aI0
aI0
aI0
aaa(lp5726
(lp5727
I0
aI0
aI0
aI0
aa(lp5728
I0
aI0
aI1
aI0
aa(lp5729
I0
aI1
aI0
aI0
aa(lp5730
I0
aI1
aI0
aI0
aaa(lp5731
(lp5732
I2
aI2
aI0
aI0
aa(lp5733
I2
aI2
aI2
aI2
aa(lp5734
I0
aI0
aI2
aI2
aa(lp5735
I1
aI0
aI0
aI0
aaa(lp5736
(lp5737
I0
aI0
aI0
aI0
aa(lp5738
I1
aI0
aI0
aI0
aa(lp5739
I0
aI0
aI0
aI1
aa(lp5740
I1
aI0
aI0
aI0
aaa(lp5741
(lp5742
I0
aI0
aI0
aI1
aa(lp5743
I2
aI2
aI0
aI0
aa(lp5744
I2
aI2
aI0
aI0
aa(lp5745
I0
aI0
aI0
aI1
aaa(lp5746
(lp5747
I0
aI1
aI0
aI0
aa(lp5748
I0
aI0
aI2
aI2
aa(lp5749
I2
aI2
aI2
aI2
aa(lp5750
I2
aI2
aI0
aI0
aaa(lp5751
(lp5752
I1
aI0
aI0
aI0
aa(lp5753
I0
aI0
aI0
aI0
aa(lp5754
I0
aI0
aI2
aI2
aa(lp5755
I1
aI0
aI2
aI2
aaa(lp5756
(lp5757
I0
aI0
aI0
aI0
aa(lp5758
I2
aI2
aI0
aI0
aa(lp5759
I2
aI2
aI2
aI2
aa(lp5760
I1
aI0
aI2
aI2
aaa(lp5761
(lp5762
I0
aI0
aI0
aI1
aa(lp5763
I2
aI2
aI0
aI1
aa(lp5764
I2
aI2
aI0
aI0
aa(lp5765
I0
aI0
aI0
aI0
aaa(lp5766
(lp5767
I1
aI0
aI0
aI0
aa(lp5768
I0
aI1
aI0
aI0
aa(lp5769
I1
aI0
aI0
aI0
aa(lp5770
I0
aI0
aI0
aI0
aaa(lp5771
(lp5772
I0
aI1
aI0
aI0
aa(lp5773
I1
aI0
aI0
aI0
aa(lp5774
I0
aI1
aI0
aI0
aa(lp5775
I0
aI0
aI0
aI0
aaa(lp5776
(lp5777
I0
aI0
aI0
aI0
aa(lp5778
I0
aI1
aI0
aI1
aa(lp5779
I0
aI0
aI0
aI0
aa(lp5780
I0
aI1
aI0
aI0
aaa(lp5781
(lp5782
I0
aI0
aI0
aI0
aa(lp5783
I2
aI2
aI0
aI1
aa(lp5784
I2
aI2
aI0
aI0
aa(lp5785
I0
aI0
aI0
aI1
aaa(lp5786
(lp5787
I0
aI2
aI2
aI0
aa(lp5788
I0
aI2
aI2
aI0
aa(lp5789
I1
aI0
aI0
aI1
aa(lp5790
I0
aI0
aI0
aI0
aaa(lp5791
(lp5792
I0
aI0
aI2
aI2
aa(lp5793
I1
aI0
aI2
aI2
aa(lp5794
I2
aI2
aI0
aI0
aa(lp5795
I2
aI2
aI0
aI0
aaa(lp5796
(lp5797
I1
aI0
aI1
aI0
aa(lp5798
I0
aI0
aI0
aI0
aa(lp5799
I1
aI0
aI0
aI0
aa(lp5800
I0
aI0
aI0
aI0
aaa(lp5801
(lp5802
I0
aI0
aI2
aI2
aa(lp5803
I0
aI1
aI2
aI2
aa(lp5804
I0
aI0
aI0
aI1
aa(lp5805
I0
aI0
aI0
aI0
aaa(lp5806
(lp5807
I0
aI0
aI0
aI0
aa(lp5808
I0
aI0
aI0
aI0
aa(lp5809
I2
aI2
aI0
aI1
aa(lp5810
I2
aI2
aI1
aI0
aaa(lp5811
(lp5812
I0
aI1
aI0
aI0
aa(lp5813
I0
aI0
aI0
aI0
aa(lp5814
I0
aI0
aI2
aI2
aa(lp5815
I0
aI1
aI2
aI2
aaa(lp5816
(lp5817
I0
aI0
aI0
aI0
aa(lp5818
I0
aI2
aI2
aI0
aa(lp5819
I1
aI2
aI2
aI0
aa(lp5820
I0
aI0
aI1
aI0
aaa(lp5821
(lp5822
I1
aI0
aI1
aI0
aa(lp5823
I2
aI2
aI0
aI0
aa(lp5824
I2
aI2
aI0
aI0
aa(lp5825
I0
aI0
aI0
aI0
aaa(lp5826
(lp5827
I0
aI2
aI2
aI0
aa(lp5828
I1
aI2
aI2
aI0
aa(lp5829
I0
aI0
aI0
aI0
aa(lp5830
I0
aI0
aI0
aI1
aaa(lp5831
(lp5832
I0
aI0
aI2
aI2
aa(lp5833
I0
aI0
aI2
aI2
aa(lp5834
I1
aI0
aI0
aI0
aa(lp5835
I0
aI0
aI1
aI0
aaa(lp5836
(lp5837
I0
aI0
aI1
aI0
aa(lp5838
I0
aI0
aI0
aI0
aa(lp5839
I0
aI1
aI2
aI2
aa(lp5840
I0
aI0
aI2
aI2
aaa(lp5841
(lp5842
I0
aI0
aI0
aI0
aa(lp5843
I0
aI1
aI0
aI0
aa(lp5844
I2
aI2
aI2
aI2
aa(lp5845
I2
aI2
aI2
aI2
aaa(lp5846
(lp5847
I0
aI0
aI2
aI2
aa(lp5848
I0
aI0
aI2
aI2
aa(lp5849
I2
aI2
aI2
aI2
aa(lp5850
I2
aI2
aI2
aI2
aaa(lp5851
(lp5852
I0
aI0
aI0
aI0
aa(lp5853
I1
aI0
aI2
aI2
aa(lp5854
I0
aI0
aI2
aI2
aa(lp5855
I0
aI1
aI0
aI0
aaa(lp5856
(lp5857
I2
aI2
aI0
aI0
aa(lp5858
I2
aI2
aI0
aI0
aa(lp5859
I1
aI0
aI0
aI0
aa(lp5860
I0
aI1
aI0
aI0
aaa(lp5861
(lp5862
I0
aI0
aI0
aI0
aa(lp5863
I0
aI0
aI0
aI0
aa(lp5864
I1
aI0
aI0
aI0
aa(lp5865
I0
aI0
aI1
aI1
aaa(lp5866
(lp5867
I0
aI1
aI0
aI0
aa(lp5868
I0
aI0
aI0
aI0
aa(lp5869
I1
aI0
aI0
aI0
aa(lp5870
I0
aI0
aI0
aI1
aaa(lp5871
(lp5872
I0
aI0
aI0
aI1
aa(lp5873
I1
aI2
aI2
aI0
aa(lp5874
I0
aI2
aI2
aI0
aa(lp5875
I0
aI0
aI0
aI0
aaa(lp5876
(lp5877
I0
aI0
aI0
aI0
aa(lp5878
I0
aI1
aI0
aI0
aa(lp5879
I0
aI1
aI0
aI0
aa(lp5880
I0
aI1
aI0
aI0
aaa(lp5881
(lp5882
I1
aI2
aI2
aI0
aa(lp5883
I0
aI2
aI2
aI0
aa(lp5884
I0
aI0
aI2
aI2
aa(lp5885
I0
aI0
aI2
aI2
aaa(lp5886
(lp5887
I2
aI2
aI2
aI2
aa(lp5888
I2
aI2
aI2
aI2
aa(lp5889
I0
aI0
aI1
aI0
aa(lp5890
I0
aI0
aI0
aI0
aaa(lp5891
(lp5892
I1
aI2
aI2
aI0
aa(lp5893
I0
aI2
aI2
aI0
aa(lp5894
I0
aI0
aI0
aI0
aa(lp5895
I0
aI1
aI0
aI0
aaa(lp5896
(lp5897
I0
aI1
aI0
aI0
aa(lp5898
I0
aI1
aI0
aI0
aa(lp5899
I0
aI0
aI0
aI1
aa(lp5900
I0
aI0
aI0
aI0
aaa(lp5901
(lp5902
I0
aI2
aI2
aI0
aa(lp5903
I0
aI2
aI2
aI0
aa(lp5904
I0
aI0
aI0
aI0
aa(lp5905
I0
aI1
aI0
aI1
aaa(lp5906
(lp5907
I0
aI2
aI2
aI0
aa(lp5908
I0
aI2
aI2
aI1
aa(lp5909
I1
aI0
aI0
aI0
aa(lp5910
I0
aI0
aI0
aI0
aaa(lp5911
(lp5912
I0
aI0
aI0
aI0
aa(lp5913
I1
aI1
aI0
aI0
aa(lp5914
I0
aI0
aI0
aI0
aa(lp5915
I0
aI1
aI0
aI0
aaa(lp5916
(lp5917
I0
aI0
aI0
aI0
aa(lp5918
I1
aI0
aI0
aI0
aa(lp5919
I0
aI0
aI2
aI2
aa(lp5920
I0
aI1
aI2
aI2
aaa(lp5921
(lp5922
I0
aI1
aI2
aI2
aa(lp5923
I0
aI0
aI2
aI2
aa(lp5924
I0
aI0
aI0
aI0
aa(lp5925
I0
aI0
aI1
aI0
aaa(lp5926
(lp5927
I0
aI0
aI2
aI2
aa(lp5928
I0
aI0
aI2
aI2
aa(lp5929
I1
aI0
aI0
aI0
aa(lp5930
I0
aI0
aI0
aI1
aaa(lp5931
(lp5932
I2
aI2
aI0
aI0
aa(lp5933
I2
aI2
aI0
aI1
aa(lp5934
I0
aI2
aI2
aI0
aa(lp5935
I0
aI2
aI2
aI0
aaa(lp5936
(lp5937
I0
aI0
aI0
aI0
aa(lp5938
I1
aI0
aI0
aI0
aa(lp5939
I0
aI0
aI1
aI0
aa(lp5940
I1
aI0
aI0
aI0
aaa(lp5941
(lp5942
I0
aI0
aI1
aI0
aa(lp5943
I0
aI0
aI0
aI0
aa(lp5944
I0
aI0
aI2
aI2
aa(lp5945
I1
aI0
aI2
aI2
aaa(lp5946
(lp5947
I0
aI0
aI2
aI2
aa(lp5948
I1
aI0
aI2
aI2
aa(lp5949
I0
aI1
aI0
aI0
aa(lp5950
I0
aI0
aI0
aI0
aaa(lp5951
(lp5952
I1
aI2
aI2
aI0
aa(lp5953
I0
aI2
aI2
aI0
aa(lp5954
I0
aI0
aI0
aI0
aa(lp5955
I0
aI0
aI0
aI1
aaa(lp5956
(lp5957
I0
aI2
aI2
aI0
aa(lp5958
I0
aI2
aI2
aI1
aa(lp5959
I0
aI0
aI1
aI0
aa(lp5960
I0
aI0
aI0
aI0
aaa(lp5961
(lp5962
I1
aI2
aI2
aI0
aa(lp5963
I1
aI2
aI2
aI0
aa(lp5964
I0
aI0
aI0
aI0
aa(lp5965
I0
aI0
aI0
aI0
aaa(lp5966
(lp5967
I0
aI0
aI0
aI0
aa(lp5968
I0
aI0
aI1
aI0
aa(lp5969
I1
aI1
aI0
aI0
aa(lp5970
I0
aI0
aI0
aI0
aaa(lp5971
(lp5972
I0
aI0
aI0
aI0
aa(lp5973
I0
aI0
aI0
aI1
aa(lp5974
I0
aI1
aI0
aI0
aa(lp5975
I0
aI1
aI0
aI0
aaa(lp5976
(lp5977
I0
aI0
aI0
aI0
aa(lp5978
I0
aI2
aI2
aI0
aa(lp5979
I0
aI2
aI2
aI0
aa(lp5980
I1
aI0
aI0
aI1
aaa(lp5981
(lp5982
I0
aI0
aI0
aI0
aa(lp5983
I0
aI0
aI0
aI0
aa(lp5984
I1
aI1
aI2
aI2
aa(lp5985
I0
aI0
aI2
aI2
aaa(lp5986
(lp5987
I2
aI2
aI0
aI0
aa(lp5988
I2
aI2
aI0
aI0
aa(lp5989
I0
aI0
aI0
aI1
aa(lp5990
I1
aI0
aI0
aI0
aaa(lp5991
(lp5992
I0
aI0
aI0
aI0
aa(lp5993
I2
aI2
aI1
aI0
aa(lp5994
I2
aI2
aI1
aI0
aa(lp5995
I0
aI0
aI0
aI0
aaa(lp5996
(lp5997
I0
aI0
aI0
aI0
aa(lp5998
I1
aI0
aI2
aI2
aa(lp5999
I0
aI0
aI2
aI2
aa(lp6000
I0
aI0
aI1
aI0
aaa(lp6001
(lp6002
I1
aI1
aI0
aI0
aa(lp6003
I0
aI0
aI0
aI0
aa(lp6004
I0
aI1
aI0
aI0
aa(lp6005
I0
aI0
aI0
aI0
aaa(lp6006
(lp6007
I1
aI3
aI3
aI3
aa(lp6008
I0
aI3
aI3
aI3
aa(lp6009
I1
aI3
aI3
aI3
aa(lp6010
I0
aI0
aI0
aI0
aaa(lp6011
(lp6012
I0
aI2
aI2
aI0
aa(lp6013
I1
aI2
aI2
aI0
aa(lp6014
I0
aI1
aI0
aI0
aa(lp6015
I0
aI0
aI0
aI0
aaa(lp6016
(lp6017
I0
aI0
aI1
aI0
aa(lp6018
I0
aI0
aI0
aI1
aa(lp6019
I2
aI2
aI0
aI0
aa(lp6020
I2
aI2
aI0
aI0
aaa(lp6021
(lp6022
I0
aI0
aI0
aI0
aa(lp6023
I0
aI2
aI2
aI0
aa(lp6024
I1
aI2
aI2
aI0
aa(lp6025
I0
aI0
aI0
aI1
aaa(lp6026
(lp6027
I0
aI0
aI0
aI0
aa(lp6028
I0
aI1
aI1
aI0
aa(lp6029
I0
aI2
aI2
aI0
aa(lp6030
I0
aI2
aI2
aI0
aaa(lp6031
(lp6032
I0
aI0
aI2
aI2
aa(lp6033
I0
aI0
aI2
aI2
aa(lp6034
I1
aI0
aI0
aI0
aa(lp6035
I1
aI0
aI0
aI0
aaa(lp6036
(lp6037
I2
aI2
aI0
aI0
aa(lp6038
I2
aI2
aI0
aI0
aa(lp6039
I1
aI0
aI0
aI0
aa(lp6040
I0
aI0
aI1
aI0
aaa(lp6041
(lp6042
I1
aI0
aI1
aI0
aa(lp6043
I0
aI0
aI0
aI0
aa(lp6044
I0
aI2
aI2
aI0
aa(lp6045
I0
aI2
aI2
aI0
aaa(lp6046
(lp6047
I0
aI0
aI0
aI0
aa(lp6048
I2
aI2
aI0
aI0
aa(lp6049
I2
aI2
aI0
aI0
aa(lp6050
I1
aI1
aI0
aI0
aaa(lp6051
(lp6052
I0
aI0
aI0
aI0
aa(lp6053
I0
aI2
aI2
aI0
aa(lp6054
I0
aI2
aI2
aI0
aa(lp6055
I0
aI1
aI0
aI1
aaa(lp6056
(lp6057
I0
aI0
aI2
aI2
aa(lp6058
I0
aI0
aI2
aI2
aa(lp6059
I0
aI0
aI0
aI0
aa(lp6060
I1
aI0
aI0
aI1
aaa(lp6061
(lp6062
I0
aI0
aI0
aI0
aa(lp6063
I0
aI0
aI0
aI0
aa(lp6064
I1
aI0
aI1
aI0
aa(lp6065
I0
aI0
aI0
aI1
aaa(lp6066
(lp6067
I0
aI1
aI0
aI0
aa(lp6068
I0
aI0
aI0
aI0
aa(lp6069
I0
aI1
aI0
aI1
aa(lp6070
I0
aI0
aI0
aI0
aaa(lp6071
(lp6072
I0
aI2
aI2
aI0
aa(lp6073
I1
aI2
aI2
aI0
aa(lp6074
I0
aI0
aI0
aI1
aa(lp6075
I0
aI0
aI0
aI0
aaa(lp6076
(lp6077
I0
aI0
aI0
aI0
aa(lp6078
I0
aI0
aI1
aI0
aa(lp6079
I0
aI0
aI0
aI0
aa(lp6080
I0
aI1
aI0
aI1
aaa(lp6081
(lp6082
I0
aI1
aI0
aI0
aa(lp6083
I0
aI1
aI0
aI1
aa(lp6084
I0
aI0
aI0
aI0
aa(lp6085
I0
aI0
aI0
aI0
aaa(lp6086
(lp6087
I0
aI0
aI1
aI0
aa(lp6088
I0
aI1
aI0
aI0
aa(lp6089
I0
aI0
aI0
aI1
aa(lp6090
I0
aI0
aI0
aI0
aaa(lp6091
(lp6092
I1
aI0
aI0
aI0
aa(lp6093
I0
aI0
aI0
aI0
aa(lp6094
I0
aI0
aI1
aI0
aa(lp6095
I0
aI1
aI0
aI0
aaa(lp6096
(lp6097
I0
aI0
aI0
aI0
aa(lp6098
I0
aI0
aI0
aI0
aa(lp6099
I1
aI1
aI0
aI0
aa(lp6100
I0
aI0
aI0
aI1
aaa(lp6101
(lp6102
I0
aI0
aI0
aI0
aa(lp6103
I1
aI0
aI0
aI0
aa(lp6104
I1
aI0
aI0
aI1
aa(lp6105
I0
aI0
aI0
aI0
aaa(lp6106
(lp6107
I0
aI0
aI0
aI0
aa(lp6108
I0
aI0
aI1
aI0
aa(lp6109
I1
aI0
aI1
aI0
aa(lp6110
I0
aI0
aI0
aI0
aaa(lp6111
(lp6112
I0
aI0
aI0
aI1
aa(lp6113
I0
aI1
aI0
aI0
aa(lp6114
I1
aI0
aI0
aI0
aa(lp6115
I0
aI0
aI0
aI0
aaa(lp6116
(lp6117
I2
aI2
aI0
aI0
aa(lp6118
I2
aI2
aI0
aI0
aa(lp6119
I2
aI2
aI2
aI2
aa(lp6120
I2
aI2
aI2
aI2
aaa(lp6121
(lp6122
I1
aI0
aI0
aI0
aa(lp6123
I0
aI2
aI2
aI0
aa(lp6124
I0
aI2
aI2
aI0
aa(lp6125
I0
aI0
aI0
aI1
aaa(lp6126
(lp6127
I0
aI0
aI1
aI0
aa(lp6128
I0
aI0
aI0
aI1
aa(lp6129
I0
aI1
aI0
aI0
aa(lp6130
I0
aI0
aI0
aI0
aaa(lp6131
(lp6132
I0
aI2
aI2
aI0
aa(lp6133
I0
aI2
aI2
aI0
aa(lp6134
I0
aI1
aI0
aI0
aa(lp6135
I0
aI0
aI0
aI1
aaa(lp6136
(lp6137
I1
aI0
aI0
aI0
aa(lp6138
I1
aI2
aI2
aI0
aa(lp6139
I0
aI2
aI2
aI0
aa(lp6140
I0
aI0
aI0
aI0
aaa(lp6141
(lp6142
I2
aI2
aI0
aI0
aa(lp6143
I2
aI2
aI0
aI0
aa(lp6144
I0
aI2
aI2
aI1
aa(lp6145
I0
aI2
aI2
aI0
aaa(lp6146
(lp6147
I1
aI0
aI0
aI0
aa(lp6148
I0
aI1
aI0
aI0
aa(lp6149
I0
aI1
aI0
aI0
aa(lp6150
I0
aI0
aI0
aI0
aaa(lp6151
(lp6152
I0
aI1
aI0
aI0
aa(lp6153
I0
aI0
aI0
aI0
aa(lp6154
I0
aI2
aI2
aI1
aa(lp6155
I0
aI2
aI2
aI0
aaa(lp6156
(lp6157
I1
aI2
aI2
aI0
aa(lp6158
I0
aI2
aI2
aI1
aa(lp6159
I0
aI0
aI0
aI0
aa(lp6160
I0
aI0
aI0
aI0
aaa(lp6161
(lp6162
I0
aI1
aI0
aI1
aa(lp6163
I0
aI0
aI0
aI0
aa(lp6164
I0
aI1
aI0
aI0
aa(lp6165
I0
aI0
aI0
aI0
aaa(lp6166
(lp6167
I0
aI0
aI0
aI0
aa(lp6168
I0
aI0
aI1
aI0
aa(lp6169
I0
aI0
aI1
aI0
aa(lp6170
I0
aI0
aI1
aI0
aaa(lp6171
(lp6172
I0
aI1
aI0
aI0
aa(lp6173
I0
aI1
aI2
aI2
aa(lp6174
I0
aI0
aI2
aI2
aa(lp6175
I0
aI0
aI0
aI0
aaa(lp6176
(lp6177
I1
aI1
aI0
aI0
aa(lp6178
I1
aI0
aI0
aI0
aa(lp6179
I0
aI0
aI0
aI0
aa(lp6180
I0
aI0
aI0
aI0
aaa(lp6181
(lp6182
I2
aI2
aI1
aI0
aa(lp6183
I2
aI2
aI0
aI0
aa(lp6184
I0
aI1
aI0
aI0
aa(lp6185
I0
aI0
aI0
aI0
aaa(lp6186
(lp6187
I0
aI0
aI2
aI2
aa(lp6188
I1
aI0
aI2
aI2
aa(lp6189
I0
aI0
aI0
aI0
aa(lp6190
I0
aI0
aI0
aI1
aaa(lp6191
(lp6192
I0
aI0
aI0
aI1
aa(lp6193
I0
aI1
aI0
aI1
aa(lp6194
I0
aI0
aI0
aI0
aa(lp6195
I0
aI0
aI0
aI0
aaa(lp6196
(lp6197
I0
aI1
aI0
aI0
aa(lp6198
I0
aI0
aI0
aI0
aa(lp6199
I0
aI0
aI0
aI1
aa(lp6200
I1
aI0
aI0
aI0
aaa(lp6201
(lp6202
I0
aI0
aI0
aI0
aa(lp6203
I1
aI2
aI2
aI0
aa(lp6204
I0
aI2
aI2
aI0
aa(lp6205
I1
aI0
aI0
aI0
aaa(lp6206
(lp6207
I1
aI1
aI2
aI2
aa(lp6208
I0
aI0
aI2
aI2
aa(lp6209
I0
aI0
aI0
aI0
aa(lp6210
I0
aI0
aI0
aI0
aaa(lp6211
(lp6212
I0
aI0
aI0
aI0
aa(lp6213
I1
aI0
aI1
aI0
aa(lp6214
I0
aI0
aI0
aI0
aa(lp6215
I0
aI0
aI0
aI1
aaa(lp6216
(lp6217
I0
aI0
aI0
aI0
aa(lp6218
I1
aI0
aI1
aI0
aa(lp6219
I0
aI0
aI0
aI0
aa(lp6220
I0
aI0
aI1
aI0
aaa(lp6221
(lp6222
I0
aI2
aI2
aI0
aa(lp6223
I0
aI2
aI2
aI0
aa(lp6224
I0
aI0
aI0
aI0
aa(lp6225
I1
aI1
aI0
aI0
aaa(lp6226
(lp6227
I0
aI0
aI2
aI2
aa(lp6228
I0
aI0
aI2
aI2
aa(lp6229
I1
aI0
aI1
aI0
aa(lp6230
I0
aI0
aI0
aI0
aaa(lp6231
(lp6232
I0
aI1
aI0
aI0
aa(lp6233
I0
aI0
aI0
aI0
aa(lp6234
I0
aI0
aI0
aI0
aa(lp6235
I1
aI0
aI1
aI0
aaa(lp6236
(lp6237
I2
aI2
aI0
aI0
aa(lp6238
I2
aI2
aI0
aI0
aa(lp6239
I1
aI0
aI0
aI0
aa(lp6240
I0
aI0
aI0
aI1
aaa(lp6241
(lp6242
I0
aI2
aI2
aI0
aa(lp6243
I0
aI2
aI2
aI0
aa(lp6244
I2
aI2
aI0
aI1
aa(lp6245
I2
aI2
aI0
aI0
aaa(lp6246
(lp6247
I0
aI0
aI1
aI1
aa(lp6248
I2
aI2
aI0
aI0
aa(lp6249
I2
aI2
aI0
aI0
aa(lp6250
I0
aI0
aI0
aI0
aaa(lp6251
(lp6252
I0
aI1
aI0
aI0
aa(lp6253
I1
aI0
aI0
aI0
aa(lp6254
I2
aI2
aI0
aI0
aa(lp6255
I2
aI2
aI0
aI0
aaa(lp6256
(lp6257
I0
aI0
aI1
aI0
aa(lp6258
I0
aI0
aI0
aI0
aa(lp6259
I2
aI2
aI0
aI0
aa(lp6260
I2
aI2
aI1
aI0
aaa(lp6261
(lp6262
I0
aI1
aI0
aI0
aa(lp6263
I0
aI0
aI0
aI0
aa(lp6264
I0
aI0
aI1
aI0
aa(lp6265
I0
aI0
aI1
aI0
aaa(lp6266
(lp6267
I0
aI1
aI0
aI1
aa(lp6268
I0
aI0
aI0
aI0
aa(lp6269
I2
aI2
aI0
aI0
aa(lp6270
I2
aI2
aI0
aI0
aaa(lp6271
(lp6272
I1
aI0
aI0
aI0
aa(lp6273
I1
aI0
aI2
aI2
aa(lp6274
I0
aI0
aI2
aI2
aa(lp6275
I0
aI0
aI0
aI0
aaa(lp6276
(lp6277
I0
aI0
aI0
aI0
aa(lp6278
I1
aI0
aI0
aI0
aa(lp6279
I0
aI1
aI0
aI1
aa(lp6280
I0
aI0
aI0
aI0
aaa(lp6281
(lp6282
I2
aI2
aI0
aI0
aa(lp6283
I2
aI2
aI0
aI1
aa(lp6284
I0
aI0
aI0
aI1
aa(lp6285
I0
aI0
aI0
aI0
aaa(lp6286
(lp6287
I1
aI0
aI0
aI1
aa(lp6288
I2
aI2
aI0
aI0
aa(lp6289
I2
aI2
aI0
aI0
aa(lp6290
I0
aI0
aI0
aI0
aaa(lp6291
(lp6292
I0
aI1
aI0
aI0
aa(lp6293
I0
aI0
aI0
aI1
aa(lp6294
I2
aI2
aI0
aI0
aa(lp6295
I2
aI2
aI0
aI0
aaa(lp6296
(lp6297
I0
aI0
aI0
aI0
aa(lp6298
I0
aI0
aI1
aI0
aa(lp6299
I0
aI1
aI0
aI0
aa(lp6300
I0
aI0
aI1
aI0
aaa(lp6301
(lp6302
I0
aI0
aI1
aI0
aa(lp6303
I0
aI1
aI1
aI0
aa(lp6304
I0
aI0
aI0
aI0
aa(lp6305
I0
aI0
aI0
aI0
aaa(lp6306
(lp6307
I1
aI2
aI2
aI0
aa(lp6308
I0
aI2
aI2
aI0
aa(lp6309
I0
aI0
aI0
aI0
aa(lp6310
I0
aI0
aI1
aI0
aaa(lp6311
(lp6312
I1
aI0
aI0
aI0
aa(lp6313
I2
aI2
aI1
aI0
aa(lp6314
I2
aI2
aI0
aI0
aa(lp6315
I0
aI0
aI0
aI0
aaa(lp6316
(lp6317
I0
aI0
aI0
aI0
aa(lp6318
I1
aI0
aI0
aI0
aa(lp6319
I1
aI0
aI0
aI0
aa(lp6320
I1
aI0
aI0
aI0
aaa(lp6321
(lp6322
I0
aI0
aI0
aI0
aa(lp6323
I0
aI0
aI1
aI1
aa(lp6324
I1
aI0
aI0
aI0
aa(lp6325
I0
aI0
aI0
aI0
aaa(lp6326
(lp6327
I1
aI0
aI0
aI0
aa(lp6328
I0
aI0
aI0
aI0
aa(lp6329
I2
aI2
aI1
aI0
aa(lp6330
I2
aI2
aI0
aI0
aaa(lp6331
(lp6332
I0
aI0
aI0
aI0
aa(lp6333
I0
aI1
aI0
aI0
aa(lp6334
I0
aI0
aI0
aI1
aa(lp6335
I0
aI0
aI0
aI1
aaa(lp6336
(lp6337
I1
aI0
aI0
aI0
aa(lp6338
I0
aI0
aI0
aI0
aa(lp6339
I0
aI1
aI1
aI0
aa(lp6340
I0
aI0
aI0
aI0
aaa(lp6341
(lp6342
I0
aI1
aI0
aI0
aa(lp6343
I0
aI0
aI1
aI0
aa(lp6344
I0
aI2
aI2
aI0
aa(lp6345
I0
aI2
aI2
aI0
aaa(lp6346
(lp6347
I0
aI1
aI0
aI0
aa(lp6348
I0
aI0
aI0
aI1
aa(lp6349
I1
aI0
aI0
aI0
aa(lp6350
I0
aI0
aI0
aI0
aaa(lp6351
(lp6352
I1
aI0
aI0
aI0
aa(lp6353
I0
aI0
aI1
aI0
aa(lp6354
I0
aI0
aI1
aI0
aa(lp6355
I0
aI0
aI0
aI0
aaa(lp6356
(lp6357
I0
aI0
aI0
aI0
aa(lp6358
I0
aI1
aI0
aI1
aa(lp6359
I0
aI0
aI0
aI0
aa(lp6360
I0
aI0
aI1
aI0
aaa(lp6361
(lp6362
I1
aI1
aI0
aI0
aa(lp6363
I2
aI2
aI0
aI0
aa(lp6364
I2
aI2
aI0
aI0
aa(lp6365
I0
aI0
aI0
aI0
aaa(lp6366
(lp6367
I0
aI0
aI0
aI1
aa(lp6368
I0
aI1
aI0
aI0
aa(lp6369
I0
aI0
aI2
aI2
aa(lp6370
I0
aI0
aI2
aI2
aaa(lp6371
(lp6372
I1
aI0
aI0
aI0
aa(lp6373
I0
aI0
aI0
aI0
aa(lp6374
I0
aI1
aI0
aI1
aa(lp6375
I0
aI0
aI0
aI0
aaa(lp6376
(lp6377
I0
aI1
aI1
aI0
aa(lp6378
I1
aI0
aI0
aI0
aa(lp6379
I0
aI0
aI0
aI0
aa(lp6380
I0
aI0
aI0
aI0
aaa(lp6381
(lp6382
I0
aI0
aI0
aI1
aa(lp6383
I0
aI0
aI0
aI0
aa(lp6384
I0
aI1
aI2
aI2
aa(lp6385
I0
aI0
aI2
aI2
aaa(lp6386
(lp6387
I0
aI1
aI2
aI2
aa(lp6388
I0
aI0
aI2
aI2
aa(lp6389
I0
aI1
aI0
aI0
aa(lp6390
I0
aI0
aI0
aI0
aaa(lp6391
(lp6392
I0
aI0
aI0
aI0
aa(lp6393
I0
aI1
aI0
aI0
aa(lp6394
I1
aI0
aI1
aI0
aa(lp6395
I0
aI0
aI0
aI0
aaa(lp6396
(lp6397
I0
aI1
aI2
aI2
aa(lp6398
I0
aI0
aI2
aI2
aa(lp6399
I0
aI0
aI2
aI2
aa(lp6400
I0
aI0
aI2
aI2
aaa(lp6401
(lp6402
I0
aI1
aI0
aI0
aa(lp6403
I1
aI0
aI0
aI0
aa(lp6404
I1
aI0
aI0
aI0
aa(lp6405
I0
aI0
aI0
aI0
aaa(lp6406
(lp6407
I0
aI0
aI0
aI0
aa(lp6408
I1
aI0
aI2
aI2
aa(lp6409
I2
aI2
aI2
aI2
aa(lp6410
I2
aI2
aI0
aI0
aaa(lp6411
(lp6412
I0
aI1
aI2
aI2
aa(lp6413
I0
aI0
aI2
aI2
aa(lp6414
I0
aI0
aI0
aI0
aa(lp6415
I1
aI0
aI0
aI0
aaa(lp6416
(lp6417
I1
aI0
aI0
aI0
aa(lp6418
I0
aI0
aI0
aI1
aa(lp6419
I2
aI2
aI0
aI0
aa(lp6420
I2
aI2
aI0
aI0
aaa(lp6421
(lp6422
I1
aI0
aI0
aI0
aa(lp6423
I0
aI0
aI0
aI0
aa(lp6424
I0
aI1
aI0
aI0
aa(lp6425
I0
aI0
aI1
aI0
aaa(lp6426
(lp6427
I0
aI0
aI1
aI0
aa(lp6428
I0
aI0
aI0
aI0
aa(lp6429
I1
aI0
aI1
aI0
aa(lp6430
I0
aI0
aI0
aI0
aaa(lp6431
(lp6432
I2
aI2
aI0
aI0
aa(lp6433
I2
aI2
aI0
aI0
aa(lp6434
I0
aI1
aI1
aI0
aa(lp6435
I0
aI0
aI0
aI0
aaa(lp6436
(lp6437
I0
aI0
aI1
aI0
aa(lp6438
I1
aI0
aI0
aI0
aa(lp6439
I0
aI2
aI2
aI0
aa(lp6440
I0
aI2
aI2
aI0
aaa(lp6441
(lp6442
I0
aI0
aI0
aI0
aa(lp6443
I0
aI0
aI0
aI0
aa(lp6444
I1
aI2
aI2
aI0
aa(lp6445
I1
aI2
aI2
aI0
aaa(lp6446
(lp6447
I0
aI2
aI2
aI0
aa(lp6448
I0
aI2
aI2
aI1
aa(lp6449
I0
aI1
aI0
aI0
aa(lp6450
I0
aI0
aI0
aI0
aaa(lp6451
(lp6452
I0
aI0
aI0
aI0
aa(lp6453
I0
aI0
aI0
aI0
aa(lp6454
I0
aI0
aI1
aI1
aa(lp6455
I0
aI0
aI1
aI0
aaa(lp6456
(lp6457
I0
aI0
aI0
aI1
aa(lp6458
I0
aI0
aI0
aI0
aa(lp6459
I1
aI0
aI1
aI0
aa(lp6460
I0
aI0
aI0
aI0
aaa(lp6461
(lp6462
I0
aI1
aI1
aI0
aa(lp6463
I0
aI0
aI1
aI0
aa(lp6464
I0
aI0
aI0
aI0
aa(lp6465
I0
aI0
aI0
aI0
aaa(lp6466
(lp6467
I1
aI0
aI0
aI0
aa(lp6468
I0
aI0
aI0
aI0
aa(lp6469
I0
aI0
aI1
aI0
aa(lp6470
I1
aI0
aI0
aI0
aaa(lp6471
(lp6472
I0
aI1
aI0
aI0
aa(lp6473
I0
aI0
aI1
aI0
aa(lp6474
I2
aI2
aI0
aI0
aa(lp6475
I2
aI2
aI0
aI0
aaa(lp6476
(lp6477
I0
aI0
aI1
aI0
aa(lp6478
I1
aI0
aI0
aI0
aa(lp6479
I2
aI2
aI0
aI0
aa(lp6480
I2
aI2
aI0
aI0
aaa(lp6481
(lp6482
I0
aI0
aI2
aI2
aa(lp6483
I1
aI0
aI2
aI2
aa(lp6484
I1
aI0
aI0
aI0
aa(lp6485
I0
aI0
aI0
aI0
aaa(lp6486
(lp6487
I1
aI0
aI0
aI0
aa(lp6488
I0
aI0
aI0
aI0
aa(lp6489
I1
aI0
aI0
aI1
aa(lp6490
I0
aI0
aI0
aI0
aaa(lp6491
(lp6492
I1
aI0
aI0
aI1
aa(lp6493
I1
aI0
aI0
aI0
aa(lp6494
I0
aI0
aI0
aI0
aa(lp6495
I0
aI0
aI0
aI0
aaa(lp6496
(lp6497
I0
aI1
aI0
aI0
aa(lp6498
I0
aI0
aI0
aI0
aa(lp6499
I0
aI1
aI1
aI0
aa(lp6500
I0
aI0
aI0
aI0
aaa(lp6501
(lp6502
I0
aI0
aI0
aI1
aa(lp6503
I0
aI1
aI0
aI0
aa(lp6504
I0
aI0
aI0
aI0
aa(lp6505
I0
aI0
aI1
aI0
aaa(lp6506
(lp6507
I0
aI1
aI0
aI1
aa(lp6508
I0
aI0
aI1
aI0
aa(lp6509
I0
aI0
aI0
aI0
aa(lp6510
I0
aI0
aI0
aI0
aaa(lp6511
(lp6512
I0
aI0
aI1
aI0
aa(lp6513
I0
aI1
aI0
aI0
aa(lp6514
I0
aI0
aI0
aI0
aa(lp6515
I0
aI0
aI0
aI1
aaa(lp6516
(lp6517
I0
aI0
aI1
aI0
aa(lp6518
I1
aI0
aI0
aI0
aa(lp6519
I0
aI0
aI2
aI2
aa(lp6520
I0
aI0
aI2
aI2
aaa(lp6521
(lp6522
I0
aI1
aI0
aI0
aa(lp6523
I1
aI0
aI0
aI0
aa(lp6524
I0
aI0
aI0
aI0
aa(lp6525
I0
aI0
aI0
aI1
aaa(lp6526
(lp6527
I0
aI0
aI0
aI0
aa(lp6528
I0
aI0
aI0
aI0
aa(lp6529
I1
aI0
aI1
aI1
aa(lp6530
I0
aI0
aI0
aI0
aaa(lp6531
(lp6532
I0
aI1
aI0
aI0
aa(lp6533
I0
aI0
aI1
aI0
aa(lp6534
I0
aI0
aI0
aI0
aa(lp6535
I0
aI1
aI0
aI0
aaa(lp6536
(lp6537
I0
aI0
aI1
aI0
aa(lp6538
I0
aI0
aI0
aI0
aa(lp6539
I1
aI0
aI0
aI0
aa(lp6540
I0
aI0
aI1
aI0
aaa(lp6541
(lp6542
I0
aI1
aI1
aI0
aa(lp6543
I0
aI0
aI0
aI0
aa(lp6544
I0
aI0
aI2
aI2
aa(lp6545
I0
aI0
aI2
aI2
aaa(lp6546
(lp6547
I2
aI2
aI0
aI0
aa(lp6548
I2
aI2
aI0
aI0
aa(lp6549
I0
aI1
aI0
aI0
aa(lp6550
I0
aI0
aI0
aI1
aaa(lp6551
(lp6552
I0
aI1
aI0
aI0
aa(lp6553
I0
aI1
aI0
aI0
aa(lp6554
I0
aI0
aI1
aI0
aa(lp6555
I0
aI0
aI0
aI0
aaa(lp6556
(lp6557
I0
aI2
aI2
aI0
aa(lp6558
I0
aI2
aI2
aI0
aa(lp6559
I0
aI1
aI1
aI0
aa(lp6560
I0
aI0
aI0
aI0
aaa(lp6561
(lp6562
I1
aI0
aI2
aI2
aa(lp6563
I0
aI0
aI2
aI2
aa(lp6564
I0
aI1
aI0
aI0
aa(lp6565
I0
aI0
aI0
aI0
aaa(lp6566
(lp6567
I0
aI1
aI0
aI0
aa(lp6568
I0
aI1
aI0
aI0
aa(lp6569
I0
aI0
aI0
aI0
aa(lp6570
I0
aI0
aI0
aI1
aaa(lp6571
(lp6572
I1
aI0
aI0
aI0
aa(lp6573
I1
aI0
aI0
aI1
aa(lp6574
I0
aI0
aI0
aI0
aa(lp6575
I0
aI0
aI0
aI0
aaa(lp6576
(lp6577
I0
aI2
aI2
aI0
aa(lp6578
I0
aI2
aI2
aI0
aa(lp6579
I0
aI0
aI1
aI0
aa(lp6580
I1
aI0
aI0
aI0
aaa(lp6581
(lp6582
I0
aI0
aI0
aI0
aa(lp6583
I0
aI1
aI0
aI0
aa(lp6584
I2
aI2
aI0
aI1
aa(lp6585
I2
aI2
aI0
aI0
aaa(lp6586
(lp6587
I0
aI1
aI0
aI0
aa(lp6588
I0
aI1
aI1
aI0
aa(lp6589
I0
aI0
aI0
aI0
aa(lp6590
I0
aI0
aI0
aI0
aaa(lp6591
(lp6592
I0
aI0
aI0
aI0
aa(lp6593
I1
aI0
aI1
aI0
aa(lp6594
I1
aI0
aI0
aI0
aa(lp6595
I0
aI0
aI0
aI0
aaa(lp6596
(lp6597
I2
aI2
aI0
aI0
aa(lp6598
I2
aI2
aI2
aI2
aa(lp6599
I1
aI0
aI2
aI2
aa(lp6600
I0
aI0
aI0
aI0
aaa(lp6601
(lp6602
I0
aI0
aI1
aI0
aa(lp6603
I1
aI0
aI0
aI0
aa(lp6604
I0
aI0
aI0
aI1
aa(lp6605
I0
aI0
aI0
aI0
aaa(lp6606
(lp6607
I0
aI0
aI0
aI0
aa(lp6608
I1
aI1
aI0
aI0
aa(lp6609
I0
aI0
aI0
aI1
aa(lp6610
I0
aI0
aI0
aI0
aaa(lp6611
(lp6612
I0
aI1
aI0
aI0
aa(lp6613
I1
aI0
aI1
aI0
aa(lp6614
I0
aI0
aI0
aI0
aa(lp6615
I0
aI0
aI0
aI0
aaa(lp6616
(lp6617
I1
aI0
aI0
aI0
aa(lp6618
I2
aI2
aI0
aI0
aa(lp6619
I2
aI2
aI0
aI0
aa(lp6620
I0
aI0
aI0
aI1
aaa(lp6621
(lp6622
I2
aI2
aI0
aI0
aa(lp6623
I2
aI2
aI1
aI0
aa(lp6624
I0
aI0
aI0
aI0
aa(lp6625
I0
aI0
aI0
aI1
aaa(lp6626
(lp6627
I0
aI0
aI1
aI0
aa(lp6628
I1
aI0
aI0
aI0
aa(lp6629
I0
aI0
aI0
aI0
aa(lp6630
I0
aI0
aI0
aI1
aaa(lp6631
(lp6632
I1
aI0
aI0
aI0
aa(lp6633
I0
aI0
aI0
aI0
aa(lp6634
I2
aI2
aI2
aI2
aa(lp6635
I2
aI2
aI2
aI2
aaa(lp6636
(lp6637
I0
aI0
aI1
aI0
aa(lp6638
I0
aI1
aI0
aI0
aa(lp6639
I1
aI0
aI0
aI0
aa(lp6640
I0
aI0
aI0
aI0
aaa(lp6641
(lp6642
I0
aI0
aI2
aI2
aa(lp6643
I0
aI0
aI2
aI2
aa(lp6644
I1
aI0
aI2
aI2
aa(lp6645
I0
aI0
aI2
aI2
aaa(lp6646
(lp6647
I1
aI0
aI1
aI0
aa(lp6648
I0
aI0
aI0
aI0
aa(lp6649
I2
aI2
aI0
aI0
aa(lp6650
I2
aI2
aI0
aI0
aaa(lp6651
(lp6652
I2
aI2
aI0
aI1
aa(lp6653
I2
aI2
aI0
aI0
aa(lp6654
I1
aI0
aI0
aI0
aa(lp6655
I0
aI0
aI0
aI0
aaa(lp6656
(lp6657
I0
aI1
aI0
aI1
aa(lp6658
I1
aI0
aI0
aI0
aa(lp6659
I0
aI0
aI0
aI0
aa(lp6660
I0
aI0
aI0
aI0
aaa(lp6661
(lp6662
I0
aI0
aI0
aI1
aa(lp6663
I0
aI0
aI1
aI0
aa(lp6664
I0
aI0
aI0
aI0
aa(lp6665
I0
aI0
aI0
aI1
aaa(lp6666
(lp6667
I0
aI0
aI1
aI1
aa(lp6668
I0
aI1
aI0
aI0
aa(lp6669
I0
aI0
aI0
aI0
aa(lp6670
I0
aI0
aI0
aI0
aaa(lp6671
(lp6672
I2
aI2
aI0
aI0
aa(lp6673
I2
aI2
aI2
aI2
aa(lp6674
I0
aI0
aI2
aI2
aa(lp6675
I0
aI0
aI1
aI0
aaa(lp6676
(lp6677
I0
aI2
aI2
aI0
aa(lp6678
I0
aI2
aI2
aI0
aa(lp6679
I0
aI0
aI0
aI1
aa(lp6680
I1
aI0
aI0
aI0
aaa(lp6681
(lp6682
I0
aI1
aI0
aI0
aa(lp6683
I1
aI0
aI2
aI2
aa(lp6684
I0
aI0
aI2
aI2
aa(lp6685
I0
aI0
aI0
aI0
aaa(lp6686
(lp6687
I0
aI0
aI2
aI2
aa(lp6688
I0
aI0
aI2
aI2
aa(lp6689
I1
aI1
aI0
aI0
aa(lp6690
I0
aI0
aI0
aI0
aaa(lp6691
(lp6692
I1
aI0
aI0
aI0
aa(lp6693
I0
aI0
aI0
aI0
aa(lp6694
I1
aI0
aI2
aI2
aa(lp6695
I0
aI0
aI2
aI2
aaa(lp6696
(lp6697
I0
aI0
aI0
aI0
aa(lp6698
I0
aI0
aI1
aI0
aa(lp6699
I1
aI0
aI0
aI0
aa(lp6700
I0
aI0
aI1
aI0
aaa(lp6701
(lp6702
I0
aI1
aI0
aI0
aa(lp6703
I0
aI0
aI0
aI0
aa(lp6704
I0
aI1
aI0
aI0
aa(lp6705
I0
aI0
aI0
aI1
aaa(lp6706
(lp6707
I2
aI2
aI0
aI0
aa(lp6708
I2
aI2
aI0
aI0
aa(lp6709
I0
aI0
aI0
aI0
aa(lp6710
I1
aI0
aI1
aI0
aaa(lp6711
(lp6712
I2
aI2
aI2
aI2
aa(lp6713
I2
aI2
aI2
aI2
aa(lp6714
I1
aI0
aI0
aI0
aa(lp6715
I0
aI0
aI0
aI0
aaa(lp6716
(lp6717
I1
aI0
aI0
aI0
aa(lp6718
I1
aI0
aI0
aI0
aa(lp6719
I0
aI0
aI0
aI1
aa(lp6720
I0
aI0
aI0
aI0
aaa(lp6721
(lp6722
I1
aI0
aI2
aI2
aa(lp6723
I0
aI0
aI2
aI2
aa(lp6724
I0
aI0
aI2
aI2
aa(lp6725
I0
aI0
aI2
aI2
aaa(lp6726
(lp6727
I1
aI0
aI0
aI1
aa(lp6728
I0
aI0
aI0
aI0
aa(lp6729
I0
aI1
aI0
aI0
aa(lp6730
I0
aI0
aI0
aI0
aaa(lp6731
(lp6732
I0
aI0
aI0
aI0
aa(lp6733
I0
aI1
aI1
aI0
aa(lp6734
I0
aI1
aI0
aI0
aa(lp6735
I0
aI0
aI0
aI0
aaa(lp6736
(lp6737
I0
aI0
aI0
aI0
aa(lp6738
I0
aI0
aI0
aI1
aa(lp6739
I1
aI2
aI2
aI0
aa(lp6740
I0
aI2
aI2
aI0
aaa(lp6741
(lp6742
I0
aI0
aI1
aI0
aa(lp6743
I1
aI0
aI2
aI2
aa(lp6744
I0
aI0
aI2
aI2
aa(lp6745
I0
aI0
aI0
aI0
aaa(lp6746
(lp6747
I0
aI0
aI1
aI0
aa(lp6748
I0
aI2
aI2
aI0
aa(lp6749
I1
aI2
aI2
aI0
aa(lp6750
I0
aI0
aI0
aI0
aaa(lp6751
(lp6752
I0
aI2
aI2
aI0
aa(lp6753
I0
aI2
aI2
aI0
aa(lp6754
I0
aI0
aI1
aI0
aa(lp6755
I0
aI0
aI0
aI1
aaa(lp6756
(lp6757
I2
aI2
aI0
aI1
aa(lp6758
I2
aI2
aI0
aI0
aa(lp6759
I0
aI2
aI2
aI0
aa(lp6760
I0
aI2
aI2
aI0
aaa(lp6761
(lp6762
I0
aI2
aI2
aI0
aa(lp6763
I0
aI2
aI2
aI0
aa(lp6764
I1
aI0
aI1
aI0
aa(lp6765
I0
aI0
aI0
aI0
aaa(lp6766
(lp6767
I0
aI1
aI0
aI0
aa(lp6768
I0
aI1
aI0
aI0
aa(lp6769
I0
aI1
aI0
aI0
aa(lp6770
I0
aI0
aI0
aI0
aaa(lp6771
(lp6772
I2
aI2
aI0
aI0
aa(lp6773
I2
aI2
aI1
aI0
aa(lp6774
I2
aI2
aI0
aI0
aa(lp6775
I2
aI2
aI0
aI0
aaa(lp6776
(lp6777
I0
aI0
aI0
aI0
aa(lp6778
I1
aI0
aI1
aI0
aa(lp6779
I0
aI0
aI0
aI0
aa(lp6780
I1
aI0
aI0
aI0
aaa(lp6781
(lp6782
I0
aI1
aI0
aI0
aa(lp6783
I2
aI2
aI0
aI0
aa(lp6784
I2
aI2
aI0
aI0
aa(lp6785
I0
aI0
aI1
aI0
aaa(lp6786
(lp6787
I0
aI1
aI0
aI0
aa(lp6788
I0
aI0
aI0
aI1
aa(lp6789
I0
aI0
aI1
aI0
aa(lp6790
I0
aI0
aI0
aI0
aaa(lp6791
(lp6792
I0
aI0
aI0
aI0
aa(lp6793
I1
aI0
aI1
aI0
aa(lp6794
I0
aI1
aI0
aI0
aa(lp6795
I0
aI0
aI0
aI0
aaa(lp6796
(lp6797
I2
aI2
aI0
aI0
aa(lp6798
I2
aI2
aI0
aI0
aa(lp6799
I0
aI1
aI0
aI1
aa(lp6800
I0
aI0
aI0
aI0
aaa(lp6801
(lp6802
I1
aI0
aI0
aI0
aa(lp6803
I0
aI0
aI0
aI0
aa(lp6804
I1
aI0
aI1
aI0
aa(lp6805
I0
aI0
aI0
aI0
aaa(lp6806
(lp6807
I0
aI0
aI0
aI0
aa(lp6808
I1
aI1
aI0
aI0
aa(lp6809
I1
aI0
aI0
aI0
aa(lp6810
I0
aI0
aI0
aI0
aaa(lp6811
(lp6812
I1
aI0
aI0
aI0
aa(lp6813
I0
aI0
aI1
aI0
aa(lp6814
I0
aI1
aI0
aI0
aa(lp6815
I0
aI0
aI0
aI0
aaa(lp6816
(lp6817
I1
aI0
aI1
aI0
aa(lp6818
I0
aI0
aI0
aI0
aa(lp6819
I0
aI1
aI0
aI0
aa(lp6820
I0
aI0
aI0
aI0
aaa(lp6821
(lp6822
I1
aI0
aI1
aI0
aa(lp6823
I0
aI0
aI2
aI2
aa(lp6824
I0
aI0
aI2
aI2
aa(lp6825
I0
aI0
aI0
aI0
aaa(lp6826
(lp6827
I1
aI1
aI0
aI0
aa(lp6828
I0
aI0
aI0
aI0
aa(lp6829
I1
aI0
aI0
aI0
aa(lp6830
I0
aI0
aI0
aI0
aaa(lp6831
(lp6832
I0
aI1
aI0
aI1
aa(lp6833
I0
aI0
aI0
aI0
aa(lp6834
I1
aI0
aI0
aI0
aa(lp6835
I0
aI0
aI0
aI0
aaa(lp6836
(lp6837
I0
aI1
aI0
aI0
aa(lp6838
I1
aI0
aI0
aI0
aa(lp6839
I0
aI0
aI0
aI1
aa(lp6840
I0
aI0
aI0
aI0
aaa(lp6841
(lp6842
I0
aI0
aI0
aI0
aa(lp6843
I1
aI0
aI0
aI1
aa(lp6844
I0
aI0
aI1
aI0
aa(lp6845
I0
aI0
aI0
aI0
aaa(lp6846
(lp6847
I1
aI0
aI0
aI0
aa(lp6848
I2
aI2
aI0
aI1
aa(lp6849
I2
aI2
aI0
aI0
aa(lp6850
I0
aI0
aI0
aI0
aaa(lp6851
(lp6852
I0
aI0
aI1
aI0
aa(lp6853
I2
aI2
aI0
aI0
aa(lp6854
I2
aI2
aI0
aI1
aa(lp6855
I0
aI0
aI0
aI0
aaa(lp6856
(lp6857
I1
aI0
aI0
aI0
aa(lp6858
I0
aI0
aI2
aI2
aa(lp6859
I1
aI0
aI2
aI2
aa(lp6860
I0
aI0
aI0
aI0
aaa.