(lp0
(lp1
(lp2
I00
aI01
aI00
aI00
aI00
aI01
aI01
aI00
aI00
aI00
aI01
aI00
aI00
aI00
aI00
aI00
aI00
aI00
aI00
aI00
aI00
aI00
aI00
aI00
aI00
aI00
aI00
aI00
aI01
aI01
aI01
aI00
aI01
aI01
aI01
aI01
aI00
aI01
aI01
aI01
aa(lp3
(lp4
I00
aI01
aI00
aI00
aI00
aI01
aI01
aI00
aI00
aI00
aI01
aI00
aI00
aI00
aI00
aI00
aI00
aI00
aI00
aI00
aI00
aI00
aI00
aI00
aI00
aI00
aI00
aI00
aI01
aI01
aI01
aI00
aI01
aI01
aI01
aI01
aI00
aI01
aI01
aI01
aa(istate
Node
p5
(dp6
S'_hash_'
p7
S'0000000000000000000000000000001000110001'
p8
sS'depth'
p9
I10
sS'state'
p10
(lp11
I00
aI00
aI00
aI00
aI00
aI00
aI00
aI00
aI00
aI00
aI00
aI00
aI00
aI00
aI00
aI00
aI00
aI00
aI00
aI00
aI00
aI00
aI00
aI00
aI00
aI00
aI00
aI00
aI00
aI00
aI01
aI00
aI00
aI00
aI01
aI01
aI00
aI00
aI00
aI01
asS'parent'
p12
(istate
Node
p13
(dp14
g7
S'0000000000000000000000000000001000110011'
p15
sg9
I9
sg10
(lp16
I00
aI00
aI00
aI00
aI00
aI00
aI00
aI00
aI00
aI00
aI00
aI00
aI00
aI00
aI00
aI00
aI00
aI00
aI00
aI00
aI00
aI00
aI00
aI00
aI00
aI00
aI00
aI00
aI00
aI00
aI01
aI00
aI00
aI00
aI01
aI01
aI00
aI00
aI01
aI01
asg12
(istate
Node
p17
(dp18
g7
S'0000000000000000000000000000001000110111'
p19
sg9
I8
sg10
(lp20
I00
aI00
aI00
aI00
aI00
aI00
aI00
aI00
aI00
aI00
aI00
aI00
aI00
aI00
aI00
aI00
aI00
aI00
aI00
aI00
aI00
aI00
aI00
aI00
aI00
aI00
aI00
aI00
aI00
aI00
aI01
aI00
aI00
aI00
aI01
aI01
aI00
aI01
aI01
aI01
asg12
(istate
Node
p21
(dp22
g7
S'0000000000000000000000000000001001110111'
p23
sg9
I7
sg10
(lp24
I00
aI00
aI00
aI00
aI00
aI00
aI00
aI00
aI00
aI00
aI00
aI00
aI00
aI00
aI00
aI00
aI00
aI00
aI00
aI00
aI00
aI00
aI00
aI00
aI00
aI00
aI00
aI00
aI00
aI00
aI01
aI00
aI00
aI01
aI01
aI01
aI00
aI01
aI01
aI01
asg12
(istate
Node
p25
(dp26
g7
S'0000000000000000000000000000001011110111'
p27
sg9
I6
sg10
(lp28
I00
aI00
aI00
aI00
aI00
aI00
aI00
aI00
aI00
aI00
aI00
aI00
aI00
aI00
aI00
aI00
aI00
aI00
aI00
aI00
aI00
aI00
aI00
aI00
aI00
aI00
aI00
aI00
aI00
aI00
aI01
aI00
aI01
aI01
aI01
aI01
aI00
aI01
aI01
aI01
asg12
(istate
Node
p29
(dp30
g7
S'0000000000000000000000000000011011110111'
p31
sg9
I5
sg10
(lp32
I00
aI00
aI00
aI00
aI00
aI00
aI00
aI00
aI00
aI00
aI00
aI00
aI00
aI00
aI00
aI00
aI00
aI00
aI00
aI00
aI00
aI00
aI00
aI00
aI00
aI00
aI00
aI00
aI00
aI01
aI01
aI00
aI01
aI01
aI01
aI01
aI00
aI01
aI01
aI01
asg12
(istate
Node
p33
(dp34
g7
S'0000000000000000000000000000111011110111'
p35
sg9
I4
sg10
(lp36
I00
aI00
aI00
aI00
aI00
aI00
aI00
aI00
aI00
aI00
aI00
aI00
aI00
aI00
aI00
aI00
aI00
aI00
aI00
aI00
aI00
aI00
aI00
aI00
aI00
aI00
aI00
aI00
aI01
aI01
aI01
aI00
aI01
aI01
aI01
aI01
aI00
aI01
aI01
aI01
asg12
(istate
Node
p37
(dp38
g7
S'0000000000100000000000000000111011110111'
p39
sg9
I3
sg10
(lp40
I00
aI00
aI00
aI00
aI00
aI00
aI00
aI00
aI00
aI00
aI01
aI00
aI00
aI00
aI00
aI00
aI00
aI00
aI00
aI00
aI00
aI00
aI00
aI00
aI00
aI00
aI00
aI00
aI01
aI01
aI01
aI00
aI01
aI01
aI01
aI01
aI00
aI01
aI01
aI01
asg12
(istate
Node
p41
(dp42
g7
S'0000001000100000000000000000111011110111'
p43
sg9
I2
sg10
(lp44
I00
aI00
aI00
aI00
aI00
aI00
aI01
aI00
aI00
aI00
aI01
aI00
aI00
aI00
aI00
aI00
aI00
aI00
aI00
aI00
aI00
aI00
aI00
aI00
aI00
aI00
aI00
aI00
aI01
aI01
aI01
aI00
aI01
aI01
aI01
aI01
aI00
aI01
aI01
aI01
asg12
(istate
Node
p45
(dp46
g7
S'0000011000100000000000000000111011110111'
p47
sg9
I1
sg10
(lp48
I00
aI00
aI00
aI00
aI00
aI01
aI01
aI00
aI00
aI00
aI01
aI00
aI00
aI00
aI00
aI00
aI00
aI00
aI00
aI00
aI00
aI00
aI00
aI00
aI00
aI00
aI00
aI00
aI01
aI01
aI01
aI00
aI01
aI01
aI01
aI01
aI00
aI01
aI01
aI01
asg12
(istate
Node
p49
(dp50
g7
S'0100011000100000000000000000111011110111'
p51
sg9
I0
sg10
(lp52
I00
aI01
aI00
aI00
aI00
aI01
aI01
aI00
aI00
aI00
aI01
aI00
aI00
aI00
aI00
aI00
aI00
aI00
aI00
aI00
aI00
aI00
aI00
aI00
aI00
aI00
aI00
aI00
aI01
aI01
aI01
aI00
aI01
aI01
aI01
aI01
aI00
aI01
aI01
aI01
asg12
NsS'action'
p53
NsS'pos'
p54
I-1
sbsg53
I01
sg54
I1
sbsg53
I01
sg54
I5
sbsg53
I01
sg54
I6
sbsg53
I01
sg54
I10
sbsg53
I01
sg54
I28
sbsg53
I01
sg54
I29
sbsg53
I01
sg54
I32
sbsg53
I01
sg54
I33
sbsg53
I01
sg54
I37
sbsg53
I01
sg54
I38
sba(lp55
I1
aI5
aI6
aI10
aI28
aI29
aI32
aI33
aI37
aI38
aaI14
aI92
aI16384
aS'N/A'
p56
aaa(lp57
(lp58
I01
aI00
aI00
aI00
aI01
aI01
aI00
aI00
aI00
aI01
aI00
aI00
aI01
aI00
aI00
aI00
aI01
aI01
aI01
aI00
aI00
aI01
aI01
aI01
aI00
aI00
aI00
aI01
aI00
aI00
aI00
aI01
aI01
aI00
aI00
aI00
aI01
aI00
aI00
aI00
aa(lp59
(lp60
I01
aI00
aI00
aI00
aI01
aI01
aI00
aI00
aI00
aI01
aI00
aI00
aI01
aI00
aI00
aI00
aI01
aI01
aI01
aI00
aI00
aI01
aI01
aI01
aI00
aI00
aI00
aI01
aI00
aI00
aI00
aI01
aI01
aI00
aI00
aI00
aI01
aI00
aI00
aI00
aa(istate
Node
p61
(dp62
g7
S'0000000000000000000000000001000110001000'
p63
sg9
I11
sg10
(lp64
I00
aI00
aI00
aI00
aI00
aI00
aI00
aI00
aI00
aI00
aI00
aI00
aI00
aI00
aI00
aI00
aI00
aI00
aI00
aI00
aI00
aI00
aI00
aI00
aI00
aI00
aI00
aI01
aI00
aI00
aI00
aI01
aI01
aI00
aI00
aI00
aI01
aI00
aI00
aI00
asg12
(istate
Node
p65
(dp66
g7
S'0000000000000000000000010001000110001000'
p67
sg9
I10
sg10
(lp68
I00
aI00
aI00
aI00
aI00
aI00
aI00
aI00
aI00
aI00
aI00
aI00
aI00
aI00
aI00
aI00
aI00
aI00
aI00
aI00
aI00
aI00
aI00
aI01
aI00
aI00
aI00
aI01
aI00
aI00
aI00
aI01
aI01
aI00
aI00
aI00
aI01
aI00
aI00
aI00
asg12
(istate
Node
p69
(dp70
g7
S'0000000000000000000000110001000110001000'
p71
sg9
I9
sg10
(lp72
I00
aI00
aI00
aI00
aI00
aI00
aI00
aI00
aI00
aI00
aI00
aI00
aI00
aI00
aI00
aI00
aI00
aI00
aI00
aI00
aI00
aI00
aI01
aI01
aI00
aI00
aI00
aI01
aI00
aI00
aI00
aI01
aI01
aI00
aI00
aI00
aI01
aI00
aI00
aI00
asg12
(istate
Node
p73
(dp74
g7
S'0000000000000000000001110001000110001000'
p75
sg9
I8
sg10
(lp76
I00
aI00
aI00
aI00
aI00
aI00
aI00
aI00
aI00
aI00
aI00
aI00
aI00
aI00
aI00
aI00
aI00
aI00
aI00
aI00
aI00
aI01
aI01
aI01
aI00
aI00
aI00
aI01
aI00
aI00
aI00
aI01
aI01
aI00
aI00
aI00
aI01
aI00
aI00
aI00
asg12
(istate
Node
p77
(dp78
g7
S'0000000000000000001001110001000110001000'
p79
sg9
I7
sg10
(lp80
I00
aI00
aI00
aI00
aI00
aI00
aI00
aI00
aI00
aI00
aI00
aI00
aI00
aI00
aI00
aI00
aI00
aI00
aI01
aI00
aI00
aI01
aI01
aI01
aI00
aI00
aI00
aI01
aI00
aI00
aI00
aI01
aI01
aI00
aI00
aI00
aI01
aI00
aI00
aI00
asg12
(istate
Node
p81
(dp82
g7
S'0000000000000000011001110001000110001000'
p83
sg9
I6
sg10
(lp84
I00
aI00
aI00
aI00
aI00
aI00
aI00
aI00
aI00
aI00
aI00
aI00
aI00
aI00
aI00
aI00
aI00
aI01
aI01
aI00
aI00
aI01
aI01
aI01
aI00
aI00
aI00
aI01
aI00
aI00
aI00
aI01
aI01
aI00
aI00
aI00
aI01
aI00
aI00
aI00
asg12
(istate
Node
p85
(dp86
g7
S'0000000000000000111001110001000110001000'
p87
sg9
I5
sg10
(lp88
I00
aI00
aI00
aI00
aI00
aI00
aI00
aI00
aI00
aI00
aI00
aI00
aI00
aI00
aI00
aI00
aI01
aI01
aI01
aI00
aI00
aI01
aI01
aI01
aI00
aI00
aI00
aI01
aI00
aI00
aI00
aI01
aI01
aI00
aI00
aI00
aI01
aI00
aI00
aI00
asg12
(istate
Node
p89
(dp90
g7
S'0000000000001000111001110001000110001000'
p91
sg9
I4
sg10
(lp92
I00
aI00
aI00
aI00
aI00
aI00
aI00
aI00
aI00
aI00
aI00
aI00
aI01
aI00
aI00
aI00
aI01
aI01
aI01
aI00
aI00
aI01
aI01
aI01
aI00
aI00
aI00
aI01
aI00
aI00
aI00
aI01
aI01
aI00
aI00
aI00
aI01
aI00
aI00
aI00
asg12
(istate
Node
p93
(dp94
g7
S'0000000001001000111001110001000110001000'
p95
sg9
I3
sg10
(lp96
I00
aI00
aI00
aI00
aI00
aI00
aI00
aI00
aI00
aI01
aI00
aI00
aI01
aI00
aI00
aI00
aI01
aI01
aI01
aI00
aI00
aI01
aI01
aI01
aI00
aI00
aI00
aI01
aI00
aI00
aI00
aI01
aI01
aI00
aI00
aI00
aI01
aI00
aI00
aI00
asg12
(istate
Node
p97
(dp98
g7
S'0000010001001000111001110001000110001000'
p99
sg9
I2
sg10
(lp100
I00
aI00
aI00
aI00
aI00
aI01
aI00
aI00
aI00
aI01
aI00
aI00
aI01
aI00
aI00
aI00
aI01
aI01
aI01
aI00
aI00
aI01
aI01
aI01
aI00
aI00
aI00
aI01
aI00
aI00
aI00
aI01
aI01
aI00
aI00
aI00
aI01
aI00
aI00
aI00
asg12
(istate
Node
p101
(dp102
g7
S'0000110001001000111001110001000110001000'
p103
sg9
I1
sg10
(lp104
I00
aI00
aI00
aI00
aI01
aI01
aI00
aI00
aI00
aI01
aI00
aI00
aI01
aI00
aI00
aI00
aI01
aI01
aI01
aI00
aI00
aI01
aI01
aI01
aI00
aI00
aI00
aI01
aI00
aI00
aI00
aI01
aI01
aI00
aI00
aI00
aI01
aI00
aI00
aI00
asg12
(istate
Node
p105
(dp106
g7
S'1000110001001000111001110001000110001000'
p107
sg9
I0
sg10
(lp108
I01
aI00
aI00
aI00
aI01
aI01
aI00
aI00
aI00
aI01
aI00
aI00
aI01
aI00
aI00
aI00
aI01
aI01
aI01
aI00
aI00
aI01
aI01
aI01
aI00
aI00
aI00
aI01
aI00
aI00
aI00
aI01
aI01
aI00
aI00
aI00
aI01
aI00
aI00
aI00
asg12
Nsg53
Nsg54
I-1
sbsg53
I01
sg54
I0
sbsg53
I01
sg54
I4
sbsg53
I01
sg54
I5
sbsg53
I01
sg54
I9
sbsg53
I01
sg54
I12
sbsg53
I01
sg54
I16
sbsg53
I01
sg54
I17
sbsg53
I01
sg54
I18
sbsg53
I01
sg54
I21
sbsg53
I01
sg54
I22
sbsg53
I01
sg54
I23
sba(lp109
I0
aI4
aI5
aI9
aI12
aI16
aI17
aI18
aI21
aI22
aI23
aaI11
aI100
aI2048
ag56
aaa(lp110
(lp111
I00
aI01
aI00
aI00
aI00
aI01
aI01
aI00
aI00
aI01
aI01
aI00
aI00
aI01
aI01
aI00
aI00
aI00
aI01
aI00
aI00
aI01
aI00
aI00
aI00
aI01
aI01
aI00
aI01
aI00
aI01
aI00
aI01
aI01
aI00
aI00
aI00
aI01
aI00
aI00
aa(lp112
(lp113
I00
aI01
aI00
aI00
aI00
aI01
aI01
aI00
aI00
aI01
aI01
aI00
aI00
aI01
aI01
aI00
aI00
aI00
aI01
aI00
aI00
aI01
aI00
aI00
aI00
aI01
aI01
aI00
aI01
aI00
aI01
aI00
aI01
aI01
aI00
aI00
aI00
aI01
aI00
aI00
aa(istate
Node
p114
(dp115
g7
S'0000000000000000000000000000100011000100'
p116
sg9
I12
sg10
(lp117
I00
aI00
aI00
aI00
aI00
aI00
aI00
aI00
aI00
aI00
aI00
aI00
aI00
aI00
aI00
aI00
aI00
aI00
aI00
aI00
aI00
aI00
aI00
aI00
aI00
aI00
aI00
aI00
aI01
aI00
aI00
aI00
aI01
aI01
aI00
aI00
aI00
aI01
aI00
aI00
asg12
(istate
Node
p118
(dp119
g7
S'0000000000000000000000000000101011000100'
p120
sg9
I11
sg10
(lp121
I00
aI00
aI00
aI00
aI00
aI00
aI00
aI00
aI00
aI00
aI00
aI00
aI00
aI00
aI00
aI00
aI00
aI00
aI00
aI00
aI00
aI00
aI00
aI00
aI00
aI00
aI00
aI00
aI01
aI00
aI01
aI00
aI01
aI01
aI00
aI00
aI00
aI01
aI00
aI00
asg12
(istate
Node
p122
(dp123
g7
S'0000000000000000000000000010101011000100'
p124
sg9
I10
sg10
(lp125
I00
aI00
aI00
aI00
aI00
aI00
aI00
aI00
aI00
aI00
aI00
aI00
aI00
aI00
aI00
aI00
aI00
aI00
aI00
aI00
aI00
aI00
aI00
aI00
aI00
aI00
aI01
aI00
aI01
aI00
aI01
aI00
aI01
aI01
aI00
aI00
aI00
aI01
aI00
aI00
asg12
(istate
Node
p126
(dp127
g7
S'0000000000000000000000000110101011000100'
p128
sg9
I9
sg10
(lp129
I00
aI00
aI00
aI00
aI00
aI00
aI00
aI00
aI00
aI00
aI00
aI00
aI00
aI00
aI00
aI00
aI00
aI00
aI00
aI00
aI00
aI00
aI00
aI00
aI00
aI01
aI01
aI00
aI01
aI00
aI01
aI00
aI01
aI01
aI00
aI00
aI00
aI01
aI00
aI00
asg12
(istate
Node
p130
(dp131
g7
S'0000000000000000000001000110101011000100'
p132
sg9
I8
sg10
(lp133
I00
aI00
aI00
aI00
aI00
aI00
aI00
aI00
aI00
aI00
aI00
aI00
aI00
aI00
aI00
aI00
aI00
aI00
aI00
aI00
aI00
aI01
aI00
aI00
aI00
aI01
aI01
aI00
aI01
aI00
aI01
aI00
aI01
aI01
aI00
aI00
aI00
aI01
aI00
aI00
asg12
(istate
Node
p134
(dp135
g7
S'0000000000000000001001000110101011000100'
p136
sg9
I7
sg10
(lp137
I00
aI00
aI00
aI00
aI00
aI00
aI00
aI00
aI00
aI00
aI00
aI00
aI00
aI00
aI00
aI00
aI00
aI00
aI01
aI00
aI00
aI01
aI00
aI00
aI00
aI01
aI01
aI00
aI01
aI00
aI01
aI00
aI01
aI01
aI00
aI00
aI00
aI01
aI00
aI00
asg12
(istate
Node
p138
(dp139
g7
S'0000000000000010001001000110101011000100'
p140
sg9
I6
sg10
(lp141
I00
aI00
aI00
aI00
aI00
aI00
aI00
aI00
aI00
aI00
aI00
aI00
aI00
aI00
aI01
aI00
aI00
aI00
aI01
aI00
aI00
aI01
aI00
aI00
aI00
aI01
aI01
aI00
aI01
aI00
aI01
aI00
aI01
aI01
aI00
aI00
aI00
aI01
aI00
aI00
asg12
(istate
Node
p142
(dp143
g7
S'0000000000000110001001000110101011000100'
p144
sg9
I5
sg10
(lp145
I00
aI00
aI00
aI00
aI00
aI00
aI00
aI00
aI00
aI00
aI00
aI00
aI00
aI01
aI01
aI00
aI00
aI00
aI01
aI00
aI00
aI01
aI00
aI00
aI00
aI01
aI01
aI00
aI01
aI00
aI01
aI00
aI01
aI01
aI00
aI00
aI00
aI01
aI00
aI00
asg12
(istate
Node
p146
(dp147
g7
S'0000000000100110001001000110101011000100'
p148
sg9
I4
sg10
(lp149
I00
aI00
aI00
aI00
aI00
aI00
aI00
aI00
aI00
aI00
aI01
aI00
aI00
aI01
aI01
aI00
aI00
aI00
aI01
aI00
aI00
aI01
aI00
aI00
aI00
aI01
aI01
aI00
aI01
aI00
aI01
aI00
aI01
aI01
aI00
aI00
aI00
aI01
aI00
aI00
asg12
(istate
Node
p150
(dp151
g7
S'0000000001100110001001000110101011000100'
p152
sg9
I3
sg10
(lp153
I00
aI00
aI00
aI00
aI00
aI00
aI00
aI00
aI00
aI01
aI01
aI00
aI00
aI01
aI01
aI00
aI00
aI00
aI01
aI00
aI00
aI01
aI00
aI00
aI00
aI01
aI01
aI00
aI01
aI00
aI01
aI00
aI01
aI01
aI00
aI00
aI00
aI01
aI00
aI00
asg12
(istate
Node
p154
(dp155
g7
S'0000001001100110001001000110101011000100'
p156
sg9
I2
sg10
(lp157
I00
aI00
aI00
aI00
aI00
aI00
aI01
aI00
aI00
aI01
aI01
aI00
aI00
aI01
aI01
aI00
aI00
aI00
aI01
aI00
aI00
aI01
aI00
aI00
aI00
aI01
aI01
aI00
aI01
aI00
aI01
aI00
aI01
aI01
aI00
aI00
aI00
aI01
aI00
aI00
asg12
(istate
Node
p158
(dp159
g7
S'0000011001100110001001000110101011000100'
p160
sg9
I1
sg10
(lp161
I00
aI00
aI00
aI00
aI00
aI01
aI01
aI00
aI00
aI01
aI01
aI00
aI00
aI01
aI01
aI00
aI00
aI00
aI01
aI00
aI00
aI01
aI00
aI00
aI00
aI01
aI01
aI00
aI01
aI00
aI01
aI00
aI01
aI01
aI00
aI00
aI00
aI01
aI00
aI00
asg12
(istate
Node
p162
(dp163
g7
S'0100011001100110001001000110101011000100'
p164
sg9
I0
sg10
(lp165
I00
aI01
aI00
aI00
aI00
aI01
aI01
aI00
aI00
aI01
aI01
aI00
aI00
aI01
aI01
aI00
aI00
aI00
aI01
aI00
aI00
aI01
aI00
aI00
aI00
aI01
aI01
aI00
aI01
aI00
aI01
aI00
aI01
aI01
aI00
aI00
aI00
aI01
aI00
aI00
asg12
Nsg53
Nsg54
I-1
sbsg53
I01
sg54
I1
sbsg53
I01
sg54
I5
sbsg53
I01
sg54
I6
sbsg53
I01
sg54
I9
sbsg53
I01
sg54
I10
sbsg53
I01
sg54
I13
sbsg53
I01
sg54
I14
sbsg53
I01
sg54
I18
sbsg53
I01
sg54
I21
sbsg53
I01
sg54
I25
sbsg53
I01
sg54
I26
sbsg53
I01
sg54
I30
sba(lp166
I1
aI5
aI6
aI9
aI10
aI13
aI14
aI18
aI21
aI25
aI26
aI30
aaI16
aI121
aI65536
ag56
aaa(lp167
(lp168
I01
aI00
aI00
aI00
aI01
aI01
aI00
aI00
aI00
aI01
aI00
aI00
aI01
aI01
aI01
aI00
aI01
aI01
aI01
aI00
aI00
aI01
aI00
aI00
aI00
aI00
aI00
aI00
aI00
aI01
aI00
aI00
aI00
aI01
aI01
aI00
aI00
aI00
aI01
aI00
aa(lp169
(lp170
I01
aI00
aI00
aI00
aI01
aI01
aI00
aI00
aI00
aI01
aI00
aI00
aI01
aI01
aI01
aI00
aI01
aI01
aI01
aI00
aI00
aI01
aI00
aI00
aI00
aI00
aI00
aI00
aI00
aI01
aI00
aI00
aI00
aI01
aI01
aI00
aI00
aI00
aI01
aI00
aa(istate
Node
p171
(dp172
g7
S'0000000000000000000000000000010001100010'
p173
sg9
I11
sg10
(lp174
I00
aI00
aI00
aI00
aI00
aI00
aI00
aI00
aI00
aI00
aI00
aI00
aI00
aI00
aI00
aI00
aI00
aI00
aI00
aI00
aI00
aI00
aI00
aI00
aI00
aI00
aI00
aI00
aI00
aI01
aI00
aI00
aI00
aI01
aI01
aI00
aI00
aI00
aI01
aI00
asg12
(istate
Node
p175
(dp176
g7
S'0000000000000000000001000000010001100010'
p177
sg9
I10
sg10
(lp178
I00
aI00
aI00
aI00
aI00
aI00
aI00
aI00
aI00
aI00
aI00
aI00
aI00
aI00
aI00
aI00
aI00
aI00
aI00
aI00
aI00
aI01
aI00
aI00
aI00
aI00
aI00
aI00
aI00
aI01
aI00
aI00
aI00
aI01
aI01
aI00
aI00
aI00
aI01
aI00
asg12
(istate
Node
p179
(dp180
g7
S'0000000000000000001001000000010001100010'
p181
sg9
I9
sg10
(lp182
I00
aI00
aI00
aI00
aI00
aI00
aI00
aI00
aI00
aI00
aI00
aI00
aI00
aI00
aI00
aI00
aI00
aI00
aI01
aI00
aI00
aI01
aI00
aI00
aI00
aI00
aI00
aI00
aI00
aI01
aI00
aI00
aI00
aI01
aI01
aI00
aI00
aI00
aI01
aI00
asg12
(istate
Node
p183
(dp184
g7
S'0000000000000000011001000000010001100010'
p185
sg9
I8
sg10
(lp186
I00
aI00
aI00
aI00
aI00
aI00
aI00
aI00
aI00
aI00
aI00
aI00
aI00
aI00
aI00
aI00
aI00
aI01
aI01
aI00
aI00
aI01
aI00
aI00
aI00
aI00
aI00
aI00
aI00
aI01
aI00
aI00
aI00
aI01
aI01
aI00
aI00
aI00
aI01
aI00
asg12
(istate
Node
p187
(dp188
g7
S'0000000000000000111001000000010001100010'
p189
sg9
I7
sg10
(lp190
I00
aI00
aI00
aI00
aI00
aI00
aI00
aI00
aI00
aI00
aI00
aI00
aI00
aI00
aI00
aI00
aI01
aI01
aI01
aI00
aI00
aI01
aI00
aI00
aI00
aI00
aI00
aI00
aI00
aI01
aI00
aI00
aI00
aI01
aI01
aI00
aI00
aI00
aI01
aI00
asg12
(istate
Node
p191
(dp192
g7
S'0000000000000010111001000000010001100010'
p193
sg9
I6
sg10
(lp194
I00
aI00
aI00
aI00
aI00
aI00
aI00
aI00
aI00
aI00
aI00
aI00
aI00
aI00
aI01
aI00
aI01
aI01
aI01
aI00
aI00
aI01
aI00
aI00
aI00
aI00
aI00
aI00
aI00
aI01
aI00
aI00
aI00
aI01
aI01
aI00
aI00
aI00
aI01
aI00
asg12
(istate
Node
p195
(dp196
g7
S'0000000000000110111001000000010001100010'
p197
sg9
I5
sg10
(lp198
I00
aI00
aI00
aI00
aI00
aI00
aI00
aI00
aI00
aI00
aI00
aI00
aI00
aI01
aI01
aI00
aI01
aI01
aI01
aI00
aI00
aI01
aI00
aI00
aI00
aI00
aI00
aI00
aI00
aI01
aI00
aI00
aI00
aI01
aI01
aI00
aI00
aI00
aI01
aI00
asg12
(istate
Node
p199
(dp200
g7
S'0000000000001110111001000000010001100010'
p201
sg9
I4
sg10
(lp202
I00
aI00
aI00
aI00
aI00
aI00
aI00
aI00
aI00
aI00
aI00
aI00
aI01
aI01
aI01
aI00
aI01
aI01
aI01
aI00
aI00
aI01
aI00
aI00
aI00
aI00
aI00
aI00
aI00
aI01
aI00
aI00
aI00
aI01
aI01
aI00
aI00
aI00
aI01
aI00
asg12
(istate
Node
p203
(dp204
g7
S'0000000001001110111001000000010001100010'
p205
sg9
I3
sg10
(lp206
I00
aI00
aI00
aI00
aI00
aI00
aI00
aI00
aI00
aI01
aI00
aI00
aI01
aI01
aI01
aI00
aI01
aI01
aI01
aI00
aI00
aI01
aI00
aI00
aI00
aI00
aI00
aI00
aI00
aI01
aI00
aI00
aI00
aI01
aI01
aI00
aI00
aI00
aI01
aI00
asg12
(istate
Node
p207
(dp208
g7
S'0000010001001110111001000000010001100010'
p209
sg9
I2
sg10
(lp210
I00
aI00
aI00
aI00
aI00
aI01
aI00
aI00
aI00
aI01
aI00
aI00
aI01
aI01
aI01
aI00
aI01
aI01
aI01
aI00
aI00
aI01
aI00
aI00
aI00
aI00
aI00
aI00
aI00
aI01
aI00
aI00
aI00
aI01
aI01
aI00
aI00
aI00
aI01
aI00
asg12
(istate
Node
p211
(dp212
g7
S'0000110001001110111001000000010001100010'
p213
sg9
I1
sg10
(lp214
I00
aI00
aI00
aI00
aI01
aI01
aI00
aI00
aI00
aI01
aI00
aI00
aI01
aI01
aI01
aI00
aI01
aI01
aI01
aI00
aI00
aI01
aI00
aI00
aI00
aI00
aI00
aI00
aI00
aI01
aI00
aI00
aI00
aI01
aI01
aI00
aI00
aI00
aI01
aI00
asg12
(istate
Node
p215
(dp216
g7
S'1000110001001110111001000000010001100010'
p217
sg9
I0
sg10
(lp218
I01
aI00
aI00
aI00
aI01
aI01
aI00
aI00
aI00
aI01
aI00
aI00
aI01
aI01
aI01
aI00
aI01
aI01
aI01
aI00
aI00
aI01
aI00
aI00
aI00
aI00
aI00
aI00
aI00
aI01
aI00
aI00
aI00
aI01
aI01
aI00
aI00
aI00
aI01
aI00
asg12
Nsg53
Nsg54
I-1
sbsg53
I01
sg54
I0
sbsg53
I01
sg54
I4
sbsg53
I01
sg54
I5
sbsg53
I01
sg54
I9
sbsg53
I01
sg54
I12
sbsg53
I01
sg54
I13
sbsg53
I01
sg54
I14
sbsg53
I01
sg54
I16
sbsg53
I01
sg54
I17
sbsg53
I01
sg54
I18
sbsg53
I01
sg54
I21
sba(lp219
I0
aI4
aI5
aI9
aI12
aI13
aI14
aI16
aI17
aI18
aI21
aaI11
aI100
aI2048
ag56
aaa(lp220
(lp221
I00
aI00
aI00
aI00
aI00
aI00
aI00
aI00
aI00
aI01
aI00
aI01
aI00
aI01
aI01
aI01
aI01
aI00
aI01
aI00
aI01
aI00
aI01
aI01
aI00
aI00
aI00
aI01
aI00
aI00
aI00
aI01
aI01
aI00
aI00
aI00
aI01
aI00
aI00
aI00
aa(lp222
(lp223
I00
aI00
aI00
aI00
aI00
aI00
aI00
aI00
aI00
aI01
aI00
aI01
aI00
aI01
aI01
aI01
aI01
aI00
aI01
aI00
aI01
aI00
aI01
aI01
aI00
aI00
aI00
aI01
aI00
aI00
aI00
aI01
aI01
aI00
aI00
aI00
aI01
aI00
aI00
aI00
aa(istate
Node
p224
(dp225
g7
S'0000000000000000000000000001000110001000'
p226
sg9
I10
sg10
(lp227
I00
aI00
aI00
aI00
aI00
aI00
aI00
aI00
aI00
aI00
aI00
aI00
aI00
aI00
aI00
aI00
aI00
aI00
aI00
aI00
aI00
aI00
aI00
aI00
aI00
aI00
aI00
aI01
aI00
aI00
aI00
aI01
aI01
aI00
aI00
aI00
aI01
aI00
aI00
aI00
asg12
(istate
Node
p228
(dp229
g7
S'0000000000000000000000010001000110001000'
p230
sg9
I9
sg10
(lp231
I00
aI00
aI00
aI00
aI00
aI00
aI00
aI00
aI00
aI00
aI00
aI00
aI00
aI00
aI00
aI00
aI00
aI00
aI00
aI00
aI00
aI00
aI00
aI01
aI00
aI00
aI00
aI01
aI00
aI00
aI00
aI01
aI01
aI00
aI00
aI00
aI01
aI00
aI00
aI00
asg12
(istate
Node
p232
(dp233
g7
S'0000000000000000000000110001000110001000'
p234
sg9
I8
sg10
(lp235
I00
aI00
aI00
aI00
aI00
aI00
aI00
aI00
aI00
aI00
aI00
aI00
aI00
aI00
aI00
aI00
aI00
aI00
aI00
aI00
aI00
aI00
aI01
aI01
aI00
aI00
aI00
aI01
aI00
aI00
aI00
aI01
aI01
aI00
aI00
aI00
aI01
aI00
aI00
aI00
asg12
(istate
Node
p236
(dp237
g7
S'0000000000000000000010110001000110001000'
p238
sg9
I7
sg10
(lp239
I00
aI00
aI00
aI00
aI00
aI00
aI00
aI00
aI00
aI00
aI00
aI00
aI00
aI00
aI00
aI00
aI00
aI00
aI00
aI00
aI01
aI00
aI01
aI01
aI00
aI00
aI00
aI01
aI00
aI00
aI00
aI01
aI01
aI00
aI00
aI00
aI01
aI00
aI00
aI00
asg12
(istate
Node
p240
(dp241
g7
S'0000000000000000001010110001000110001000'
p242
sg9
I6
sg10
(lp243
I00
aI00
aI00
aI00
aI00
aI00
aI00
aI00
aI00
aI00
aI00
aI00
aI00
aI00
aI00
aI00
aI00
aI00
aI01
aI00
aI01
aI00
aI01
aI01
aI00
aI00
aI00
aI01
aI00
aI00
aI00
aI01
aI01
aI00
aI00
aI00
aI01
aI00
aI00
aI00
asg12
(istate
Node
p244
(dp245
g7
S'0000000000000000101010110001000110001000'
p246
sg9
I5
sg10
(lp247
I00
aI00
aI00
aI00
aI00
aI00
aI00
aI00
aI00
aI00
aI00
aI00
aI00
aI00
aI00
aI00
aI01
aI00
aI01
aI00
aI01
aI00
aI01
aI01
aI00
aI00
aI00
aI01
aI00
aI00
aI00
aI01
aI01
aI00
aI00
aI00
aI01
aI00
aI00
aI00
asg12
(istate
Node
p248
(dp249
g7
S'0000000000000001101010110001000110001000'
p250
sg9
I4
sg10
(lp251
I00
aI00
aI00
aI00
aI00
aI00
aI00
aI00
aI00
aI00
aI00
aI00
aI00
aI00
aI00
aI01
aI01
aI00
aI01
aI00
aI01
aI00
aI01
aI01
aI00
aI00
aI00
aI01
aI00
aI00
aI00
aI01
aI01
aI00
aI00
aI00
aI01
aI00
aI00
aI00
asg12
(istate
Node
p252
(dp253
g7
S'0000000000000011101010110001000110001000'
p254
sg9
I3
sg10
(lp255
I00
aI00
aI00
aI00
aI00
aI00
aI00
aI00
aI00
aI00
aI00
aI00
aI00
aI00
aI01
aI01
aI01
aI00
aI01
aI00
aI01
aI00
aI01
aI01
aI00
aI00
aI00
aI01
aI00
aI00
aI00
aI01
aI01
aI00
aI00
aI00
aI01
aI00
aI00
aI00
asg12
(istate
Node
p256
(dp257
g7
S'0000000000000111101010110001000110001000'
p258
sg9
I2
sg10
(lp259
I00
aI00
aI00
aI00
aI00
aI00
aI00
aI00
aI00
aI00
aI00
aI00
aI00
aI01
aI01
aI01
aI01
aI00
aI01
aI00
aI01
aI00
aI01
aI01
aI00
aI00
aI00
aI01
aI00
aI00
aI00
aI01
aI01
aI00
aI00
aI00
aI01
aI00
aI00
aI00
asg12
(istate
Node
p260
(dp261
g7
S'0000000000010111101010110001000110001000'
p262
sg9
I1
sg10
(lp263
I00
aI00
aI00
aI00
aI00
aI00
aI00
aI00
aI00
aI00
aI00
aI01
aI00
aI01
aI01
aI01
aI01
aI00
aI01
aI00
aI01
aI00
aI01
aI01
aI00
aI00
aI00
aI01
aI00
aI00
aI00
aI01
aI01
aI00
aI00
aI00
aI01
aI00
aI00
aI00
asg12
(istate
Node
p264
(dp265
g7
S'0000000001010111101010110001000110001000'
p266
sg9
I0
sg10
(lp267
I00
aI00
aI00
aI00
aI00
aI00
aI00
aI00
aI00
aI01
aI00
aI01
aI00
aI01
aI01
aI01
aI01
aI00
aI01
aI00
aI01
aI00
aI01
aI01
aI00
aI00
aI00
aI01
aI00
aI00
aI00
aI01
aI01
aI00
aI00
aI00
aI01
aI00
aI00
aI00
asg12
Nsg53
Nsg54
I-1
sbsg53
I01
sg54
I9
sbsg53
I01
sg54
I11
sbsg53
I01
sg54
I13
sbsg53
I01
sg54
I14
sbsg53
I01
sg54
I15
sbsg53
I01
sg54
I16
sbsg53
I01
sg54
I18
sbsg53
I01
sg54
I20
sbsg53
I01
sg54
I22
sbsg53
I01
sg54
I23
sba(lp268
I9
aI11
aI13
aI14
aI15
aI16
aI18
aI20
aI22
aI23
aaI10
aI86
aI1024
ag56
aaa(lp269
(lp270
I00
aI00
aI00
aI00
aI00
aI00
aI00
aI00
aI00
aI00
aI00
aI00
aI01
aI00
aI00
aI00
aI01
aI01
aI00
aI01
aI00
aI01
aI00
aI01
aI01
aI00
aI00
aI01
aI01
aI00
aI01
aI01
aI01
aI00
aI01
aI01
aI01
aI00
aI00
aI01
aa(lp271
(lp272
I00
aI00
aI00
aI00
aI00
aI00
aI00
aI00
aI00
aI00
aI00
aI00
aI01
aI00
aI00
aI00
aI01
aI01
aI00
aI01
aI00
aI01
aI00
aI01
aI01
aI00
aI00
aI01
aI01
aI00
aI01
aI01
aI01
aI00
aI01
aI01
aI01
aI00
aI00
aI01
aa(istate
Node
p273
(dp274
g7
S'0000000000000000000000000000001000110001'
p275
sg9
I12
sg10
(lp276
I00
aI00
aI00
aI00
aI00
aI00
aI00
aI00
aI00
aI00
aI00
aI00
aI00
aI00
aI00
aI00
aI00
aI00
aI00
aI00
aI00
aI00
aI00
aI00
aI00
aI00
aI00
aI00
aI00
aI00
aI01
aI00
aI00
aI00
aI01
aI01
aI00
aI00
aI00
aI01
asg12
(istate
Node
p277
(dp278
g7
S'0000000000000000000000000000001000111001'
p279
sg9
I11
sg10
(lp280
I00
aI00
aI00
aI00
aI00
aI00
aI00
aI00
aI00
aI00
aI00
aI00
aI00
aI00
aI00
aI00
aI00
aI00
aI00
aI00
aI00
aI00
aI00
aI00
aI00
aI00
aI00
aI00
aI00
aI00
aI01
aI00
aI00
aI00
aI01
aI01
aI01
aI00
aI00
aI01
asg12
(istate
Node
p281
(dp282
g7
S'0000000000000000000000000000001010111001'
p283
sg9
I10
sg10
(lp284
I00
aI00
aI00
aI00
aI00
aI00
aI00
aI00
aI00
aI00
aI00
aI00
aI00
aI00
aI00
aI00
aI00
aI00
aI00
aI00
aI00
aI00
aI00
aI00
aI00
aI00
aI00
aI00
aI00
aI00
aI01
aI00
aI01
aI00
aI01
aI01
aI01
aI00
aI00
aI01
asg12
(istate
Node
p285
(dp286
g7
S'0000000000000000000000000000001110111001'
p287
sg9
I9
sg10
(lp288
I00
aI00
aI00
aI00
aI00
aI00
aI00
aI00
aI00
aI00
aI00
aI00
aI00
aI00
aI00
aI00
aI00
aI00
aI00
aI00
aI00
aI00
aI00
aI00
aI00
aI00
aI00
aI00
aI00
aI00
aI01
aI01
aI01
aI00
aI01
aI01
aI01
aI00
aI00
aI01
asg12
(istate
Node
p289
(dp290
g7
S'0000000000000000000000000000101110111001'
p291
sg9
I8
sg10
(lp292
I00
aI00
aI00
aI00
aI00
aI00
aI00
aI00
aI00
aI00
aI00
aI00
aI00
aI00
aI00
aI00
aI00
aI00
aI00
aI00
aI00
aI00
aI00
aI00
aI00
aI00
aI00
aI00
aI01
aI00
aI01
aI01
aI01
aI00
aI01
aI01
aI01
aI00
aI00
aI01
asg12
(istate
Node
p293
(dp294
g7
S'0000000000000000000000000001101110111001'
p295
sg9
I7
sg10
(lp296
I00
aI00
aI00
aI00
aI00
aI00
aI00
aI00
aI00
aI00
aI00
aI00
aI00
aI00
aI00
aI00
aI00
aI00
aI00
aI00
aI00
aI00
aI00
aI00
aI00
aI00
aI00
aI01
aI01
aI00
aI01
aI01
aI01
aI00
aI01
aI01
aI01
aI00
aI00
aI01
asg12
(istate
Node
p297
(dp298
g7
S'0000000000000000000000001001101110111001'
p299
sg9
I6
sg10
(lp300
I00
aI00
aI00
aI00
aI00
aI00
aI00
aI00
aI00
aI00
aI00
aI00
aI00
aI00
aI00
aI00
aI00
aI00
aI00
aI00
aI00
aI00
aI00
aI00
aI01
aI00
aI00
aI01
aI01
aI00
aI01
aI01
aI01
aI00
aI01
aI01
aI01
aI00
aI00
aI01
asg12
(istate
Node
p301
(dp302
g7
S'0000000000000000000000011001101110111001'
p303
sg9
I5
sg10
(lp304
I00
aI00
aI00
aI00
aI00
aI00
aI00
aI00
aI00
aI00
aI00
aI00
aI00
aI00
aI00
aI00
aI00
aI00
aI00
aI00
aI00
aI00
aI00
aI01
aI01
aI00
aI00
aI01
aI01
aI00
aI01
aI01
aI01
aI00
aI01
aI01
aI01
aI00
aI00
aI01
asg12
(istate
Node
p305
(dp306
g7
S'0000000000000000000001011001101110111001'
p307
sg9
I4
sg10
(lp308
I00
aI00
aI00
aI00
aI00
aI00
aI00
aI00
aI00
aI00
aI00
aI00
aI00
aI00
aI00
aI00
aI00
aI00
aI00
aI00
aI00
aI01
aI00
aI01
aI01
aI00
aI00
aI01
aI01
aI00
aI01
aI01
aI01
aI00
aI01
aI01
aI01
aI00
aI00
aI01
asg12
(istate
Node
p309
(dp310
g7
S'0000000000000000000101011001101110111001'
p311
sg9
I3
sg10
(lp312
I00
aI00
aI00
aI00
aI00
aI00
aI00
aI00
aI00
aI00
aI00
aI00
aI00
aI00
aI00
aI00
aI00
aI00
aI00
aI01
aI00
aI01
aI00
aI01
aI01
aI00
aI00
aI01
aI01
aI00
aI01
aI01
aI01
aI00
aI01
aI01
aI01
aI00
aI00
aI01
asg12
(istate
Node
p313
(dp314
g7
S'0000000000000000010101011001101110111001'
p315
sg9
I2
sg10
(lp316
I00
aI00
aI00
aI00
aI00
aI00
aI00
aI00
aI00
aI00
aI00
aI00
aI00
aI00
aI00
aI00
aI00
aI01
aI00
aI01
aI00
aI01
aI00
aI01
aI01
aI00
aI00
aI01
aI01
aI00
aI01
aI01
aI01
aI00
aI01
aI01
aI01
aI00
aI00
aI01
asg12
(istate
Node
p317
(dp318
g7
S'0000000000000000110101011001101110111001'
p319
sg9
I1
sg10
(lp320
I00
aI00
aI00
aI00
aI00
aI00
aI00
aI00
aI00
aI00
aI00
aI00
aI00
aI00
aI00
aI00
aI01
aI01
aI00
aI01
aI00
aI01
aI00
aI01
aI01
aI00
aI00
aI01
aI01
aI00
aI01
aI01
aI01
aI00
aI01
aI01
aI01
aI00
aI00
aI01
asg12
(istate
Node
p321
(dp322
g7
S'0000000000001000110101011001101110111001'
p323
sg9
I0
sg10
(lp324
I00
aI00
aI00
aI00
aI00
aI00
aI00
aI00
aI00
aI00
aI00
aI00
aI01
aI00
aI00
aI00
aI01
aI01
aI00
aI01
aI00
aI01
aI00
aI01
aI01
aI00
aI00
aI01
aI01
aI00
aI01
aI01
aI01
aI00
aI01
aI01
aI01
aI00
aI00
aI01
asg12
Nsg53
Nsg54
I-1
sbsg53
I01
sg54
I12
sbsg53
I01
sg54
I16
sbsg53
I01
sg54
I17
sbsg53
I01
sg54
I19
sbsg53
I01
sg54
I21
sbsg53
I01
sg54
I23
sbsg53
I01
sg54
I24
sbsg53
I01
sg54
I27
sbsg53
I01
sg54
I28
sbsg53
I01
sg54
I31
sbsg53
I01
sg54
I32
sbsg53
I01
sg54
I36
sba(lp325
I12
aI16
aI17
aI19
aI21
aI23
aI24
aI27
aI28
aI31
aI32
aI36
aaI16
aI121
aI65536
ag56
aaa(lp326
(lp327
I00
aI01
aI00
aI00
aI00
aI01
aI01
aI00
aI00
aI00
aI01
aI00
aI00
aI00
aI00
aI00
aI00
aI00
aI00
aI01
aI00
aI01
aI00
aI01
aI01
aI01
aI01
aI01
aI01
aI00
aI01
aI01
aI01
aI00
aI00
aI00
aI01
aI00
aI00
aI00
aa(lp328
(lp329
I00
aI01
aI00
aI00
aI00
aI01
aI01
aI00
aI00
aI00
aI01
aI00
aI00
aI00
aI00
aI00
aI00
aI00
aI00
aI01
aI00
aI01
aI00
aI01
aI01
aI01
aI01
aI01
aI01
aI00
aI01
aI01
aI01
aI00
aI00
aI00
aI01
aI00
aI00
aI00
aa(istate
Node
p330
(dp331
g7
S'0000000000000000000000000001000110001000'
p332
sg9
I12
sg10
(lp333
I00
aI00
aI00
aI00
aI00
aI00
aI00
aI00
aI00
aI00
aI00
aI00
aI00
aI00
aI00
aI00
aI00
aI00
aI00
aI00
aI00
aI00
aI00
aI00
aI00
aI00
aI00
aI01
aI00
aI00
aI00
aI01
aI01
aI00
aI00
aI00
aI01
aI00
aI00
aI00
asg12
(istate
Node
p334
(dp335
g7
S'0000000000000000000000000001001110001000'
p336
sg9
I11
sg10
(lp337
I00
aI00
aI00
aI00
aI00
aI00
aI00
aI00
aI00
aI00
aI00
aI00
aI00
aI00
aI00
aI00
aI00
aI00
aI00
aI00
aI00
aI00
aI00
aI00
aI00
aI00
aI00
aI01
aI00
aI00
aI01
aI01
aI01
aI00
aI00
aI00
aI01
aI00
aI00
aI00
asg12
(istate
Node
p338
(dp339
g7
S'0000000000000000000000000001101110001000'
p340
sg9
I10
sg10
(lp341
I00
aI00
aI00
aI00
aI00
aI00
aI00
aI00
aI00
aI00
aI00
aI00
aI00
aI00
aI00
aI00
aI00
aI00
aI00
aI00
aI00
aI00
aI00
aI00
aI00
aI00
aI00
aI01
aI01
aI00
aI01
aI01
aI01
aI00
aI00
aI00
aI01
aI00
aI00
aI00
asg12
(istate
Node
p342
(dp343
g7
S'0000000000000000000000000011101110001000'
p344
sg9
I9
sg10
(lp345
I00
aI00
aI00
aI00
aI00
aI00
aI00
aI00
aI00
aI00
aI00
aI00
aI00
aI00
aI00
aI00
aI00
aI00
aI00
aI00
aI00
aI00
aI00
aI00
aI00
aI00
aI01
aI01
aI01
aI00
aI01
aI01
aI01
aI00
aI00
aI00
aI01
aI00
aI00
aI00
asg12
(istate
Node
p346
(dp347
g7
S'0000000000000000000000000111101110001000'
p348
sg9
I8
sg10
(lp349
I00
aI00
aI00
aI00
aI00
aI00
aI00
aI00
aI00
aI00
aI00
aI00
aI00
aI00
aI00
aI00
aI00
aI00
aI00
aI00
aI00
aI00
aI00
aI00
aI00
aI01
aI01
aI01
aI01
aI00
aI01
aI01
aI01
aI00
aI00
aI00
aI01
aI00
aI00
aI00
asg12
(istate
Node
p350
(dp351
g7
S'0000000000000000000000001111101110001000'
p352
sg9
I7
sg10
(lp353
I00
aI00
aI00
aI00
aI00
aI00
aI00
aI00
aI00
aI00
aI00
aI00
aI00
aI00
aI00
aI00
aI00
aI00
aI00
aI00
aI00
aI00
aI00
aI00
aI01
aI01
aI01
aI01
aI01
aI00
aI01
aI01
aI01
aI00
aI00
aI00
aI01
aI00
aI00
aI00
asg12
(istate
Node
p354
(dp355
g7
S'0000000000000000000000011111101110001000'
p356
sg9
I6
sg10
(lp357
I00
aI00
aI00
aI00
aI00
aI00
aI00
aI00
aI00
aI00
aI00
aI00
aI00
aI00
aI00
aI00
aI00
aI00
aI00
aI00
aI00
aI00
aI00
aI01
aI01
aI01
aI01
aI01
aI01
aI00
aI01
aI01
aI01
aI00
aI00
aI00
aI01
aI00
aI00
aI00
asg12
(istate
Node
p358
(dp359
g7
S'0000000000000000000001011111101110001000'
p360
sg9
I5
sg10
(lp361
I00
aI00
aI00
aI00
aI00
aI00
aI00
aI00
aI00
aI00
aI00
aI00
aI00
aI00
aI00
aI00
aI00
aI00
aI00
aI00
aI00
aI01
aI00
aI01
aI01
aI01
aI01
aI01
aI01
aI00
aI01
aI01
aI01
aI00
aI00
aI00
aI01
aI00
aI00
aI00
asg12
(istate
Node
p362
(dp363
g7
S'0000000000000000000101011111101110001000'
p364
sg9
I4
sg10
(lp365
I00
aI00
aI00
aI00
aI00
aI00
aI00
aI00
aI00
aI00
aI00
aI00
aI00
aI00
aI00
aI00
aI00
aI00
aI00
aI01
aI00
aI01
aI00
aI01
aI01
aI01
aI01
aI01
aI01
aI00
aI01
aI01
aI01
aI00
aI00
aI00
aI01
aI00
aI00
aI00
asg12
(istate
Node
p366
(dp367
g7
S'0000000000100000000101011111101110001000'
p368
sg9
I3
sg10
(lp369
I00
aI00
aI00
aI00
aI00
aI00
aI00
aI00
aI00
aI00
aI01
aI00
aI00
aI00
aI00
aI00
aI00
aI00
aI00
aI01
aI00
aI01
aI00
aI01
aI01
aI01
aI01
aI01
aI01
aI00
aI01
aI01
aI01
aI00
aI00
aI00
aI01
aI00
aI00
aI00
asg12
(istate
Node
p370
(dp371
g7
S'0000001000100000000101011111101110001000'
p372
sg9
I2
sg10
(lp373
I00
aI00
aI00
aI00
aI00
aI00
aI01
aI00
aI00
aI00
aI01
aI00
aI00
aI00
aI00
aI00
aI00
aI00
aI00
aI01
aI00
aI01
aI00
aI01
aI01
aI01
aI01
aI01
aI01
aI00
aI01
aI01
aI01
aI00
aI00
aI00
aI01
aI00
aI00
aI00
asg12
(istate
Node
p374
(dp375
g7
S'0000011000100000000101011111101110001000'
p376
sg9
I1
sg10
(lp377
I00
aI00
aI00
aI00
aI00
aI01
aI01
aI00
aI00
aI00
aI01
aI00
aI00
aI00
aI00
aI00
aI00
aI00
aI00
aI01
aI00
aI01
aI00
aI01
aI01
aI01
aI01
aI01
aI01
aI00
aI01
aI01
aI01
aI00
aI00
aI00
aI01
aI00
aI00
aI00
asg12
(istate
Node
p378
(dp379
g7
S'0100011000100000000101011111101110001000'
p380
sg9
I0
sg10
(lp381
I00
aI01
aI00
aI00
aI00
aI01
aI01
aI00
aI00
aI00
aI01
aI00
aI00
aI00
aI00
aI00
aI00
aI00
aI00
aI01
aI00
aI01
aI00
aI01
aI01
aI01
aI01
aI01
aI01
aI00
aI01
aI01
aI01
aI00
aI00
aI00
aI01
aI00
aI00
aI00
asg12
Nsg53
Nsg54
I-1
sbsg53
I01
sg54
I1
sbsg53
I01
sg54
I5
sbsg53
I01
sg54
I6
sbsg53
I01
sg54
I10
sbsg53
I01
sg54
I19
sbsg53
I01
sg54
I21
sbsg53
I01
sg54
I23
sbsg53
I01
sg54
I24
sbsg53
I01
sg54
I25
sbsg53
I01
sg54
I26
sbsg53
I01
sg54
I28
sbsg53
I01
sg54
I30
sba(lp382
I1
aI5
aI6
aI10
aI19
aI21
aI23
aI24
aI25
aI26
aI28
aI30
aaI16
aI121
aI65536
ag56
aaa(lp383
(lp384
I00
aI00
aI00
aI00
aI00
aI00
aI00
aI00
aI00
aI00
aI01
aI00
aI00
aI00
aI01
aI01
aI00
aI00
aI00
aI01
aI01
aI00
aI00
aI00
aI01
aI01
aI00
aI00
aI00
aI01
aI01
aI00
aI00
aI01
aI01
aI01
aI00
aI00
aI01
aI01
aa(lp385
(lp386
I00
aI00
aI00
aI00
aI00
aI00
aI00
aI00
aI00
aI00
aI01
aI00
aI00
aI00
aI01
aI01
aI00
aI00
aI00
aI01
aI01
aI00
aI00
aI00
aI01
aI01
aI00
aI00
aI00
aI01
aI01
aI00
aI00
aI01
aI01
aI01
aI00
aI00
aI01
aI01
aa(istate
Node
p387
(dp388
g7
S'0000000000000000000000000000001000110001'
p389
sg9
I10
sg10
(lp390
I00
aI00
aI00
aI00
aI00
aI00
aI00
aI00
aI00
aI00
aI00
aI00
aI00
aI00
aI00
aI00
aI00
aI00
aI00
aI00
aI00
aI00
aI00
aI00
aI00
aI00
aI00
aI00
aI00
aI00
aI01
aI00
aI00
aI00
aI01
aI01
aI00
aI00
aI00
aI01
asg12
(istate
Node
p391
(dp392
g7
S'0000000000000000000000000000001000110011'
p393
sg9
I9
sg10
(lp394
I00
aI00
aI00
aI00
aI00
aI00
aI00
aI00
aI00
aI00
aI00
aI00
aI00
aI00
aI00
aI00
aI00
aI00
aI00
aI00
aI00
aI00
aI00
aI00
aI00
aI00
aI00
aI00
aI00
aI00
aI01
aI00
aI00
aI00
aI01
aI01
aI00
aI00
aI01
aI01
asg12
(istate
Node
p395
(dp396
g7
S'0000000000000000000000000000001001110011'
p397
sg9
I8
sg10
(lp398
I00
aI00
aI00
aI00
aI00
aI00
aI00
aI00
aI00
aI00
aI00
aI00
aI00
aI00
aI00
aI00
aI00
aI00
aI00
aI00
aI00
aI00
aI00
aI00
aI00
aI00
aI00
aI00
aI00
aI00
aI01
aI00
aI00
aI01
aI01
aI01
aI00
aI00
aI01
aI01
asg12
(istate
Node
p399
(dp400
g7
S'0000000000000000000000000000011001110011'
p401
sg9
I7
sg10
(lp402
I00
aI00
aI00
aI00
aI00
aI00
aI00
aI00
aI00
aI00
aI00
aI00
aI00
aI00
aI00
aI00
aI00
aI00
aI00
aI00
aI00
aI00
aI00
aI00
aI00
aI00
aI00
aI00
aI00
aI01
aI01
aI00
aI00
aI01
aI01
aI01
aI00
aI00
aI01
aI01
asg12
(istate
Node
p403
(dp404
g7
S'0000000000000000000000000100011001110011'
p405
sg9
I6
sg10
(lp406
I00
aI00
aI00
aI00
aI00
aI00
aI00
aI00
aI00
aI00
aI00
aI00
aI00
aI00
aI00
aI00
aI00
aI00
aI00
aI00
aI00
aI00
aI00
aI00
aI00
aI01
aI00
aI00
aI00
aI01
aI01
aI00
aI00
aI01
aI01
aI01
aI00
aI00
aI01
aI01
asg12
(istate
Node
p407
(dp408
g7
S'0000000000000000000000001100011001110011'
p409
sg9
I5
sg10
(lp410
I00
aI00
aI00
aI00
aI00
aI00
aI00
aI00
aI00
aI00
aI00
aI00
aI00
aI00
aI00
aI00
aI00
aI00
aI00
aI00
aI00
aI00
aI00
aI00
aI01
aI01
aI00
aI00
aI00
aI01
aI01
aI00
aI00
aI01
aI01
aI01
aI00
aI00
aI01
aI01
asg12
(istate
Node
p411
(dp412
g7
S'0000000000000000000010001100011001110011'
p413
sg9
I4
sg10
(lp414
I00
aI00
aI00
aI00
aI00
aI00
aI00
aI00
aI00
aI00
aI00
aI00
aI00
aI00
aI00
aI00
aI00
aI00
aI00
aI00
aI01
aI00
aI00
aI00
aI01
aI01
aI00
aI00
aI00
aI01
aI01
aI00
aI00
aI01
aI01
aI01
aI00
aI00
aI01
aI01
asg12
(istate
Node
p415
(dp416
g7
S'0000000000000000000110001100011001110011'
p417
sg9
I3
sg10
(lp418
I00
aI00
aI00
aI00
aI00
aI00
aI00
aI00
aI00
aI00
aI00
aI00
aI00
aI00
aI00
aI00
aI00
aI00
aI00
aI01
aI01
aI00
aI00
aI00
aI01
aI01
aI00
aI00
aI00
aI01
aI01
aI00
aI00
aI01
aI01
aI01
aI00
aI00
aI01
aI01
asg12
(istate
Node
p419
(dp420
g7
S'0000000000000001000110001100011001110011'
p421
sg9
I2
sg10
(lp422
I00
aI00
aI00
aI00
aI00
aI00
aI00
aI00
aI00
aI00
aI00
aI00
aI00
aI00
aI00
aI01
aI00
aI00
aI00
aI01
aI01
aI00
aI00
aI00
aI01
aI01
aI00
aI00
aI00
aI01
aI01
aI00
aI00
aI01
aI01
aI01
aI00
aI00
aI01
aI01
asg12
(istate
Node
p423
(dp424
g7
S'0000000000000011000110001100011001110011'
p425
sg9
I1
sg10
(lp426
I00
aI00
aI00
aI00
aI00
aI00
aI00
aI00
aI00
aI00
aI00
aI00
aI00
aI00
aI01
aI01
aI00
aI00
aI00
aI01
aI01
aI00
aI00
aI00
aI01
aI01
aI00
aI00
aI00
aI01
aI01
aI00
aI00
aI01
aI01
aI01
aI00
aI00
aI01
aI01
asg12
(istate
Node
p427
(dp428
g7
S'0000000000100011000110001100011001110011'
p429
sg9
I0
sg10
(lp430
I00
aI00
aI00
aI00
aI00
aI00
aI00
aI00
aI00
aI00
aI01
aI00
aI00
aI00
aI01
aI01
aI00
aI00
aI00
aI01
aI01
aI00
aI00
aI00
aI01
aI01
aI00
aI00
aI00
aI01
aI01
aI00
aI00
aI01
aI01
aI01
aI00
aI00
aI01
aI01
asg12
Nsg53
Nsg54
I-1
sbsg53
I01
sg54
I10
sbsg53
I01
sg54
I14
sbsg53
I01
sg54
I15
sbsg53
I01
sg54
I19
sbsg53
I01
sg54
I20
sbsg53
I01
sg54
I24
sbsg53
I01
sg54
I25
sbsg53
I01
sg54
I29
sbsg53
I01
sg54
I33
sbsg53
I01
sg54
I38
sba(lp431
I10
aI14
aI15
aI19
aI20
aI24
aI25
aI29
aI33
aI38
aaI14
aI92
aI16384
ag56
aaa(lp432
(lp433
I00
aI00
aI01
aI01
aI00
aI00
aI01
aI01
aI01
aI01
aI00
aI01
aI01
aI01
aI01
aI00
aI00
aI00
aI01
aI00
aI00
aI01
aI00
aI00
aI00
aI01
aI01
aI00
aI00
aI00
aI01
aI00
aI00
aI00
aI00
aI00
aI00
aI00
aI00
aI00
aa(lp434
(lp435
I00
aI00
aI01
aI01
aI00
aI00
aI01
aI01
aI01
aI01
aI00
aI01
aI01
aI01
aI01
aI00
aI00
aI00
aI01
aI00
aI00
aI01
aI00
aI00
aI00
aI01
aI01
aI00
aI00
aI00
aI01
aI00
aI00
aI00
aI00
aI00
aI00
aI00
aI00
aI00
aa(istate
Node
p436
(dp437
g7
S'0000000000000000000001000110001000000000'
p438
sg9
I11
sg10
(lp439
I00
aI00
aI00
aI00
aI00
aI00
aI00
aI00
aI00
aI00
aI00
aI00
aI00
aI00
aI00
aI00
aI00
aI00
aI00
aI00
aI00
aI01
aI00
aI00
aI00
aI01
aI01
aI00
aI00
aI00
aI01
aI00
aI00
aI00
aI00
aI00
aI00
aI00
aI00
aI00
asg12
(istate
Node
p440
(dp441
g7
S'0000000000000000001001000110001000000000'
p442
sg9
I10
sg10
(lp443
I00
aI00
aI00
aI00
aI00
aI00
aI00
aI00
aI00
aI00
aI00
aI00
aI00
aI00
aI00
aI00
aI00
aI00
aI01
aI00
aI00
aI01
aI00
aI00
aI00
aI01
aI01
aI00
aI00
aI00
aI01
aI00
aI00
aI00
aI00
aI00
aI00
aI00
aI00
aI00
asg12
(istate
Node
p444
(dp445
g7
S'0000000000000010001001000110001000000000'
p446
sg9
I9
sg10
(lp447
I00
aI00
aI00
aI00
aI00
aI00
aI00
aI00
aI00
aI00
aI00
aI00
aI00
aI00
aI01
aI00
aI00
aI00
aI01
aI00
aI00
aI01
aI00
aI00
aI00
aI01
aI01
aI00
aI00
aI00
aI01
aI00
aI00
aI00
aI00
aI00
aI00
aI00
aI00
aI00
asg12
(istate
Node
p448
(dp449
g7
S'0000000000000110001001000110001000000000'
p450
sg9
I8
sg10
(lp451
I00
aI00
aI00
aI00
aI00
aI00
aI00
aI00
aI00
aI00
aI00
aI00
aI00
aI01
aI01
aI00
aI00
aI00
aI01
aI00
aI00
aI01
aI00
aI00
aI00
aI01
aI01
aI00
aI00
aI00
aI01
aI00
aI00
aI00
aI00
aI00
aI00
aI00
aI00
aI00
asg12
(istate
Node
p452
(dp453
g7
S'0000000000001110001001000110001000000000'
p454
sg9
I7
sg10
(lp455
I00
aI00
aI00
aI00
aI00
aI00
aI00
aI00
aI00
aI00
aI00
aI00
aI01
aI01
aI01
aI00
aI00
aI00
aI01
aI00
aI00
aI01
aI00
aI00
aI00
aI01
aI01
aI00
aI00
aI00
aI01
aI00
aI00
aI00
aI00
aI00
aI00
aI00
aI00
aI00
asg12
(istate
Node
p456
(dp457
g7
S'0000000000011110001001000110001000000000'
p458
sg9
I6
sg10
(lp459
I00
aI00
aI00
aI00
aI00
aI00
aI00
aI00
aI00
aI00
aI00
aI01
aI01
aI01
aI01
aI00
aI00
aI00
aI01
aI00
aI00
aI01
aI00
aI00
aI00
aI01
aI01
aI00
aI00
aI00
aI01
aI00
aI00
aI00
aI00
aI00
aI00
aI00
aI00
aI00
asg12
(istate
Node
p460
(dp461
g7
S'0000000001011110001001000110001000000000'
p462
sg9
I5
sg10
(lp463
I00
aI00
aI00
aI00
aI00
aI00
aI00
aI00
aI00
aI01
aI00
aI01
aI01
aI01
aI01
aI00
aI00
aI00
aI01
aI00
aI00
aI01
aI00
aI00
aI00
aI01
aI01
aI00
aI00
aI00
aI01
aI00
aI00
aI00
aI00
aI00
aI00
aI00
aI00
aI00
asg12
(istate
Node
p464
(dp465
g7
S'0000000011011110001001000110001000000000'
p466
sg9
I4
sg10
(lp467
I00
aI00
aI00
aI00
aI00
aI00
aI00
aI00
aI01
aI01
aI00
aI01
aI01
aI01
aI01
aI00
aI00
aI00
aI01
aI00
aI00
aI01
aI00
aI00
aI00
aI01
aI01
aI00
aI00
aI00
aI01
aI00
aI00
aI00
aI00
aI00
aI00
aI00
aI00
aI00
asg12
(istate
Node
p468
(dp469
g7
S'0000000111011110001001000110001000000000'
p470
sg9
I3
sg10
(lp471
I00
aI00
aI00
aI00
aI00
aI00
aI00
aI01
aI01
aI01
aI00
aI01
aI01
aI01
aI01
aI00
aI00
aI00
aI01
aI00
aI00
aI01
aI00
aI00
aI00
aI01
aI01
aI00
aI00
aI00
aI01
aI00
aI00
aI00
aI00
aI00
aI00
aI00
aI00
aI00
asg12
(istate
Node
p472
(dp473
g7
S'0000001111011110001001000110001000000000'
p474
sg9
I2
sg10
(lp475
I00
aI00
aI00
aI00
aI00
aI00
aI01
aI01
aI01
aI01
aI00
aI01
aI01
aI01
aI01
aI00
aI00
aI00
aI01
aI00
aI00
aI01
aI00
aI00
aI00
aI01
aI01
aI00
aI00
aI00
aI01
aI00
aI00
aI00
aI00
aI00
aI00
aI00
aI00
aI00
asg12
(istate
Node
p476
(dp477
g7
S'0001001111011110001001000110001000000000'
p478
sg9
I1
sg10
(lp479
I00
aI00
aI00
aI01
aI00
aI00
aI01
aI01
aI01
aI01
aI00
aI01
aI01
aI01
aI01
aI00
aI00
aI00
aI01
aI00
aI00
aI01
aI00
aI00
aI00
aI01
aI01
aI00
aI00
aI00
aI01
aI00
aI00
aI00
aI00
aI00
aI00
aI00
aI00
aI00
asg12
(istate
Node
p480
(dp481
g7
S'0011001111011110001001000110001000000000'
p482
sg9
I0
sg10
(lp483
I00
aI00
aI01
aI01
aI00
aI00
aI01
aI01
aI01
aI01
aI00
aI01
aI01
aI01
aI01
aI00
aI00
aI00
aI01
aI00
aI00
aI01
aI00
aI00
aI00
aI01
aI01
aI00
aI00
aI00
aI01
aI00
aI00
aI00
aI00
aI00
aI00
aI00
aI00
aI00
asg12
Nsg53
Nsg54
I-1
sbsg53
I01
sg54
I2
sbsg53
I01
sg54
I3
sbsg53
I01
sg54
I6
sbsg53
I01
sg54
I7
sbsg53
I01
sg54
I8
sbsg53
I01
sg54
I9
sbsg53
I01
sg54
I11
sbsg53
I01
sg54
I12
sbsg53
I01
sg54
I13
sbsg53
I01
sg54
I14
sbsg53
I01
sg54
I18
sba(lp484
I2
aI3
aI6
aI7
aI8
aI9
aI11
aI12
aI13
aI14
aI18
aaI11
aI100
aI2048
ag56
aaa(lp485
(lp486
I00
aI00
aI00
aI00
aI00
aI00
aI00
aI00
aI00
aI00
aI01
aI00
aI00
aI00
aI01
aI01
aI00
aI00
aI01
aI01
aI00
aI00
aI01
aI01
aI00
aI00
aI00
aI01
aI00
aI00
aI01
aI01
aI01
aI00
aI01
aI01
aI01
aI00
aI00
aI01
aa(lp487
(lp488
I00
aI00
aI00
aI00
aI00
aI00
aI00
aI00
aI00
aI00
aI01
aI00
aI00
aI00
aI01
aI01
aI00
aI00
aI01
aI01
aI00
aI00
aI01
aI01
aI00
aI00
aI00
aI01
aI00
aI00
aI01
aI01
aI01
aI00
aI01
aI01
aI01
aI00
aI00
aI01
aa(istate
Node
p489
(dp490
g7
S'0000000000000000000000000000001000110001'
p491
sg9
I11
sg10
(lp492
I00
aI00
aI00
aI00
aI00
aI00
aI00
aI00
aI00
aI00
aI00
aI00
aI00
aI00
aI00
aI00
aI00
aI00
aI00
aI00
aI00
aI00
aI00
aI00
aI00
aI00
aI00
aI00
aI00
aI00
aI01
aI00
aI00
aI00
aI01
aI01
aI00
aI00
aI00
aI01
asg12
(istate
Node
p493
(dp494
g7
S'0000000000000000000000000000001000111001'
p495
sg9
I10
sg10
(lp496
I00
aI00
aI00
aI00
aI00
aI00
aI00
aI00
aI00
aI00
aI00
aI00
aI00
aI00
aI00
aI00
aI00
aI00
aI00
aI00
aI00
aI00
aI00
aI00
aI00
aI00
aI00
aI00
aI00
aI00
aI01
aI00
aI00
aI00
aI01
aI01
aI01
aI00
aI00
aI01
asg12
(istate
Node
p497
(dp498
g7
S'0000000000000000000000000000001010111001'
p499
sg9
I9
sg10
(lp500
I00
aI00
aI00
aI00
aI00
aI00
aI00
aI00
aI00
aI00
aI00
aI00
aI00
aI00
aI00
aI00
aI00
aI00
aI00
aI00
aI00
aI00
aI00
aI00
aI00
aI00
aI00
aI00
aI00
aI00
aI01
aI00
aI01
aI00
aI01
aI01
aI01
aI00
aI00
aI01
asg12
(istate
Node
p501
(dp502
g7
S'0000000000000000000000000000001110111001'
p503
sg9
I8
sg10
(lp504
I00
aI00
aI00
aI00
aI00
aI00
aI00
aI00
aI00
aI00
aI00
aI00
aI00
aI00
aI00
aI00
aI00
aI00
aI00
aI00
aI00
aI00
aI00
aI00
aI00
aI00
aI00
aI00
aI00
aI00
aI01
aI01
aI01
aI00
aI01
aI01
aI01
aI00
aI00
aI01
asg12
(istate
Node
p505
(dp506
g7
S'0000000000000000000000000001001110111001'
p507
sg9
I7
sg10
(lp508
I00
aI00
aI00
aI00
aI00
aI00
aI00
aI00
aI00
aI00
aI00
aI00
aI00
aI00
aI00
aI00
aI00
aI00
aI00
aI00
aI00
aI00
aI00
aI00
aI00
aI00
aI00
aI01
aI00
aI00
aI01
aI01
aI01
aI00
aI01
aI01
aI01
aI00
aI00
aI01
asg12
(istate
Node
p509
(dp510
g7
S'0000000000000000000000010001001110111001'
p511
sg9
I6
sg10
(lp512
I00
aI00
aI00
aI00
aI00
aI00
aI00
aI00
aI00
aI00
aI00
aI00
aI00
aI00
aI00
aI00
aI00
aI00
aI00
aI00
aI00
aI00
aI00
aI01
aI00
aI00
aI00
aI01
aI00
aI00
aI01
aI01
aI01
aI00
aI01
aI01
aI01
aI00
aI00
aI01
asg12
(istate
Node
p513
(dp514
g7
S'0000000000000000000000110001001110111001'
p515
sg9
I5
sg10
(lp516
I00
aI00
aI00
aI00
aI00
aI00
aI00
aI00
aI00
aI00
aI00
aI00
aI00
aI00
aI00
aI00
aI00
aI00
aI00
aI00
aI00
aI00
aI01
aI01
aI00
aI00
aI00
aI01
aI00
aI00
aI01
aI01
aI01
aI00
aI01
aI01
aI01
aI00
aI00
aI01
asg12
(istate
Node
p517
(dp518
g7
S'0000000000000000000100110001001110111001'
p519
sg9
I4
sg10
(lp520
I00
aI00
aI00
aI00
aI00
aI00
aI00
aI00
aI00
aI00
aI00
aI00
aI00
aI00
aI00
aI00
aI00
aI00
aI00
aI01
aI00
aI00
aI01
aI01
aI00
aI00
aI00
aI01
aI00
aI00
aI01
aI01
aI01
aI00
aI01
aI01
aI01
aI00
aI00
aI01
asg12
(istate
Node
p521
(dp522
g7
S'0000000000000000001100110001001110111001'
p523
sg9
I3
sg10
(lp524
I00
aI00
aI00
aI00
aI00
aI00
aI00
aI00
aI00
aI00
aI00
aI00
aI00
aI00
aI00
aI00
aI00
aI00
aI01
aI01
aI00
aI00
aI01
aI01
aI00
aI00
aI00
aI01
aI00
aI00
aI01
aI01
aI01
aI00
aI01
aI01
aI01
aI00
aI00
aI01
asg12
(istate
Node
p525
(dp526
g7
S'0000000000000001001100110001001110111001'
p527
sg9
I2
sg10
(lp528
I00
aI00
aI00
aI00
aI00
aI00
aI00
aI00
aI00
aI00
aI00
aI00
aI00
aI00
aI00
aI01
aI00
aI00
aI01
aI01
aI00
aI00
aI01
aI01
aI00
aI00
aI00
aI01
aI00
aI00
aI01
aI01
aI01
aI00
aI01
aI01
aI01
aI00
aI00
aI01
asg12
(istate
Node
p529
(dp530
g7
S'0000000000000011001100110001001110111001'
p531
sg9
I1
sg10
(lp532
I00
aI00
aI00
aI00
aI00
aI00
aI00
aI00
aI00
aI00
aI00
aI00
aI00
aI00
aI01
aI01
aI00
aI00
aI01
aI01
aI00
aI00
aI01
aI01
aI00
aI00
aI00
aI01
aI00
aI00
aI01
aI01
aI01
aI00
aI01
aI01
aI01
aI00
aI00
aI01
asg12
(istate
Node
p533
(dp534
g7
S'0000000000100011001100110001001110111001'
p535
sg9
I0
sg10
(lp536
I00
aI00
aI00
aI00
aI00
aI00
aI00
aI00
aI00
aI00
aI01
aI00
aI00
aI00
aI01
aI01
aI00
aI00
aI01
aI01
aI00
aI00
aI01
aI01
aI00
aI00
aI00
aI01
aI00
aI00
aI01
aI01
aI01
aI00
aI01
aI01
aI01
aI00
aI00
aI01
asg12
Nsg53
Nsg54
I-1
sbsg53
I01
sg54
I10
sbsg53
I01
sg54
I14
sbsg53
I01
sg54
I15
sbsg53
I01
sg54
I18
sbsg53
I01
sg54
I19
sbsg53
I01
sg54
I22
sbsg53
I01
sg54
I23
sbsg53
I01
sg54
I27
sbsg53
I01
sg54
I31
sbsg53
I01
sg54
I32
sbsg53
I01
sg54
I36
sba(lp537
I10
aI14
aI15
aI18
aI19
aI22
aI23
aI27
aI31
aI32
aI36
aaI15
aI106
aI32768
ag56
aaa.