(lp0
(lp1
(lp2
I00
aI00
aI00
aI00
aI00
aI00
aI00
aI00
aI00
aI01
aI00
aI00
aI01
aI01
aI01
aI00
aI01
aI01
aI01
aI00
aI00
aI01
aI00
aI00
aI00
aI01
aI01
aI00
aI01
aI00
aI01
aI00
aI01
aI01
aI00
aI00
aI00
aI01
aI00
aI00
aa(lp3
g2
a(istate
Node
p4
(dp5
S'_hash_'
p6
S'0000000000001000110001000110101011000100'
p7
sS'parent'
p8
(istate
Node
p9
(dp10
g6
S'0000000000001000111001000110101011000100'
p11
sg8
(istate
Node
p12
(dp13
g6
S'0000000000001010111001000110101011000100'
p14
sg8
(istate
Node
p15
(dp16
g6
S'0000000000001110111001000110101011000100'
p17
sg8
(istate
Node
p18
(dp19
g6
S'0000000001001110111001000110101011000100'
p20
sg8
NsS'state'
p21
(lp22
I00
aI00
aI00
aI00
aI00
aI00
aI00
aI00
aI00
aI01
aI00
aI00
aI01
aI01
aI01
aI00
aI01
aI01
aI01
aI00
aI00
aI01
aI00
aI00
aI00
aI01
aI01
aI00
aI01
aI00
aI01
aI00
aI01
aI01
aI00
aI00
aI00
aI01
aI00
aI00
asS'pos'
p23
I-1
sS'depth'
p24
I0
sS'action'
p25
Nsbsg21
(lp26
I00
aI00
aI00
aI00
aI00
aI00
aI00
aI00
aI00
aI00
aI00
aI00
aI01
aI01
aI01
aI00
aI01
aI01
aI01
aI00
aI00
aI01
aI00
aI00
aI00
aI01
aI01
aI00
aI01
aI00
aI01
aI00
aI01
aI01
aI00
aI00
aI00
aI01
aI00
aI00
asg23
I9
sg24
I1
sg25
I01
sbsg21
(lp27
I00
aI00
aI00
aI00
aI00
aI00
aI00
aI00
aI00
aI00
aI00
aI00
aI01
aI00
aI01
aI00
aI01
aI01
aI01
aI00
aI00
aI01
aI00
aI00
aI00
aI01
aI01
aI00
aI01
aI00
aI01
aI00
aI01
aI01
aI00
aI00
aI00
aI01
aI00
aI00
asg23
I13
sg24
I2
sg25
I01
sbsg21
(lp28
I00
aI00
aI00
aI00
aI00
aI00
aI00
aI00
aI00
aI00
aI00
aI00
aI01
aI00
aI00
aI00
aI01
aI01
aI01
aI00
aI00
aI01
aI00
aI00
aI00
aI01
aI01
aI00
aI01
aI00
aI01
aI00
aI01
aI01
aI00
aI00
aI00
aI01
aI00
aI00
asg23
I14
sg24
I3
sg25
I01
sbsg21
(lp29
I00
aI00
aI00
aI00
aI00
aI00
aI00
aI00
aI00
aI00
aI00
aI00
aI01
aI00
aI00
aI00
aI01
aI01
aI00
aI00
aI00
aI01
aI00
aI00
aI00
aI01
aI01
aI00
aI01
aI00
aI01
aI00
aI01
aI01
aI00
aI00
aI00
aI01
aI00
aI00
asg23
I18
sg24
I4
sg25
I01
sba(lp30
I9
aI13
aI14
aI18
aaI15
aI106
aI9732
aF16.71544098854065
aaa(lp31
(lp32
I00
aI00
aI01
aI00
aI00
aI00
aI01
aI01
aI00
aI00
aI00
aI01
aI00
aI00
aI00
aI01
aI01
aI00
aI00
aI00
aI01
aI00
aI00
aI00
aI00
aI00
aI00
aI01
aI01
aI00
aI00
aI01
aI01
aI01
aI00
aI00
aI01
aI01
aI00
aI00
aa(lp33
g32
a(istate
Node
p34
(dp35
g6
S'0000000000010001100010000001100111001100'
p36
sg8
(istate
Node
p37
(dp38
g6
S'0000000100010001100010000001100111001100'
p39
sg8
(istate
Node
p40
(dp41
g6
S'0000001100010001100010000001100111001100'
p42
sg8
(istate
Node
p43
(dp44
g6
S'0010001100010001100010000001100111001100'
p45
sg8
Nsg21
(lp46
I00
aI00
aI01
aI00
aI00
aI00
aI01
aI01
aI00
aI00
aI00
aI01
aI00
aI00
aI00
aI01
aI01
aI00
aI00
aI00
aI01
aI00
aI00
aI00
aI00
aI00
aI00
aI01
aI01
aI00
aI00
aI01
aI01
aI01
aI00
aI00
aI01
aI01
aI00
aI00
asg23
I-1
sg24
I0
sg25
Nsbsg21
(lp47
I00
aI00
aI00
aI00
aI00
aI00
aI01
aI01
aI00
aI00
aI00
aI01
aI00
aI00
aI00
aI01
aI01
aI00
aI00
aI00
aI01
aI00
aI00
aI00
aI00
aI00
aI00
aI01
aI01
aI00
aI00
aI01
aI01
aI01
aI00
aI00
aI01
aI01
aI00
aI00
asg23
I2
sg24
I1
sg25
I01
sbsg21
(lp48
I00
aI00
aI00
aI00
aI00
aI00
aI00
aI01
aI00
aI00
aI00
aI01
aI00
aI00
aI00
aI01
aI01
aI00
aI00
aI00
aI01
aI00
aI00
aI00
aI00
aI00
aI00
aI01
aI01
aI00
aI00
aI01
aI01
aI01
aI00
aI00
aI01
aI01
aI00
aI00
asg23
I6
sg24
I2
sg25
I01
sbsg21
(lp49
I00
aI00
aI00
aI00
aI00
aI00
aI00
aI00
aI00
aI00
aI00
aI01
aI00
aI00
aI00
aI01
aI01
aI00
aI00
aI00
aI01
aI00
aI00
aI00
aI00
aI00
aI00
aI01
aI01
aI00
aI00
aI01
aI01
aI01
aI00
aI00
aI01
aI01
aI00
aI00
asg23
I7
sg24
I3
sg25
I01
sba(lp50
I2
aI6
aI7
aaI3
aI37
aI3
aF0.03990006446838379
aaa(lp51
(lp52
I00
aI00
aI01
aI00
aI00
aI00
aI01
aI01
aI00
aI01
aI00
aI01
aI00
aI01
aI01
aI00
aI00
aI00
aI01
aI00
aI00
aI01
aI01
aI01
aI00
aI01
aI01
aI01
aI00
aI00
aI01
aI00
aI00
aI00
aI00
aI00
aI00
aI00
aI00
aI00
aa(lp53
g52
a(istate
Node
p54
(dp55
g6
S'0000000001000110001001110111001000000000'
p56
sg8
(istate
Node
p57
(dp58
g6
S'0000000001010110001001110111001000000000'
p59
sg8
(istate
Node
p60
(dp61
g6
S'0000000101010110001001110111001000000000'
p62
sg8
(istate
Node
p63
(dp64
g6
S'0000001101010110001001110111001000000000'
p65
sg8
(istate
Node
p66
(dp67
g6
S'0010001101010110001001110111001000000000'
p68
sg8
Nsg21
(lp69
I00
aI00
aI01
aI00
aI00
aI00
aI01
aI01
aI00
aI01
aI00
aI01
aI00
aI01
aI01
aI00
aI00
aI00
aI01
aI00
aI00
aI01
aI01
aI01
aI00
aI01
aI01
aI01
aI00
aI00
aI01
aI00
aI00
aI00
aI00
aI00
aI00
aI00
aI00
aI00
asg23
I-1
sg24
I0
sg25
Nsbsg21
(lp70
I00
aI00
aI00
aI00
aI00
aI00
aI01
aI01
aI00
aI01
aI00
aI01
aI00
aI01
aI01
aI00
aI00
aI00
aI01
aI00
aI00
aI01
aI01
aI01
aI00
aI01
aI01
aI01
aI00
aI00
aI01
aI00
aI00
aI00
aI00
aI00
aI00
aI00
aI00
aI00
asg23
I2
sg24
I1
sg25
I01
sbsg21
(lp71
I00
aI00
aI00
aI00
aI00
aI00
aI00
aI01
aI00
aI01
aI00
aI01
aI00
aI01
aI01
aI00
aI00
aI00
aI01
aI00
aI00
aI01
aI01
aI01
aI00
aI01
aI01
aI01
aI00
aI00
aI01
aI00
aI00
aI00
aI00
aI00
aI00
aI00
aI00
aI00
asg23
I6
sg24
I2
sg25
I01
sbsg21
(lp72
I00
aI00
aI00
aI00
aI00
aI00
aI00
aI00
aI00
aI01
aI00
aI01
aI00
aI01
aI01
aI00
aI00
aI00
aI01
aI00
aI00
aI01
aI01
aI01
aI00
aI01
aI01
aI01
aI00
aI00
aI01
aI00
aI00
aI00
aI00
aI00
aI00
aI00
aI00
aI00
asg23
I7
sg24
I3
sg25
I01
sbsg21
(lp73
I00
aI00
aI00
aI00
aI00
aI00
aI00
aI00
aI00
aI01
aI00
aI00
aI00
aI01
aI01
aI00
aI00
aI00
aI01
aI00
aI00
aI01
aI01
aI01
aI00
aI01
aI01
aI01
aI00
aI00
aI01
aI00
aI00
aI00
aI00
aI00
aI00
aI00
aI00
aI00
asg23
I11
sg24
I4
sg25
I01
sba(lp74
I2
aI6
aI7
aI11
aaI15
aI106
aI2052
aF4.436497926712036
aaa(lp75
(lp76
I01
aI00
aI01
aI00
aI01
aI01
aI01
aI01
aI00
aI01
aI00
aI01
aI00
aI01
aI01
aI00
aI00
aI00
aI01
aI00
aI00
aI00
aI00
aI00
aI00
aI00
aI00
aI01
aI00
aI00
aI00
aI01
aI01
aI00
aI00
aI00
aI01
aI00
aI00
aI00
aa(lp77
g76
a(istate
Node
p78
(dp79
g6
S'0010001101010110001000000001000110001000'
p80
sg8
(istate
Node
p81
(dp82
g6
S'0010011101010110001000000001000110001000'
p83
sg8
(istate
Node
p84
(dp85
g6
S'0010111101010110001000000001000110001000'
p86
sg8
(istate
Node
p87
(dp88
g6
S'1010111101010110001000000001000110001000'
p89
sg8
Nsg21
(lp90
I01
aI00
aI01
aI00
aI01
aI01
aI01
aI01
aI00
aI01
aI00
aI01
aI00
aI01
aI01
aI00
aI00
aI00
aI01
aI00
aI00
aI00
aI00
aI00
aI00
aI00
aI00
aI01
aI00
aI00
aI00
aI01
aI01
aI00
aI00
aI00
aI01
aI00
aI00
aI00
asg23
I-1
sg24
I0
sg25
Nsbsg21
(lp91
I00
aI00
aI01
aI00
aI01
aI01
aI01
aI01
aI00
aI01
aI00
aI01
aI00
aI01
aI01
aI00
aI00
aI00
aI01
aI00
aI00
aI00
aI00
aI00
aI00
aI00
aI00
aI01
aI00
aI00
aI00
aI01
aI01
aI00
aI00
aI00
aI01
aI00
aI00
aI00
asg23
I0
sg24
I1
sg25
I01
sbsg21
(lp92
I00
aI00
aI01
aI00
aI00
aI01
aI01
aI01
aI00
aI01
aI00
aI01
aI00
aI01
aI01
aI00
aI00
aI00
aI01
aI00
aI00
aI00
aI00
aI00
aI00
aI00
aI00
aI01
aI00
aI00
aI00
aI01
aI01
aI00
aI00
aI00
aI01
aI00
aI00
aI00
asg23
I4
sg24
I2
sg25
I01
sbsg21
(lp93
I00
aI00
aI01
aI00
aI00
aI00
aI01
aI01
aI00
aI01
aI00
aI01
aI00
aI01
aI01
aI00
aI00
aI00
aI01
aI00
aI00
aI00
aI00
aI00
aI00
aI00
aI00
aI01
aI00
aI00
aI00
aI01
aI01
aI00
aI00
aI00
aI01
aI00
aI00
aI00
asg23
I5
sg24
I3
sg25
I01
sba(lp94
I0
aI4
aI5
aaI15
aI106
aI8195
aF13.456650018692017
aaa(lp95
(lp96
I00
aI00
aI00
aI01
aI00
aI00
aI00
aI01
aI01
aI00
aI00
aI00
aI01
aI00
aI00
aI00
aI01
aI01
aI01
aI00
aI00
aI01
aI01
aI01
aI00
aI00
aI00
aI01
aI00
aI00
aI00
aI01
aI01
aI00
aI00
aI00
aI01
aI00
aI00
aI00
aa(lp97
g96
a(istate
Node
p98
(dp99
g6
S'0000000000001000111001110001000110001000'
p100
sg8
(istate
Node
p101
(dp102
g6
S'0000000010001000111001110001000110001000'
p103
sg8
(istate
Node
p104
(dp105
g6
S'0000000110001000111001110001000110001000'
p106
sg8
(istate
Node
p107
(dp108
g6
S'0001000110001000111001110001000110001000'
p109
sg8
Nsg21
(lp110
I00
aI00
aI00
aI01
aI00
aI00
aI00
aI01
aI01
aI00
aI00
aI00
aI01
aI00
aI00
aI00
aI01
aI01
aI01
aI00
aI00
aI01
aI01
aI01
aI00
aI00
aI00
aI01
aI00
aI00
aI00
aI01
aI01
aI00
aI00
aI00
aI01
aI00
aI00
aI00
asg23
I-1
sg24
I0
sg25
Nsbsg21
(lp111
I00
aI00
aI00
aI00
aI00
aI00
aI00
aI01
aI01
aI00
aI00
aI00
aI01
aI00
aI00
aI00
aI01
aI01
aI01
aI00
aI00
aI01
aI01
aI01
aI00
aI00
aI00
aI01
aI00
aI00
aI00
aI01
aI01
aI00
aI00
aI00
aI01
aI00
aI00
aI00
asg23
I3
sg24
I1
sg25
I01
sbsg21
(lp112
I00
aI00
aI00
aI00
aI00
aI00
aI00
aI00
aI01
aI00
aI00
aI00
aI01
aI00
aI00
aI00
aI01
aI01
aI01
aI00
aI00
aI01
aI01
aI01
aI00
aI00
aI00
aI01
aI00
aI00
aI00
aI01
aI01
aI00
aI00
aI00
aI01
aI00
aI00
aI00
asg23
I7
sg24
I2
sg25
I01
sbsg21
(lp113
I00
aI00
aI00
aI00
aI00
aI00
aI00
aI00
aI00
aI00
aI00
aI00
aI01
aI00
aI00
aI00
aI01
aI01
aI01
aI00
aI00
aI01
aI01
aI01
aI00
aI00
aI00
aI01
aI00
aI00
aI00
aI01
aI01
aI00
aI00
aI00
aI01
aI00
aI00
aI00
asg23
I8
sg24
I3
sg25
I01
sba(lp114
I3
aI7
aI8
aaI3
aI37
aI3
aF0.03734993934631348
aaa(lp115
(lp116
I00
aI01
aI00
aI01
aI00
aI01
aI01
aI01
aI01
aI00
aI01
aI00
aI01
aI00
aI00
aI00
aI00
aI00
aI00
aI01
aI01
aI00
aI00
aI01
aI01
aI01
aI00
aI00
aI01
aI01
aI00
aI00
aI00
aI00
aI00
aI00
aI00
aI00
aI00
aI00
aa(lp117
g116
a(istate
Node
p118
(dp119
g6
S'0001000110001000000110011100110000000000'
p120
sg8
(istate
Node
p121
(dp122
g6
S'0001000110101000000110011100110000000000'
p123
sg8
(istate
Node
p124
(dp125
g6
S'0001001110101000000110011100110000000000'
p126
sg8
(istate
Node
p127
(dp128
g6
S'0001011110101000000110011100110000000000'
p129
sg8
(istate
Node
p130
(dp131
g6
S'0101011110101000000110011100110000000000'
p132
sg8
Nsg21
(lp133
I00
aI01
aI00
aI01
aI00
aI01
aI01
aI01
aI01
aI00
aI01
aI00
aI01
aI00
aI00
aI00
aI00
aI00
aI00
aI01
aI01
aI00
aI00
aI01
aI01
aI01
aI00
aI00
aI01
aI01
aI00
aI00
aI00
aI00
aI00
aI00
aI00
aI00
aI00
aI00
asg23
I-1
sg24
I0
sg25
Nsbsg21
(lp134
I00
aI00
aI00
aI01
aI00
aI01
aI01
aI01
aI01
aI00
aI01
aI00
aI01
aI00
aI00
aI00
aI00
aI00
aI00
aI01
aI01
aI00
aI00
aI01
aI01
aI01
aI00
aI00
aI01
aI01
aI00
aI00
aI00
aI00
aI00
aI00
aI00
aI00
aI00
aI00
asg23
I1
sg24
I1
sg25
I01
sbsg21
(lp135
I00
aI00
aI00
aI01
aI00
aI00
aI01
aI01
aI01
aI00
aI01
aI00
aI01
aI00
aI00
aI00
aI00
aI00
aI00
aI01
aI01
aI00
aI00
aI01
aI01
aI01
aI00
aI00
aI01
aI01
aI00
aI00
aI00
aI00
aI00
aI00
aI00
aI00
aI00
aI00
asg23
I5
sg24
I2
sg25
I01
sbsg21
(lp136
I00
aI00
aI00
aI01
aI00
aI00
aI00
aI01
aI01
aI00
aI01
aI00
aI01
aI00
aI00
aI00
aI00
aI00
aI00
aI01
aI01
aI00
aI00
aI01
aI01
aI01
aI00
aI00
aI01
aI01
aI00
aI00
aI00
aI00
aI00
aI00
aI00
aI00
aI00
aI00
asg23
I6
sg24
I3
sg25
I01
sbsg21
(lp137
I00
aI00
aI00
aI01
aI00
aI00
aI00
aI01
aI01
aI00
aI00
aI00
aI01
aI00
aI00
aI00
aI00
aI00
aI00
aI01
aI01
aI00
aI00
aI01
aI01
aI01
aI00
aI00
aI01
aI01
aI00
aI00
aI00
aI00
aI00
aI00
aI00
aI00
aI00
aI00
asg23
I10
sg24
I4
sg25
I01
sba(lp138
I1
aI5
aI6
aI10
aaI15
aI106
aI9732
aF22.252126932144165
aaa(lp139
(lp140
I01
aI00
aI00
aI00
aI01
aI01
aI00
aI00
aI00
aI01
aI00
aI00
aI01
aI00
aI00
aI00
aI01
aI01
aI01
aI00
aI00
aI01
aI01
aI01
aI00
aI00
aI00
aI01
aI01
aI00
aI00
aI00
aI01
aI01
aI00
aI00
aI00
aI01
aI00
aI00
aa(lp141
g140
a(istate
Node
p142
(dp143
g6
S'0000000000001000111001110001100011000100'
p144
sg8
(istate
Node
p145
(dp146
g6
S'0000000001001000111001110001100011000100'
p147
sg8
(istate
Node
p148
(dp149
g6
S'0000010001001000111001110001100011000100'
p150
sg8
(istate
Node
p151
(dp152
g6
S'0000110001001000111001110001100011000100'
p153
sg8
(istate
Node
p154
(dp155
g6
S'1000110001001000111001110001100011000100'
p156
sg8
Nsg21
(lp157
I01
aI00
aI00
aI00
aI01
aI01
aI00
aI00
aI00
aI01
aI00
aI00
aI01
aI00
aI00
aI00
aI01
aI01
aI01
aI00
aI00
aI01
aI01
aI01
aI00
aI00
aI00
aI01
aI01
aI00
aI00
aI00
aI01
aI01
aI00
aI00
aI00
aI01
aI00
aI00
asg23
I-1
sg24
I0
sg25
Nsbsg21
(lp158
I00
aI00
aI00
aI00
aI01
aI01
aI00
aI00
aI00
aI01
aI00
aI00
aI01
aI00
aI00
aI00
aI01
aI01
aI01
aI00
aI00
aI01
aI01
aI01
aI00
aI00
aI00
aI01
aI01
aI00
aI00
aI00
aI01
aI01
aI00
aI00
aI00
aI01
aI00
aI00
asg23
I0
sg24
I1
sg25
I01
sbsg21
(lp159
I00
aI00
aI00
aI00
aI00
aI01
aI00
aI00
aI00
aI01
aI00
aI00
aI01
aI00
aI00
aI00
aI01
aI01
aI01
aI00
aI00
aI01
aI01
aI01
aI00
aI00
aI00
aI01
aI01
aI00
aI00
aI00
aI01
aI01
aI00
aI00
aI00
aI01
aI00
aI00
asg23
I4
sg24
I2
sg25
I01
sbsg21
(lp160
I00
aI00
aI00
aI00
aI00
aI00
aI00
aI00
aI00
aI01
aI00
aI00
aI01
aI00
aI00
aI00
aI01
aI01
aI01
aI00
aI00
aI01
aI01
aI01
aI00
aI00
aI00
aI01
aI01
aI00
aI00
aI00
aI01
aI01
aI00
aI00
aI00
aI01
aI00
aI00
asg23
I5
sg24
I3
sg25
I01
sbsg21
(lp161
I00
aI00
aI00
aI00
aI00
aI00
aI00
aI00
aI00
aI00
aI00
aI00
aI01
aI00
aI00
aI00
aI01
aI01
aI01
aI00
aI00
aI01
aI01
aI01
aI00
aI00
aI00
aI01
aI01
aI00
aI00
aI00
aI01
aI01
aI00
aI00
aI00
aI01
aI00
aI00
asg23
I9
sg24
I4
sg25
I01
sba(lp162
I0
aI4
aI5
aI9
aaI4
aI55
aI4
aF0.05528712272644043
aaa(lp163
(lp164
I01
aI00
aI00
aI00
aI01
aI01
aI00
aI00
aI00
aI01
aI01
aI00
aI00
aI00
aI01
aI01
aI00
aI00
aI00
aI01
aI00
aI00
aI00
aI01
aI01
aI00
aI00
aI00
aI01
aI00
aI01
aI00
aI00
aI00
aI01
aI01
aI00
aI00
aI00
aI01
aa(lp165
g164
a(istate
Node
p166
(dp167
g6
S'0000000000100011000100011000101000110001'
p168
sg8
(istate
Node
p169
(dp170
g6
S'0000000001100011000100011000101000110001'
p171
sg8
(istate
Node
p172
(dp173
g6
S'0000010001100011000100011000101000110001'
p174
sg8
(istate
Node
p175
(dp176
g6
S'0000110001100011000100011000101000110001'
p177
sg8
(istate
Node
p178
(dp179
g6
S'1000110001100011000100011000101000110001'
p180
sg8
Nsg21
(lp181
I01
aI00
aI00
aI00
aI01
aI01
aI00
aI00
aI00
aI01
aI01
aI00
aI00
aI00
aI01
aI01
aI00
aI00
aI00
aI01
aI00
aI00
aI00
aI01
aI01
aI00
aI00
aI00
aI01
aI00
aI01
aI00
aI00
aI00
aI01
aI01
aI00
aI00
aI00
aI01
asg23
I-1
sg24
I0
sg25
Nsbsg21
(lp182
I00
aI00
aI00
aI00
aI01
aI01
aI00
aI00
aI00
aI01
aI01
aI00
aI00
aI00
aI01
aI01
aI00
aI00
aI00
aI01
aI00
aI00
aI00
aI01
aI01
aI00
aI00
aI00
aI01
aI00
aI01
aI00
aI00
aI00
aI01
aI01
aI00
aI00
aI00
aI01
asg23
I0
sg24
I1
sg25
I01
sbsg21
(lp183
I00
aI00
aI00
aI00
aI00
aI01
aI00
aI00
aI00
aI01
aI01
aI00
aI00
aI00
aI01
aI01
aI00
aI00
aI00
aI01
aI00
aI00
aI00
aI01
aI01
aI00
aI00
aI00
aI01
aI00
aI01
aI00
aI00
aI00
aI01
aI01
aI00
aI00
aI00
aI01
asg23
I4
sg24
I2
sg25
I01
sbsg21
(lp184
I00
aI00
aI00
aI00
aI00
aI00
aI00
aI00
aI00
aI01
aI01
aI00
aI00
aI00
aI01
aI01
aI00
aI00
aI00
aI01
aI00
aI00
aI00
aI01
aI01
aI00
aI00
aI00
aI01
aI00
aI01
aI00
aI00
aI00
aI01
aI01
aI00
aI00
aI00
aI01
asg23
I5
sg24
I3
sg25
I01
sbsg21
(lp185
I00
aI00
aI00
aI00
aI00
aI00
aI00
aI00
aI00
aI00
aI01
aI00
aI00
aI00
aI01
aI01
aI00
aI00
aI00
aI01
aI00
aI00
aI00
aI01
aI01
aI00
aI00
aI00
aI01
aI00
aI01
aI00
aI00
aI00
aI01
aI01
aI00
aI00
aI00
aI01
asg23
I9
sg24
I4
sg25
I01
sba(lp186
I0
aI4
aI5
aI9
aaI4
aI51
aI4
aF0.07704401016235352
aaa(lp187
(lp188
I00
aI00
aI00
aI00
aI00
aI00
aI00
aI00
aI00
aI01
aI00
aI00
aI00
aI01
aI01
aI00
aI00
aI00
aI01
aI00
aI00
aI00
aI01
aI01
aI00
aI00
aI00
aI01
aI00
aI01
aI01
aI00
aI00
aI01
aI01
aI01
aI00
aI00
aI01
aI01
aa(lp189
g188
a(istate
Node
p190
(dp191
g6
S'0000000000000000001000110001011001110011'
p192
sg8
(istate
Node
p193
(dp194
g6
S'0000000000000010001000110001011001110011'
p195
sg8
(istate
Node
p196
(dp197
g6
S'0000000000000110001000110001011001110011'
p198
sg8
(istate
Node
p199
(dp200
g6
S'0000000001000110001000110001011001110011'
p201
sg8
Nsg21
(lp202
I00
aI00
aI00
aI00
aI00
aI00
aI00
aI00
aI00
aI01
aI00
aI00
aI00
aI01
aI01
aI00
aI00
aI00
aI01
aI00
aI00
aI00
aI01
aI01
aI00
aI00
aI00
aI01
aI00
aI01
aI01
aI00
aI00
aI01
aI01
aI01
aI00
aI00
aI01
aI01
asg23
I-1
sg24
I0
sg25
Nsbsg21
(lp203
I00
aI00
aI00
aI00
aI00
aI00
aI00
aI00
aI00
aI00
aI00
aI00
aI00
aI01
aI01
aI00
aI00
aI00
aI01
aI00
aI00
aI00
aI01
aI01
aI00
aI00
aI00
aI01
aI00
aI01
aI01
aI00
aI00
aI01
aI01
aI01
aI00
aI00
aI01
aI01
asg23
I9
sg24
I1
sg25
I01
sbsg21
(lp204
I00
aI00
aI00
aI00
aI00
aI00
aI00
aI00
aI00
aI00
aI00
aI00
aI00
aI00
aI01
aI00
aI00
aI00
aI01
aI00
aI00
aI00
aI01
aI01
aI00
aI00
aI00
aI01
aI00
aI01
aI01
aI00
aI00
aI01
aI01
aI01
aI00
aI00
aI01
aI01
asg23
I13
sg24
I2
sg25
I01
sbsg21
(lp205
I00
aI00
aI00
aI00
aI00
aI00
aI00
aI00
aI00
aI00
aI00
aI00
aI00
aI00
aI00
aI00
aI00
aI00
aI01
aI00
aI00
aI00
aI01
aI01
aI00
aI00
aI00
aI01
aI00
aI01
aI01
aI00
aI00
aI01
aI01
aI01
aI00
aI00
aI01
aI01
asg23
I14
sg24
I3
sg25
I01
sba(lp206
I9
aI13
aI14
aaI3
aI37
aI3
aF0.03886890411376953
aaa(lp207
(lp208
I01
aI00
aI01
aI00
aI01
aI01
aI01
aI01
aI00
aI01
aI01
aI01
aI00
aI01
aI01
aI01
aI00
aI00
aI01
aI01
aI00
aI00
aI00
aI00
aI00
aI00
aI00
aI00
aI00
aI00
aI00
aI00
aI00
aI00
aI00
aI00
aI00
aI00
aI00
aI00
aa(lp209
g208
a(istate
Node
p210
(dp211
g6
S'0010001101110111001100000000000000000000'
p212
sg8
(istate
Node
p213
(dp214
g6
S'0010011101110111001100000000000000000000'
p215
sg8
(istate
Node
p216
(dp217
g6
S'0010111101110111001100000000000000000000'
p218
sg8
(istate
Node
p219
(dp220
g6
S'1010111101110111001100000000000000000000'
p221
sg8
Nsg21
(lp222
I01
aI00
aI01
aI00
aI01
aI01
aI01
aI01
aI00
aI01
aI01
aI01
aI00
aI01
aI01
aI01
aI00
aI00
aI01
aI01
aI00
aI00
aI00
aI00
aI00
aI00
aI00
aI00
aI00
aI00
aI00
aI00
aI00
aI00
aI00
aI00
aI00
aI00
aI00
aI00
asg23
I-1
sg24
I0
sg25
Nsbsg21
(lp223
I00
aI00
aI01
aI00
aI01
aI01
aI01
aI01
aI00
aI01
aI01
aI01
aI00
aI01
aI01
aI01
aI00
aI00
aI01
aI01
aI00
aI00
aI00
aI00
aI00
aI00
aI00
aI00
aI00
aI00
aI00
aI00
aI00
aI00
aI00
aI00
aI00
aI00
aI00
aI00
asg23
I0
sg24
I1
sg25
I01
sbsg21
(lp224
I00
aI00
aI01
aI00
aI00
aI01
aI01
aI01
aI00
aI01
aI01
aI01
aI00
aI01
aI01
aI01
aI00
aI00
aI01
aI01
aI00
aI00
aI00
aI00
aI00
aI00
aI00
aI00
aI00
aI00
aI00
aI00
aI00
aI00
aI00
aI00
aI00
aI00
aI00
aI00
asg23
I4
sg24
I2
sg25
I01
sbsg21
(lp225
I00
aI00
aI01
aI00
aI00
aI00
aI01
aI01
aI00
aI01
aI01
aI01
aI00
aI01
aI01
aI01
aI00
aI00
aI01
aI01
aI00
aI00
aI00
aI00
aI00
aI00
aI00
aI00
aI00
aI00
aI00
aI00
aI00
aI00
aI00
aI00
aI00
aI00
aI00
aI00
asg23
I5
sg24
I3
sg25
I01
sba(lp226
I0
aI4
aI5
aaI14
aI92
aI4099
aF13.761590003967285
aaa.