(lp0
(lp1
(lp2
I0
aI0
aI0
aI0
aI0
aI0
aa(lp3
I0
aI0
aI0
aI0
aI0
aI0
aa(lp4
I0
aI0
aI0
aI3
aI3
aI3
aa(lp5
I0
aI0
aI0
aI3
aI3
aI3
aa(lp6
I0
aI0
aI0
aI3
aI3
aI3
aa(lp7
I0
aI0
aI0
aI0
aI0
aI0
aaa(lp8
(lp9
I0
aI0
aI0
aI0
aI0
aI0
aa(lp10
I0
aI0
aI0
aI0
aI0
aI0
aa(lp11
I0
aI0
aI0
aI0
aI0
aI0
aa(lp12
I0
aI0
aI3
aI3
aI3
aI0
aa(lp13
I0
aI0
aI3
aI3
aI3
aI0
aa(lp14
I0
aI0
aI3
aI3
aI3
aI0
aaa(lp15
(lp16
I0
aI0
aI0
aI0
aI0
aI0
aa(lp17
I0
aI0
aI0
aI0
aI0
aI0
aa(lp18
I0
aI2
aI2
aI0
aI0
aI0
aa(lp19
I0
aI2
aI2
aI0
aI0
aI0
aa(lp20
I0
aI0
aI0
aI0
aI0
aI0
aa(lp21
I0
aI0
aI0
aI0
aI0
aI0
aaa(lp22
(lp23
I0
aI0
aI0
aI0
aI0
aI0
aa(lp24
I1
aI0
aI0
aI0
aI0
aI0
aa(lp25
I0
aI0
aI0
aI0
aI0
aI0
aa(lp26
I0
aI0
aI0
aI0
aI0
aI0
aa(lp27
I0
aI0
aI0
aI0
aI0
aI0
aa(lp28
I0
aI0
aI0
aI0
aI0
aI0
aaa(lp29
(lp30
I0
aI0
aI0
aI0
aI0
aI0
aa(lp31
I0
aI0
aI0
aI2
aI2
aI0
aa(lp32
I0
aI0
aI0
aI2
aI2
aI0
aa(lp33
I0
aI0
aI0
aI0
aI0
aI0
aa(lp34
I0
aI0
aI0
aI0
aI0
aI0
aa(lp35
I0
aI0
aI0
aI0
aI0
aI0
aaa(lp36
(lp37
I0
aI0
aI0
aI0
aI0
aI0
aa(lp38
I0
aI2
aI2
aI0
aI0
aI0
aa(lp39
I0
aI2
aI2
aI0
aI0
aI0
aa(lp40
I0
aI0
aI0
aI0
aI0
aI0
aa(lp41
I0
aI0
aI0
aI0
aI0
aI0
aa(lp42
I0
aI0
aI0
aI0
aI0
aI0
aaa(lp43
(lp44
I0
aI0
aI0
aI0
aI0
aI0
aa(lp45
I0
aI0
aI0
aI3
aI3
aI3
aa(lp46
I0
aI0
aI0
aI3
aI3
aI3
aa(lp47
I0
aI0
aI0
aI3
aI3
aI3
aa(lp48
I0
aI0
aI0
aI0
aI0
aI0
aa(lp49
I0
aI0
aI0
aI0
aI0
aI0
aaa(lp50
(lp51
I0
aI0
aI0
aI0
aI0
aI0
aa(lp52
I0
aI0
aI0
aI0
aI0
aI0
aa(lp53
I0
aI0
aI0
aI0
aI1
aI0
aa(lp54
I0
aI0
aI0
aI0
aI0
aI0
aa(lp55
I0
aI0
aI0
aI0
aI0
aI0
aa(lp56
I0
aI0
aI0
aI0
aI0
aI0
aaa(lp57
(lp58
I0
aI0
aI0
aI0
aI0
aI0
aa(lp59
I0
aI0
aI0
aI0
aI0
aI0
aa(lp60
I0
aI0
aI0
aI0
aI0
aI0
aa(lp61
I0
aI2
aI2
aI0
aI0
aI0
aa(lp62
I0
aI2
aI2
aI0
aI0
aI0
aa(lp63
I0
aI0
aI0
aI0
aI0
aI0
aaa(lp64
(lp65
I0
aI0
aI0
aI0
aI0
aI1
aa(lp66
I0
aI0
aI0
aI0
aI0
aI0
aa(lp67
I0
aI0
aI0
aI0
aI0
aI0
aa(lp68
I0
aI0
aI0
aI0
aI0
aI0
aa(lp69
I0
aI0
aI0
aI0
aI0
aI0
aa(lp70
I0
aI0
aI0
aI0
aI0
aI0
aaa(lp71
(lp72
I0
aI0
aI0
aI0
aI0
aI0
aa(lp73
I0
aI3
aI3
aI3
aI0
aI0
aa(lp74
I0
aI3
aI3
aI3
aI0
aI0
aa(lp75
I0
aI3
aI3
aI3
aI0
aI0
aa(lp76
I0
aI0
aI0
aI0
aI0
aI0
aa(lp77
I0
aI0
aI0
aI0
aI0
aI0
aaa(lp78
(lp79
I0
aI0
aI0
aI0
aI0
aI0
aa(lp80
I0
aI0
aI0
aI0
aI0
aI0
aa(lp81
I0
aI0
aI0
aI0
aI0
aI0
aa(lp82
I0
aI0
aI0
aI0
aI0
aI0
aa(lp83
I0
aI0
aI0
aI0
aI0
aI0
aa(lp84
I0
aI1
aI0
aI0
aI0
aI0
aaa(lp85
(lp86
I0
aI0
aI0
aI0
aI0
aI0
aa(lp87
I0
aI0
aI0
aI0
aI0
aI1
aa(lp88
I0
aI0
aI0
aI0
aI0
aI0
aa(lp89
I0
aI0
aI0
aI0
aI0
aI0
aa(lp90
I0
aI0
aI0
aI0
aI0
aI0
aa(lp91
I0
aI0
aI0
aI0
aI0
aI0
aaa(lp92
(lp93
I0
aI0
aI0
aI0
aI0
aI0
aa(lp94
I0
aI0
aI4
aI4
aI4
aI4
aa(lp95
I0
aI0
aI4
aI4
aI4
aI4
aa(lp96
I0
aI0
aI4
aI4
aI4
aI4
aa(lp97
I0
aI0
aI4
aI4
aI4
aI4
aa(lp98
I0
aI0
aI0
aI0
aI0
aI0
aaa(lp99
(lp100
I0
aI0
aI0
aI0
aI0
aI0
aa(lp101
I0
aI5
aI5
aI5
aI5
aI5
aa(lp102
I0
aI5
aI5
aI5
aI5
aI5
aa(lp103
I0
aI5
aI5
aI5
aI5
aI5
aa(lp104
I0
aI5
aI5
aI5
aI5
aI5
aa(lp105
I0
aI5
aI5
aI5
aI5
aI5
aaa(lp106
(lp107
I0
aI0
aI0
aI0
aI0
aI0
aa(lp108
I0
aI0
aI0
aI0
aI0
aI0
aa(lp109
I0
aI0
aI0
aI0
aI0
aI1
aa(lp110
I0
aI0
aI0
aI0
aI0
aI0
aa(lp111
I0
aI0
aI0
aI0
aI0
aI0
aa(lp112
I0
aI0
aI0
aI0
aI0
aI0
aaa(lp113
(lp114
I0
aI0
aI0
aI0
aI0
aI0
aa(lp115
I0
aI0
aI0
aI0
aI0
aI0
aa(lp116
I0
aI0
aI0
aI0
aI0
aI0
aa(lp117
I0
aI0
aI0
aI0
aI0
aI0
aa(lp118
I0
aI0
aI0
aI0
aI0
aI0
aa(lp119
I0
aI0
aI1
aI0
aI0
aI0
aaa(lp120
(lp121
I0
aI0
aI0
aI0
aI0
aI0
aa(lp122
I0
aI0
aI0
aI0
aI0
aI0
aa(lp123
I0
aI0
aI0
aI0
aI0
aI0
aa(lp124
I0
aI0
aI0
aI0
aI0
aI0
aa(lp125
I0
aI0
aI0
aI0
aI2
aI2
aa(lp126
I0
aI0
aI0
aI0
aI2
aI2
aaa(lp127
(lp128
I0
aI0
aI0
aI0
aI0
aI0
aa(lp129
I0
aI0
aI0
aI0
aI0
aI0
aa(lp130
I0
aI0
aI0
aI0
aI0
aI0
aa(lp131
I0
aI0
aI0
aI1
aI0
aI0
aa(lp132
I0
aI0
aI0
aI0
aI0
aI0
aa(lp133
I0
aI0
aI0
aI0
aI0
aI0
aaa(lp134
(lp135
I0
aI0
aI0
aI0
aI0
aI0
aa(lp136
I0
aI0
aI0
aI0
aI0
aI0
aa(lp137
I0
aI0
aI0
aI0
aI0
aI0
aa(lp138
I0
aI0
aI0
aI0
aI0
aI0
aa(lp139
I0
aI0
aI0
aI0
aI0
aI0
aa(lp140
I0
aI0
aI0
aI0
aI0
aI1
aaa(lp141
(lp142
I0
aI0
aI0
aI0
aI0
aI0
aa(lp143
I0
aI0
aI0
aI0
aI2
aI2
aa(lp144
I0
aI0
aI0
aI0
aI2
aI2
aa(lp145
I0
aI0
aI0
aI0
aI0
aI0
aa(lp146
I0
aI0
aI0
aI0
aI0
aI0
aa(lp147
I0
aI0
aI0
aI0
aI0
aI0
aaa(lp148
(lp149
I0
aI0
aI0
aI0
aI0
aI0
aa(lp150
I0
aI0
aI0
aI0
aI0
aI0
aa(lp151
I0
aI0
aI0
aI0
aI0
aI0
aa(lp152
I0
aI0
aI0
aI0
aI0
aI0
aa(lp153
I1
aI0
aI0
aI0
aI0
aI0
aa(lp154
I0
aI0
aI0
aI0
aI0
aI0
aaa(lp155
(lp156
I0
aI0
aI0
aI0
aI0
aI0
aa(lp157
I0
aI0
aI0
aI0
aI0
aI0
aa(lp158
I0
aI0
aI0
aI0
aI0
aI0
aa(lp159
I0
aI0
aI0
aI0
aI0
aI1
aa(lp160
I0
aI0
aI0
aI0
aI0
aI0
aa(lp161
I0
aI0
aI0
aI0
aI0
aI0
aaa(lp162
(lp163
I0
aI0
aI0
aI0
aI0
aI0
aa(lp164
I0
aI0
aI0
aI0
aI0
aI0
aa(lp165
I0
aI0
aI0
aI0
aI0
aI0
aa(lp166
I0
aI0
aI1
aI0
aI0
aI0
aa(lp167
I0
aI0
aI0
aI0
aI0
aI0
aa(lp168
I0
aI0
aI0
aI0
aI0
aI0
aaa(lp169
(lp170
I0
aI0
aI0
aI0
aI0
aI0
aa(lp171
I0
aI0
aI0
aI0
aI0
aI0
aa(lp172
I0
aI0
aI0
aI0
aI0
aI0
aa(lp173
I3
aI3
aI3
aI0
aI0
aI0
aa(lp174
I3
aI3
aI3
aI0
aI0
aI0
aa(lp175
I3
aI3
aI3
aI0
aI0
aI0
aaa(lp176
(lp177
I0
aI0
aI0
aI0
aI0
aI0
aa(lp178
I0
aI0
aI0
aI0
aI0
aI0
aa(lp179
I0
aI0
aI0
aI0
aI0
aI0
aa(lp180
I0
aI0
aI0
aI0
aI0
aI0
aa(lp181
I0
aI0
aI0
aI0
aI1
aI0
aa(lp182
I0
aI0
aI0
aI0
aI0
aI0
aaa(lp183
(lp184
I0
aI0
aI0
aI0
aI0
aI0
aa(lp185
I0
aI0
aI2
aI2
aI0
aI0
aa(lp186
I0
aI0
aI2
aI2
aI0
aI0
aa(lp187
I0
aI0
aI0
aI0
aI0
aI0
aa(lp188
I0
aI0
aI0
aI0
aI0
aI0
aa(lp189
I0
aI0
aI0
aI0
aI0
aI0
aaa(lp190
(lp191
I0
aI0
aI0
aI0
aI0
aI0
aa(lp192
I4
aI4
aI4
aI4
aI0
aI0
aa(lp193
I4
aI4
aI4
aI4
aI0
aI0
aa(lp194
I4
aI4
aI4
aI4
aI0
aI0
aa(lp195
I4
aI4
aI4
aI4
aI0
aI0
aa(lp196
I0
aI0
aI0
aI0
aI0
aI0
aaa(lp197
(lp198
I0
aI0
aI0
aI0
aI0
aI0
aa(lp199
I0
aI0
aI0
aI0
aI0
aI0
aa(lp200
I0
aI0
aI0
aI0
aI0
aI0
aa(lp201
I0
aI0
aI2
aI2
aI0
aI0
aa(lp202
I0
aI0
aI2
aI2
aI0
aI0
aa(lp203
I0
aI0
aI0
aI0
aI0
aI0
aaa(lp204
(lp205
I0
aI0
aI0
aI0
aI0
aI0
aa(lp206
I0
aI0
aI0
aI0
aI0
aI0
aa(lp207
I0
aI0
aI0
aI0
aI0
aI0
aa(lp208
I0
aI0
aI0
aI0
aI0
aI0
aa(lp209
I0
aI2
aI2
aI0
aI0
aI0
aa(lp210
I0
aI2
aI2
aI0
aI0
aI0
aaa(lp211
(lp212
I0
aI0
aI0
aI0
aI0
aI0
aa(lp213
I0
aI0
aI0
aI0
aI0
aI0
aa(lp214
I0
aI0
aI0
aI0
aI0
aI0
aa(lp215
I0
aI0
aI0
aI0
aI0
aI0
aa(lp216
I0
aI0
aI0
aI0
aI0
aI0
aa(lp217
I1
aI0
aI0
aI0
aI0
aI0
aaa(lp218
(lp219
I0
aI0
aI0
aI0
aI0
aI0
aa(lp220
I0
aI0
aI0
aI0
aI0
aI0
aa(lp221
I4
aI4
aI4
aI4
aI0
aI0
aa(lp222
I4
aI4
aI4
aI4
aI0
aI0
aa(lp223
I4
aI4
aI4
aI4
aI0
aI0
aa(lp224
I4
aI4
aI4
aI4
aI0
aI0
aaa(lp225
(lp226
I0
aI0
aI0
aI0
aI0
aI0
aa(lp227
I0
aI0
aI0
aI0
aI0
aI0
aa(lp228
I0
aI0
aI0
aI0
aI0
aI0
aa(lp229
I0
aI0
aI0
aI0
aI0
aI0
aa(lp230
I0
aI0
aI0
aI0
aI0
aI0
aa(lp231
I0
aI0
aI0
aI1
aI0
aI0
aaa(lp232
(lp233
I0
aI0
aI0
aI0
aI0
aI0
aa(lp234
I0
aI0
aI0
aI0
aI0
aI0
aa(lp235
I0
aI0
aI0
aI0
aI0
aI0
aa(lp236
I0
aI0
aI0
aI0
aI0
aI0
aa(lp237
I0
aI0
aI1
aI0
aI0
aI0
aa(lp238
I0
aI0
aI0
aI0
aI0
aI0
aaa(lp239
(lp240
I0
aI0
aI0
aI0
aI0
aI0
aa(lp241
I0
aI0
aI0
aI0
aI0
aI0
aa(lp242
I0
aI0
aI0
aI0
aI0
aI0
aa(lp243
I0
aI0
aI0
aI0
aI0
aI0
aa(lp244
I0
aI0
aI0
aI0
aI0
aI0
aa(lp245
I0
aI0
aI0
aI0
aI1
aI0
aaa(lp246
(lp247
I0
aI0
aI0
aI0
aI0
aI0
aa(lp248
I3
aI3
aI3
aI0
aI0
aI0
aa(lp249
I3
aI3
aI3
aI0
aI0
aI0
aa(lp250
I3
aI3
aI3
aI0
aI0
aI0
aa(lp251
I0
aI0
aI0
aI0
aI0
aI0
aa(lp252
I0
aI0
aI0
aI0
aI0
aI0
aaa(lp253
(lp254
I0
aI0
aI0
aI0
aI0
aI0
aa(lp255
I0
aI0
aI0
aI0
aI0
aI0
aa(lp256
I0
aI0
aI2
aI2
aI0
aI0
aa(lp257
I0
aI0
aI2
aI2
aI0
aI0
aa(lp258
I0
aI0
aI0
aI0
aI0
aI0
aa(lp259
I0
aI0
aI0
aI0
aI0
aI0
aaa(lp260
(lp261
I0
aI0
aI0
aI0
aI0
aI0
aa(lp262
I0
aI0
aI0
aI0
aI0
aI0
aa(lp263
I0
aI0
aI0
aI0
aI0
aI0
aa(lp264
I0
aI0
aI0
aI0
aI0
aI0
aa(lp265
I0
aI0
aI2
aI2
aI0
aI0
aa(lp266
I0
aI0
aI2
aI2
aI0
aI0
aaa(lp267
(lp268
I0
aI0
aI0
aI0
aI0
aI0
aa(lp269
I0
aI0
aI0
aI0
aI0
aI0
aa(lp270
I0
aI0
aI0
aI0
aI2
aI2
aa(lp271
I0
aI0
aI0
aI0
aI2
aI2
aa(lp272
I0
aI0
aI0
aI0
aI0
aI0
aa(lp273
I0
aI0
aI0
aI0
aI0
aI0
aaa(lp274
(lp275
I0
aI0
aI3
aI3
aI3
aI0
aa(lp276
I0
aI0
aI3
aI3
aI3
aI0
aa(lp277
I0
aI0
aI3
aI3
aI3
aI0
aa(lp278
I0
aI0
aI0
aI0
aI0
aI0
aa(lp279
I0
aI0
aI0
aI0
aI0
aI0
aa(lp280
I0
aI0
aI0
aI0
aI0
aI0
aaa(lp281
(lp282
I0
aI0
aI0
aI0
aI0
aI0
aa(lp283
I0
aI0
aI0
aI0
aI0
aI0
aa(lp284
I0
aI0
aI0
aI0
aI0
aI0
aa(lp285
I0
aI0
aI0
aI2
aI2
aI0
aa(lp286
I0
aI0
aI0
aI2
aI2
aI0
aa(lp287
I0
aI0
aI0
aI0
aI0
aI0
aaa(lp288
(lp289
I0
aI0
aI0
aI3
aI3
aI3
aa(lp290
I0
aI0
aI0
aI3
aI3
aI3
aa(lp291
I0
aI0
aI0
aI3
aI3
aI3
aa(lp292
I0
aI0
aI0
aI0
aI0
aI0
aa(lp293
I0
aI0
aI0
aI0
aI0
aI0
aa(lp294
I0
aI0
aI0
aI0
aI0
aI0
aaa(lp295
(lp296
I0
aI0
aI0
aI0
aI0
aI0
aa(lp297
I0
aI0
aI0
aI0
aI0
aI0
aa(lp298
I0
aI0
aI0
aI0
aI0
aI0
aa(lp299
I0
aI0
aI0
aI0
aI0
aI0
aa(lp300
I2
aI2
aI0
aI0
aI0
aI0
aa(lp301
I2
aI2
aI0
aI0
aI0
aI0
aaa(lp302
(lp303
I0
aI0
aI0
aI0
aI0
aI0
aa(lp304
I0
aI0
aI0
aI0
aI0
aI0
aa(lp305
I0
aI0
aI0
aI0
aI0
aI0
aa(lp306
I2
aI2
aI0
aI0
aI0
aI0
aa(lp307
I2
aI2
aI0
aI0
aI0
aI0
aa(lp308
I0
aI0
aI0
aI0
aI0
aI0
aaa(lp309
(lp310
I3
aI3
aI3
aI0
aI0
aI0
aa(lp311
I3
aI3
aI3
aI0
aI0
aI0
aa(lp312
I3
aI3
aI3
aI0
aI0
aI0
aa(lp313
I0
aI0
aI0
aI0
aI0
aI0
aa(lp314
I0
aI0
aI0
aI0
aI0
aI0
aa(lp315
I0
aI0
aI0
aI0
aI0
aI0
aaa(lp316
(lp317
I0
aI0
aI0
aI0
aI0
aI0
aa(lp318
I0
aI0
aI0
aI0
aI0
aI0
aa(lp319
I0
aI0
aI0
aI1
aI0
aI0
aa(lp320
I0
aI0
aI0
aI0
aI0
aI0
aa(lp321
I0
aI0
aI0
aI0
aI0
aI0
aa(lp322
I0
aI0
aI0
aI0
aI0
aI0
aaa(lp323
(lp324
I0
aI0
aI0
aI0
aI0
aI0
aa(lp325
I0
aI0
aI0
aI0
aI0
aI0
aa(lp326
I0
aI0
aI0
aI0
aI0
aI0
aa(lp327
I0
aI0
aI0
aI0
aI0
aI0
aa(lp328
I0
aI0
aI0
aI1
aI0
aI0
aa(lp329
I0
aI0
aI0
aI0
aI0
aI0
aaa(lp330
(lp331
I0
aI0
aI0
aI0
aI0
aI0
aa(lp332
I0
aI0
aI0
aI0
aI0
aI0
aa(lp333
I1
aI0
aI0
aI0
aI0
aI0
aa(lp334
I0
aI0
aI0
aI0
aI0
aI0
aa(lp335
I0
aI0
aI0
aI0
aI0
aI0
aa(lp336
I0
aI0
aI0
aI0
aI0
aI0
aaa(lp337
(lp338
I2
aI2
aI0
aI0
aI0
aI0
aa(lp339
I2
aI2
aI0
aI0
aI0
aI0
aa(lp340
I0
aI0
aI0
aI0
aI0
aI0
aa(lp341
I0
aI0
aI0
aI0
aI0
aI0
aa(lp342
I0
aI0
aI0
aI0
aI0
aI0
aa(lp343
I0
aI0
aI0
aI0
aI0
aI0
aaa(lp344
(lp345
I0
aI0
aI0
aI1
aI0
aI0
aa(lp346
I0
aI0
aI0
aI0
aI0
aI0
aa(lp347
I0
aI0
aI0
aI0
aI0
aI0
aa(lp348
I0
aI0
aI0
aI0
aI0
aI0
aa(lp349
I0
aI0
aI0
aI0
aI0
aI0
aa(lp350
I0
aI0
aI0
aI0
aI0
aI0
aaa(lp351
(lp352
I0
aI0
aI0
aI0
aI0
aI0
aa(lp353
I0
aI0
aI0
aI0
aI0
aI0
aa(lp354
I0
aI0
aI0
aI2
aI2
aI0
aa(lp355
I0
aI0
aI0
aI2
aI2
aI0
aa(lp356
I0
aI0
aI0
aI0
aI0
aI0
aa(lp357
I0
aI0
aI0
aI0
aI0
aI0
aaa(lp358
(lp359
I0
aI0
aI0
aI0
aI0
aI0
aa(lp360
I0
aI0
aI0
aI0
aI0
aI0
aa(lp361
I0
aI0
aI0
aI0
aI0
aI0
aa(lp362
I0
aI0
aI0
aI0
aI1
aI0
aa(lp363
I0
aI0
aI0
aI0
aI0
aI0
aa(lp364
I0
aI0
aI0
aI0
aI0
aI0
aaa(lp365
(lp366
I0
aI0
aI0
aI0
aI1
aI0
aa(lp367
I0
aI0
aI0
aI0
aI0
aI0
aa(lp368
I0
aI0
aI0
aI0
aI0
aI0
aa(lp369
I0
aI0
aI0
aI0
aI0
aI0
aa(lp370
I0
aI0
aI0
aI0
aI0
aI0
aa(lp371
I0
aI0
aI0
aI0
aI0
aI0
aaa(lp372
(lp373
I0
aI3
aI3
aI3
aI0
aI0
aa(lp374
I0
aI3
aI3
aI3
aI0
aI0
aa(lp375
I0
aI3
aI3
aI3
aI0
aI0
aa(lp376
I0
aI0
aI0
aI0
aI0
aI0
aa(lp377
I0
aI0
aI0
aI0
aI0
aI0
aa(lp378
I0
aI0
aI0
aI0
aI0
aI0
aaa(lp379
(lp380
I0
aI0
aI0
aI0
aI0
aI0
aa(lp381
I0
aI0
aI0
aI0
aI0
aI0
aa(lp382
I0
aI0
aI0
aI0
aI0
aI0
aa(lp383
I0
aI0
aI0
aI0
aI0
aI0
aa(lp384
I0
aI0
aI0
aI0
aI0
aI1
aa(lp385
I0
aI0
aI0
aI0
aI0
aI0
aaa(lp386
(lp387
I0
aI0
aI0
aI0
aI0
aI0
aa(lp388
I0
aI0
aI0
aI1
aI0
aI0
aa(lp389
I0
aI0
aI0
aI0
aI0
aI0
aa(lp390
I0
aI0
aI0
aI0
aI0
aI0
aa(lp391
I0
aI0
aI0
aI0
aI0
aI0
aa(lp392
I0
aI0
aI0
aI0
aI0
aI0
aaa(lp393
(lp394
I0
aI0
aI0
aI0
aI0
aI0
aa(lp395
I0
aI0
aI0
aI0
aI0
aI0
aa(lp396
I0
aI0
aI0
aI0
aI0
aI0
aa(lp397
I0
aI3
aI3
aI3
aI0
aI0
aa(lp398
I0
aI3
aI3
aI3
aI0
aI0
aa(lp399
I0
aI3
aI3
aI3
aI0
aI0
aaa(lp400
(lp401
I0
aI0
aI0
aI0
aI0
aI0
aa(lp402
I0
aI0
aI0
aI0
aI0
aI0
aa(lp403
I2
aI2
aI0
aI0
aI0
aI0
aa(lp404
I2
aI2
aI0
aI0
aI0
aI0
aa(lp405
I0
aI0
aI0
aI0
aI0
aI0
aa(lp406
I0
aI0
aI0
aI0
aI0
aI0
aaa(lp407
(lp408
I0
aI0
aI0
aI0
aI0
aI0
aa(lp409
I0
aI0
aI0
aI0
aI0
aI0
aa(lp410
I0
aI0
aI0
aI0
aI0
aI0
aa(lp411
I0
aI1
aI0
aI0
aI0
aI0
aa(lp412
I0
aI0
aI0
aI0
aI0
aI0
aa(lp413
I0
aI0
aI0
aI0
aI0
aI0
aaa(lp414
(lp415
I0
aI0
aI0
aI0
aI0
aI0
aa(lp416
I0
aI0
aI0
aI0
aI0
aI0
aa(lp417
I0
aI0
aI1
aI0
aI0
aI0
aa(lp418
I0
aI0
aI0
aI0
aI0
aI0
aa(lp419
I0
aI0
aI0
aI0
aI0
aI0
aa(lp420
I0
aI0
aI0
aI0
aI0
aI0
aaa(lp421
(lp422
I0
aI0
aI0
aI0
aI0
aI0
aa(lp423
I0
aI0
aI0
aI0
aI0
aI0
aa(lp424
I0
aI0
aI0
aI0
aI0
aI0
aa(lp425
I0
aI0
aI0
aI0
aI2
aI2
aa(lp426
I0
aI0
aI0
aI0
aI2
aI2
aa(lp427
I0
aI0
aI0
aI0
aI0
aI0
aaa(lp428
(lp429
I0
aI0
aI2
aI2
aI0
aI0
aa(lp430
I0
aI0
aI2
aI2
aI0
aI0
aa(lp431
I0
aI0
aI0
aI0
aI0
aI0
aa(lp432
I0
aI0
aI0
aI0
aI0
aI0
aa(lp433
I0
aI0
aI0
aI0
aI0
aI0
aa(lp434
I0
aI0
aI0
aI0
aI0
aI0
aaa(lp435
(lp436
I0
aI0
aI0
aI0
aI0
aI0
aa(lp437
I0
aI0
aI0
aI0
aI0
aI0
aa(lp438
I0
aI0
aI0
aI0
aI0
aI0
aa(lp439
I0
aI0
aI0
aI3
aI3
aI3
aa(lp440
I0
aI0
aI0
aI3
aI3
aI3
aa(lp441
I0
aI0
aI0
aI3
aI3
aI3
aaa(lp442
(lp443
I0
aI0
aI0
aI0
aI0
aI0
aa(lp444
I0
aI0
aI0
aI0
aI1
aI0
aa(lp445
I0
aI0
aI0
aI0
aI0
aI0
aa(lp446
I0
aI0
aI0
aI0
aI0
aI0
aa(lp447
I0
aI0
aI0
aI0
aI0
aI0
aa(lp448
I0
aI0
aI0
aI0
aI0
aI0
aaa(lp449
(lp450
I6
aI6
aI6
aI6
aI6
aI6
aa(lp451
I6
aI6
aI6
aI6
aI6
aI6
aa(lp452
I6
aI6
aI6
aI6
aI6
aI6
aa(lp453
I6
aI6
aI6
aI6
aI6
aI6
aa(lp454
I6
aI6
aI6
aI6
aI6
aI6
aa(lp455
I6
aI6
aI6
aI6
aI6
aI6
aaa(lp456
(lp457
I0
aI0
aI1
aI0
aI0
aI0
aa(lp458
I0
aI0
aI0
aI0
aI0
aI0
aa(lp459
I0
aI0
aI0
aI0
aI0
aI0
aa(lp460
I0
aI0
aI0
aI0
aI0
aI0
aa(lp461
I0
aI0
aI0
aI0
aI0
aI0
aa(lp462
I0
aI0
aI0
aI0
aI0
aI0
aaa(lp463
(lp464
I0
aI0
aI0
aI0
aI0
aI0
aa(lp465
I0
aI0
aI0
aI0
aI0
aI0
aa(lp466
I0
aI0
aI0
aI0
aI0
aI0
aa(lp467
I0
aI0
aI0
aI0
aI0
aI0
aa(lp468
I0
aI0
aI0
aI2
aI2
aI0
aa(lp469
I0
aI0
aI0
aI2
aI2
aI0
aaa(lp470
(lp471
I0
aI0
aI0
aI0
aI0
aI0
aa(lp472
I0
aI0
aI0
aI0
aI0
aI0
aa(lp473
I0
aI0
aI0
aI0
aI0
aI0
aa(lp474
I0
aI0
aI0
aI0
aI0
aI0
aa(lp475
I0
aI1
aI0
aI0
aI0
aI0
aa(lp476
I0
aI0
aI0
aI0
aI0
aI0
aaa(lp477
(lp478
I0
aI0
aI0
aI0
aI0
aI0
aa(lp479
I0
aI0
aI0
aI0
aI0
aI0
aa(lp480
I0
aI0
aI0
aI0
aI0
aI0
aa(lp481
I1
aI0
aI0
aI0
aI0
aI0
aa(lp482
I0
aI0
aI0
aI0
aI0
aI0
aa(lp483
I0
aI0
aI0
aI0
aI0
aI0
aaa(lp484
(lp485
I0
aI0
aI0
aI0
aI2
aI2
aa(lp486
I0
aI0
aI0
aI0
aI2
aI2
aa(lp487
I0
aI0
aI0
aI0
aI0
aI0
aa(lp488
I0
aI0
aI0
aI0
aI0
aI0
aa(lp489
I0
aI0
aI0
aI0
aI0
aI0
aa(lp490
I0
aI0
aI0
aI0
aI0
aI0
aaa(lp491
(lp492
I0
aI2
aI2
aI0
aI0
aI0
aa(lp493
I0
aI2
aI2
aI0
aI0
aI0
aa(lp494
I0
aI0
aI0
aI0
aI0
aI0
aa(lp495
I0
aI0
aI0
aI0
aI0
aI0
aa(lp496
I0
aI0
aI0
aI0
aI0
aI0
aa(lp497
I0
aI0
aI0
aI0
aI0
aI0
aaa(lp498
(lp499
I0
aI0
aI0
aI0
aI0
aI0
aa(lp500
I5
aI5
aI5
aI5
aI5
aI0
aa(lp501
I5
aI5
aI5
aI5
aI5
aI0
aa(lp502
I5
aI5
aI5
aI5
aI5
aI0
aa(lp503
I5
aI5
aI5
aI5
aI5
aI0
aa(lp504
I5
aI5
aI5
aI5
aI5
aI0
aaa(lp505
(lp506
I0
aI0
aI0
aI0
aI0
aI0
aa(lp507
I0
aI0
aI0
aI0
aI0
aI0
aa(lp508
I0
aI0
aI4
aI4
aI4
aI4
aa(lp509
I0
aI0
aI4
aI4
aI4
aI4
aa(lp510
I0
aI0
aI4
aI4
aI4
aI4
aa(lp511
I0
aI0
aI4
aI4
aI4
aI4
aaa(lp512
(lp513
I0
aI0
aI0
aI0
aI0
aI0
aa(lp514
I0
aI0
aI0
aI0
aI0
aI0
aa(lp515
I0
aI4
aI4
aI4
aI4
aI0
aa(lp516
I0
aI4
aI4
aI4
aI4
aI0
aa(lp517
I0
aI4
aI4
aI4
aI4
aI0
aa(lp518
I0
aI4
aI4
aI4
aI4
aI0
aaa(lp519
(lp520
I0
aI0
aI0
aI0
aI0
aI0
aa(lp521
I0
aI0
aI3
aI3
aI3
aI0
aa(lp522
I0
aI0
aI3
aI3
aI3
aI0
aa(lp523
I0
aI0
aI3
aI3
aI3
aI0
aa(lp524
I0
aI0
aI0
aI0
aI0
aI0
aa(lp525
I0
aI0
aI0
aI0
aI0
aI0
aaa(lp526
(lp527
I0
aI0
aI0
aI0
aI0
aI0
aa(lp528
I0
aI1
aI0
aI0
aI0
aI0
aa(lp529
I0
aI0
aI0
aI0
aI0
aI0
aa(lp530
I0
aI0
aI0
aI0
aI0
aI0
aa(lp531
I0
aI0
aI0
aI0
aI0
aI0
aa(lp532
I0
aI0
aI0
aI0
aI0
aI0
aaa(lp533
(lp534
I4
aI4
aI4
aI4
aI0
aI0
aa(lp535
I4
aI4
aI4
aI4
aI0
aI0
aa(lp536
I4
aI4
aI4
aI4
aI0
aI0
aa(lp537
I4
aI4
aI4
aI4
aI0
aI0
aa(lp538
I0
aI0
aI0
aI0
aI0
aI0
aa(lp539
I0
aI0
aI0
aI0
aI0
aI0
aaa(lp540
(lp541
I0
aI1
aI0
aI0
aI0
aI0
aa(lp542
I0
aI0
aI0
aI0
aI0
aI0
aa(lp543
I0
aI0
aI0
aI0
aI0
aI0
aa(lp544
I0
aI0
aI0
aI0
aI0
aI0
aa(lp545
I0
aI0
aI0
aI0
aI0
aI0
aa(lp546
I0
aI0
aI0
aI0
aI0
aI0
aaa(lp547
(lp548
I0
aI0
aI0
aI0
aI0
aI0
aa(lp549
I2
aI2
aI0
aI0
aI0
aI0
aa(lp550
I2
aI2
aI0
aI0
aI0
aI0
aa(lp551
I0
aI0
aI0
aI0
aI0
aI0
aa(lp552
I0
aI0
aI0
aI0
aI0
aI0
aa(lp553
I0
aI0
aI0
aI0
aI0
aI0
aaa(lp554
(lp555
I5
aI5
aI5
aI5
aI5
aI0
aa(lp556
I5
aI5
aI5
aI5
aI5
aI0
aa(lp557
I5
aI5
aI5
aI5
aI5
aI0
aa(lp558
I5
aI5
aI5
aI5
aI5
aI0
aa(lp559
I5
aI5
aI5
aI5
aI5
aI0
aa(lp560
I0
aI0
aI0
aI0
aI0
aI0
aaa(lp561
(lp562
I0
aI4
aI4
aI4
aI4
aI0
aa(lp563
I0
aI4
aI4
aI4
aI4
aI0
aa(lp564
I0
aI4
aI4
aI4
aI4
aI0
aa(lp565
I0
aI4
aI4
aI4
aI4
aI0
aa(lp566
I0
aI0
aI0
aI0
aI0
aI0
aa(lp567
I0
aI0
aI0
aI0
aI0
aI0
aaa(lp568
(lp569
I0
aI0
aI0
aI0
aI0
aI0
aa(lp570
I0
aI0
aI1
aI0
aI0
aI0
aa(lp571
I0
aI0
aI0
aI0
aI0
aI0
aa(lp572
I0
aI0
aI0
aI0
aI0
aI0
aa(lp573
I0
aI0
aI0
aI0
aI0
aI0
aa(lp574
I0
aI0
aI0
aI0
aI0
aI0
aaa(lp575
(lp576
I0
aI5
aI5
aI5
aI5
aI5
aa(lp577
I0
aI5
aI5
aI5
aI5
aI5
aa(lp578
I0
aI5
aI5
aI5
aI5
aI5
aa(lp579
I0
aI5
aI5
aI5
aI5
aI5
aa(lp580
I0
aI5
aI5
aI5
aI5
aI5
aa(lp581
I0
aI0
aI0
aI0
aI0
aI0
aaa(lp582
(lp583
I0
aI0
aI0
aI0
aI0
aI0
aa(lp584
I0
aI0
aI0
aI0
aI0
aI0
aa(lp585
I0
aI0
aI3
aI3
aI3
aI0
aa(lp586
I0
aI0
aI3
aI3
aI3
aI0
aa(lp587
I0
aI0
aI3
aI3
aI3
aI0
aa(lp588
I0
aI0
aI0
aI0
aI0
aI0
aaa(lp589
(lp590
I0
aI0
aI4
aI4
aI4
aI4
aa(lp591
I0
aI0
aI4
aI4
aI4
aI4
aa(lp592
I0
aI0
aI4
aI4
aI4
aI4
aa(lp593
I0
aI0
aI4
aI4
aI4
aI4
aa(lp594
I0
aI0
aI0
aI0
aI0
aI0
aa(lp595
I0
aI0
aI0
aI0
aI0
aI0
aaa(lp596
(lp597
I0
aI0
aI0
aI0
aI0
aI0
aa(lp598
I0
aI0
aI0
aI0
aI0
aI0
aa(lp599
I0
aI3
aI3
aI3
aI0
aI0
aa(lp600
I0
aI3
aI3
aI3
aI0
aI0
aa(lp601
I0
aI3
aI3
aI3
aI0
aI0
aa(lp602
I0
aI0
aI0
aI0
aI0
aI0
aaa(lp603
(lp604
I0
aI0
aI0
aI2
aI2
aI0
aa(lp605
I0
aI0
aI0
aI2
aI2
aI0
aa(lp606
I0
aI0
aI0
aI0
aI0
aI0
aa(lp607
I0
aI0
aI0
aI0
aI0
aI0
aa(lp608
I0
aI0
aI0
aI0
aI0
aI0
aa(lp609
I0
aI0
aI0
aI0
aI0
aI0
aaa(lp610
(lp611
I0
aI0
aI0
aI0
aI0
aI0
aa(lp612
I0
aI0
aI0
aI0
aI0
aI0
aa(lp613
I3
aI3
aI3
aI0
aI0
aI0
aa(lp614
I3
aI3
aI3
aI0
aI0
aI0
aa(lp615
I3
aI3
aI3
aI0
aI0
aI0
aa(lp616
I0
aI0
aI0
aI0
aI0
aI0
aaa(lp617
(lp618
I0
aI0
aI0
aI0
aI0
aI0
aa(lp619
I0
aI4
aI4
aI4
aI4
aI0
aa(lp620
I0
aI4
aI4
aI4
aI4
aI0
aa(lp621
I0
aI4
aI4
aI4
aI4
aI0
aa(lp622
I0
aI4
aI4
aI4
aI4
aI0
aa(lp623
I0
aI0
aI0
aI0
aI0
aI0
aaa.